
FreeRTOS_Weerstation.elf:     file format elf32-littlearm

Sections:
Idx Name          Size      VMA       LMA       File off  Algn
  0 .isr_vector   000000c0  08000000  08000000  00010000  2**0
                  CONTENTS, ALLOC, LOAD, READONLY, DATA
  1 .text         000087e8  080000c0  080000c0  000100c0  2**4
                  CONTENTS, ALLOC, LOAD, READONLY, CODE
  2 .rodata       000002e0  080088a8  080088a8  000188a8  2**2
                  CONTENTS, ALLOC, LOAD, READONLY, DATA
  3 .ARM.extab    00000000  08008b88  08008b88  00020070  2**0
                  CONTENTS
  4 .ARM          00000008  08008b88  08008b88  00018b88  2**2
                  CONTENTS, ALLOC, LOAD, READONLY, DATA
  5 .preinit_array 00000000  08008b90  08008b90  00020070  2**0
                  CONTENTS, ALLOC, LOAD, DATA
  6 .init_array   00000004  08008b90  08008b90  00018b90  2**2
                  CONTENTS, ALLOC, LOAD, DATA
  7 .fini_array   00000004  08008b94  08008b94  00018b94  2**2
                  CONTENTS, ALLOC, LOAD, DATA
  8 .data         00000070  20000000  08008b98  00020000  2**2
                  CONTENTS, ALLOC, LOAD, DATA
  9 .bss          000015d0  20000070  08008c08  00020070  2**2
                  ALLOC
 10 ._user_heap_stack 00000600  20001640  08008c08  00021640  2**0
                  ALLOC
 11 .ARM.attributes 00000028  00000000  00000000  00020070  2**0
                  CONTENTS, READONLY
 12 .debug_info   0001d2fc  00000000  00000000  00020098  2**0
                  CONTENTS, READONLY, DEBUGGING, OCTETS
 13 .debug_abbrev 00003705  00000000  00000000  0003d394  2**0
                  CONTENTS, READONLY, DEBUGGING, OCTETS
 14 .debug_aranges 000016f0  00000000  00000000  00040aa0  2**3
                  CONTENTS, READONLY, DEBUGGING, OCTETS
 15 .debug_ranges 00001598  00000000  00000000  00042190  2**3
                  CONTENTS, READONLY, DEBUGGING, OCTETS
 16 .debug_macro  00005071  00000000  00000000  00043728  2**0
                  CONTENTS, READONLY, DEBUGGING, OCTETS
 17 .debug_line   00019903  00000000  00000000  00048799  2**0
                  CONTENTS, READONLY, DEBUGGING, OCTETS
 18 .debug_str    00071184  00000000  00000000  0006209c  2**0
                  CONTENTS, READONLY, DEBUGGING, OCTETS
 19 .comment      00000053  00000000  00000000  000d3220  2**0
                  CONTENTS, READONLY
 20 .debug_frame  00005954  00000000  00000000  000d3274  2**2
                  CONTENTS, READONLY, DEBUGGING, OCTETS

Disassembly of section .text:

080000c0 <__do_global_dtors_aux>:
 80000c0:	b510      	push	{r4, lr}
 80000c2:	4c06      	ldr	r4, [pc, #24]	; (80000dc <__do_global_dtors_aux+0x1c>)
 80000c4:	7823      	ldrb	r3, [r4, #0]
 80000c6:	2b00      	cmp	r3, #0
 80000c8:	d107      	bne.n	80000da <__do_global_dtors_aux+0x1a>
 80000ca:	4b05      	ldr	r3, [pc, #20]	; (80000e0 <__do_global_dtors_aux+0x20>)
 80000cc:	2b00      	cmp	r3, #0
 80000ce:	d002      	beq.n	80000d6 <__do_global_dtors_aux+0x16>
 80000d0:	4804      	ldr	r0, [pc, #16]	; (80000e4 <__do_global_dtors_aux+0x24>)
 80000d2:	e000      	b.n	80000d6 <__do_global_dtors_aux+0x16>
 80000d4:	bf00      	nop
 80000d6:	2301      	movs	r3, #1
 80000d8:	7023      	strb	r3, [r4, #0]
 80000da:	bd10      	pop	{r4, pc}
 80000dc:	20000070 	.word	0x20000070
 80000e0:	00000000 	.word	0x00000000
 80000e4:	08008890 	.word	0x08008890

080000e8 <frame_dummy>:
 80000e8:	4b04      	ldr	r3, [pc, #16]	; (80000fc <frame_dummy+0x14>)
 80000ea:	b510      	push	{r4, lr}
 80000ec:	2b00      	cmp	r3, #0
 80000ee:	d003      	beq.n	80000f8 <frame_dummy+0x10>
 80000f0:	4903      	ldr	r1, [pc, #12]	; (8000100 <frame_dummy+0x18>)
 80000f2:	4804      	ldr	r0, [pc, #16]	; (8000104 <frame_dummy+0x1c>)
 80000f4:	e000      	b.n	80000f8 <frame_dummy+0x10>
 80000f6:	bf00      	nop
 80000f8:	bd10      	pop	{r4, pc}
 80000fa:	46c0      	nop			; (mov r8, r8)
 80000fc:	00000000 	.word	0x00000000
 8000100:	20000074 	.word	0x20000074
 8000104:	08008890 	.word	0x08008890

08000108 <strlen>:
 8000108:	2300      	movs	r3, #0
 800010a:	5cc2      	ldrb	r2, [r0, r3]
 800010c:	3301      	adds	r3, #1
 800010e:	2a00      	cmp	r2, #0
 8000110:	d1fb      	bne.n	800010a <strlen+0x2>
 8000112:	1e58      	subs	r0, r3, #1
 8000114:	4770      	bx	lr
	...

08000118 <__gnu_thumb1_case_shi>:
 8000118:	b403      	push	{r0, r1}
 800011a:	4671      	mov	r1, lr
 800011c:	0849      	lsrs	r1, r1, #1
 800011e:	0040      	lsls	r0, r0, #1
 8000120:	0049      	lsls	r1, r1, #1
 8000122:	5e09      	ldrsh	r1, [r1, r0]
 8000124:	0049      	lsls	r1, r1, #1
 8000126:	448e      	add	lr, r1
 8000128:	bc03      	pop	{r0, r1}
 800012a:	4770      	bx	lr

0800012c <__udivsi3>:
 800012c:	2200      	movs	r2, #0
 800012e:	0843      	lsrs	r3, r0, #1
 8000130:	428b      	cmp	r3, r1
 8000132:	d374      	bcc.n	800021e <__udivsi3+0xf2>
 8000134:	0903      	lsrs	r3, r0, #4
 8000136:	428b      	cmp	r3, r1
 8000138:	d35f      	bcc.n	80001fa <__udivsi3+0xce>
 800013a:	0a03      	lsrs	r3, r0, #8
 800013c:	428b      	cmp	r3, r1
 800013e:	d344      	bcc.n	80001ca <__udivsi3+0x9e>
 8000140:	0b03      	lsrs	r3, r0, #12
 8000142:	428b      	cmp	r3, r1
 8000144:	d328      	bcc.n	8000198 <__udivsi3+0x6c>
 8000146:	0c03      	lsrs	r3, r0, #16
 8000148:	428b      	cmp	r3, r1
 800014a:	d30d      	bcc.n	8000168 <__udivsi3+0x3c>
 800014c:	22ff      	movs	r2, #255	; 0xff
 800014e:	0209      	lsls	r1, r1, #8
 8000150:	ba12      	rev	r2, r2
 8000152:	0c03      	lsrs	r3, r0, #16
 8000154:	428b      	cmp	r3, r1
 8000156:	d302      	bcc.n	800015e <__udivsi3+0x32>
 8000158:	1212      	asrs	r2, r2, #8
 800015a:	0209      	lsls	r1, r1, #8
 800015c:	d065      	beq.n	800022a <__udivsi3+0xfe>
 800015e:	0b03      	lsrs	r3, r0, #12
 8000160:	428b      	cmp	r3, r1
 8000162:	d319      	bcc.n	8000198 <__udivsi3+0x6c>
 8000164:	e000      	b.n	8000168 <__udivsi3+0x3c>
 8000166:	0a09      	lsrs	r1, r1, #8
 8000168:	0bc3      	lsrs	r3, r0, #15
 800016a:	428b      	cmp	r3, r1
 800016c:	d301      	bcc.n	8000172 <__udivsi3+0x46>
 800016e:	03cb      	lsls	r3, r1, #15
 8000170:	1ac0      	subs	r0, r0, r3
 8000172:	4152      	adcs	r2, r2
 8000174:	0b83      	lsrs	r3, r0, #14
 8000176:	428b      	cmp	r3, r1
 8000178:	d301      	bcc.n	800017e <__udivsi3+0x52>
 800017a:	038b      	lsls	r3, r1, #14
 800017c:	1ac0      	subs	r0, r0, r3
 800017e:	4152      	adcs	r2, r2
 8000180:	0b43      	lsrs	r3, r0, #13
 8000182:	428b      	cmp	r3, r1
 8000184:	d301      	bcc.n	800018a <__udivsi3+0x5e>
 8000186:	034b      	lsls	r3, r1, #13
 8000188:	1ac0      	subs	r0, r0, r3
 800018a:	4152      	adcs	r2, r2
 800018c:	0b03      	lsrs	r3, r0, #12
 800018e:	428b      	cmp	r3, r1
 8000190:	d301      	bcc.n	8000196 <__udivsi3+0x6a>
 8000192:	030b      	lsls	r3, r1, #12
 8000194:	1ac0      	subs	r0, r0, r3
 8000196:	4152      	adcs	r2, r2
 8000198:	0ac3      	lsrs	r3, r0, #11
 800019a:	428b      	cmp	r3, r1
 800019c:	d301      	bcc.n	80001a2 <__udivsi3+0x76>
 800019e:	02cb      	lsls	r3, r1, #11
 80001a0:	1ac0      	subs	r0, r0, r3
 80001a2:	4152      	adcs	r2, r2
 80001a4:	0a83      	lsrs	r3, r0, #10
 80001a6:	428b      	cmp	r3, r1
 80001a8:	d301      	bcc.n	80001ae <__udivsi3+0x82>
 80001aa:	028b      	lsls	r3, r1, #10
 80001ac:	1ac0      	subs	r0, r0, r3
 80001ae:	4152      	adcs	r2, r2
 80001b0:	0a43      	lsrs	r3, r0, #9
 80001b2:	428b      	cmp	r3, r1
 80001b4:	d301      	bcc.n	80001ba <__udivsi3+0x8e>
 80001b6:	024b      	lsls	r3, r1, #9
 80001b8:	1ac0      	subs	r0, r0, r3
 80001ba:	4152      	adcs	r2, r2
 80001bc:	0a03      	lsrs	r3, r0, #8
 80001be:	428b      	cmp	r3, r1
 80001c0:	d301      	bcc.n	80001c6 <__udivsi3+0x9a>
 80001c2:	020b      	lsls	r3, r1, #8
 80001c4:	1ac0      	subs	r0, r0, r3
 80001c6:	4152      	adcs	r2, r2
 80001c8:	d2cd      	bcs.n	8000166 <__udivsi3+0x3a>
 80001ca:	09c3      	lsrs	r3, r0, #7
 80001cc:	428b      	cmp	r3, r1
 80001ce:	d301      	bcc.n	80001d4 <__udivsi3+0xa8>
 80001d0:	01cb      	lsls	r3, r1, #7
 80001d2:	1ac0      	subs	r0, r0, r3
 80001d4:	4152      	adcs	r2, r2
 80001d6:	0983      	lsrs	r3, r0, #6
 80001d8:	428b      	cmp	r3, r1
 80001da:	d301      	bcc.n	80001e0 <__udivsi3+0xb4>
 80001dc:	018b      	lsls	r3, r1, #6
 80001de:	1ac0      	subs	r0, r0, r3
 80001e0:	4152      	adcs	r2, r2
 80001e2:	0943      	lsrs	r3, r0, #5
 80001e4:	428b      	cmp	r3, r1
 80001e6:	d301      	bcc.n	80001ec <__udivsi3+0xc0>
 80001e8:	014b      	lsls	r3, r1, #5
 80001ea:	1ac0      	subs	r0, r0, r3
 80001ec:	4152      	adcs	r2, r2
 80001ee:	0903      	lsrs	r3, r0, #4
 80001f0:	428b      	cmp	r3, r1
 80001f2:	d301      	bcc.n	80001f8 <__udivsi3+0xcc>
 80001f4:	010b      	lsls	r3, r1, #4
 80001f6:	1ac0      	subs	r0, r0, r3
 80001f8:	4152      	adcs	r2, r2
 80001fa:	08c3      	lsrs	r3, r0, #3
 80001fc:	428b      	cmp	r3, r1
 80001fe:	d301      	bcc.n	8000204 <__udivsi3+0xd8>
 8000200:	00cb      	lsls	r3, r1, #3
 8000202:	1ac0      	subs	r0, r0, r3
 8000204:	4152      	adcs	r2, r2
 8000206:	0883      	lsrs	r3, r0, #2
 8000208:	428b      	cmp	r3, r1
 800020a:	d301      	bcc.n	8000210 <__udivsi3+0xe4>
 800020c:	008b      	lsls	r3, r1, #2
 800020e:	1ac0      	subs	r0, r0, r3
 8000210:	4152      	adcs	r2, r2
 8000212:	0843      	lsrs	r3, r0, #1
 8000214:	428b      	cmp	r3, r1
 8000216:	d301      	bcc.n	800021c <__udivsi3+0xf0>
 8000218:	004b      	lsls	r3, r1, #1
 800021a:	1ac0      	subs	r0, r0, r3
 800021c:	4152      	adcs	r2, r2
 800021e:	1a41      	subs	r1, r0, r1
 8000220:	d200      	bcs.n	8000224 <__udivsi3+0xf8>
 8000222:	4601      	mov	r1, r0
 8000224:	4152      	adcs	r2, r2
 8000226:	4610      	mov	r0, r2
 8000228:	4770      	bx	lr
 800022a:	e7ff      	b.n	800022c <__udivsi3+0x100>
 800022c:	b501      	push	{r0, lr}
 800022e:	2000      	movs	r0, #0
 8000230:	f000 f806 	bl	8000240 <__aeabi_idiv0>
 8000234:	bd02      	pop	{r1, pc}
 8000236:	46c0      	nop			; (mov r8, r8)

08000238 <__aeabi_uidivmod>:
 8000238:	2900      	cmp	r1, #0
 800023a:	d0f7      	beq.n	800022c <__udivsi3+0x100>
 800023c:	e776      	b.n	800012c <__udivsi3>
 800023e:	4770      	bx	lr

08000240 <__aeabi_idiv0>:
 8000240:	4770      	bx	lr
 8000242:	46c0      	nop			; (mov r8, r8)

08000244 <__aeabi_ldivmod>:
 8000244:	2b00      	cmp	r3, #0
 8000246:	d115      	bne.n	8000274 <__aeabi_ldivmod+0x30>
 8000248:	2a00      	cmp	r2, #0
 800024a:	d113      	bne.n	8000274 <__aeabi_ldivmod+0x30>
 800024c:	2900      	cmp	r1, #0
 800024e:	db06      	blt.n	800025e <__aeabi_ldivmod+0x1a>
 8000250:	dc01      	bgt.n	8000256 <__aeabi_ldivmod+0x12>
 8000252:	2800      	cmp	r0, #0
 8000254:	d006      	beq.n	8000264 <__aeabi_ldivmod+0x20>
 8000256:	2000      	movs	r0, #0
 8000258:	43c0      	mvns	r0, r0
 800025a:	0841      	lsrs	r1, r0, #1
 800025c:	e002      	b.n	8000264 <__aeabi_ldivmod+0x20>
 800025e:	2180      	movs	r1, #128	; 0x80
 8000260:	0609      	lsls	r1, r1, #24
 8000262:	2000      	movs	r0, #0
 8000264:	b407      	push	{r0, r1, r2}
 8000266:	4802      	ldr	r0, [pc, #8]	; (8000270 <__aeabi_ldivmod+0x2c>)
 8000268:	a101      	add	r1, pc, #4	; (adr r1, 8000270 <__aeabi_ldivmod+0x2c>)
 800026a:	1840      	adds	r0, r0, r1
 800026c:	9002      	str	r0, [sp, #8]
 800026e:	bd03      	pop	{r0, r1, pc}
 8000270:	ffffffd1 	.word	0xffffffd1
 8000274:	b403      	push	{r0, r1}
 8000276:	4668      	mov	r0, sp
 8000278:	b501      	push	{r0, lr}
 800027a:	9802      	ldr	r0, [sp, #8]
 800027c:	f000 f82e 	bl	80002dc <__gnu_ldivmod_helper>
 8000280:	9b01      	ldr	r3, [sp, #4]
 8000282:	469e      	mov	lr, r3
 8000284:	b002      	add	sp, #8
 8000286:	bc0c      	pop	{r2, r3}
 8000288:	4770      	bx	lr
 800028a:	46c0      	nop			; (mov r8, r8)

0800028c <__aeabi_lmul>:
 800028c:	b5f0      	push	{r4, r5, r6, r7, lr}
 800028e:	0415      	lsls	r5, r2, #16
 8000290:	0c2d      	lsrs	r5, r5, #16
 8000292:	000f      	movs	r7, r1
 8000294:	0001      	movs	r1, r0
 8000296:	002e      	movs	r6, r5
 8000298:	46c6      	mov	lr, r8
 800029a:	4684      	mov	ip, r0
 800029c:	0400      	lsls	r0, r0, #16
 800029e:	0c14      	lsrs	r4, r2, #16
 80002a0:	0c00      	lsrs	r0, r0, #16
 80002a2:	0c09      	lsrs	r1, r1, #16
 80002a4:	4346      	muls	r6, r0
 80002a6:	434d      	muls	r5, r1
 80002a8:	4360      	muls	r0, r4
 80002aa:	4361      	muls	r1, r4
 80002ac:	1940      	adds	r0, r0, r5
 80002ae:	0c34      	lsrs	r4, r6, #16
 80002b0:	1824      	adds	r4, r4, r0
 80002b2:	b500      	push	{lr}
 80002b4:	42a5      	cmp	r5, r4
 80002b6:	d903      	bls.n	80002c0 <__aeabi_lmul+0x34>
 80002b8:	2080      	movs	r0, #128	; 0x80
 80002ba:	0240      	lsls	r0, r0, #9
 80002bc:	4680      	mov	r8, r0
 80002be:	4441      	add	r1, r8
 80002c0:	0c25      	lsrs	r5, r4, #16
 80002c2:	186d      	adds	r5, r5, r1
 80002c4:	4661      	mov	r1, ip
 80002c6:	4359      	muls	r1, r3
 80002c8:	437a      	muls	r2, r7
 80002ca:	0430      	lsls	r0, r6, #16
 80002cc:	1949      	adds	r1, r1, r5
 80002ce:	0424      	lsls	r4, r4, #16
 80002d0:	0c00      	lsrs	r0, r0, #16
 80002d2:	1820      	adds	r0, r4, r0
 80002d4:	1889      	adds	r1, r1, r2
 80002d6:	bc80      	pop	{r7}
 80002d8:	46b8      	mov	r8, r7
 80002da:	bdf0      	pop	{r4, r5, r6, r7, pc}

080002dc <__gnu_ldivmod_helper>:
 80002dc:	b5f8      	push	{r3, r4, r5, r6, r7, lr}
 80002de:	46ce      	mov	lr, r9
 80002e0:	4647      	mov	r7, r8
 80002e2:	b580      	push	{r7, lr}
 80002e4:	4691      	mov	r9, r2
 80002e6:	4698      	mov	r8, r3
 80002e8:	0004      	movs	r4, r0
 80002ea:	000d      	movs	r5, r1
 80002ec:	f000 fb80 	bl	80009f0 <__divdi3>
 80002f0:	0007      	movs	r7, r0
 80002f2:	000e      	movs	r6, r1
 80002f4:	0002      	movs	r2, r0
 80002f6:	000b      	movs	r3, r1
 80002f8:	4648      	mov	r0, r9
 80002fa:	4641      	mov	r1, r8
 80002fc:	f7ff ffc6 	bl	800028c <__aeabi_lmul>
 8000300:	1a24      	subs	r4, r4, r0
 8000302:	418d      	sbcs	r5, r1
 8000304:	9b08      	ldr	r3, [sp, #32]
 8000306:	0038      	movs	r0, r7
 8000308:	0031      	movs	r1, r6
 800030a:	601c      	str	r4, [r3, #0]
 800030c:	605d      	str	r5, [r3, #4]
 800030e:	bcc0      	pop	{r6, r7}
 8000310:	46b9      	mov	r9, r7
 8000312:	46b0      	mov	r8, r6
 8000314:	bdf8      	pop	{r3, r4, r5, r6, r7, pc}
 8000316:	46c0      	nop			; (mov r8, r8)

08000318 <__aeabi_ddiv>:
 8000318:	b5f0      	push	{r4, r5, r6, r7, lr}
 800031a:	4657      	mov	r7, sl
 800031c:	464e      	mov	r6, r9
 800031e:	4645      	mov	r5, r8
 8000320:	46de      	mov	lr, fp
 8000322:	b5e0      	push	{r5, r6, r7, lr}
 8000324:	4681      	mov	r9, r0
 8000326:	0005      	movs	r5, r0
 8000328:	030c      	lsls	r4, r1, #12
 800032a:	0048      	lsls	r0, r1, #1
 800032c:	4692      	mov	sl, r2
 800032e:	001f      	movs	r7, r3
 8000330:	b085      	sub	sp, #20
 8000332:	0b24      	lsrs	r4, r4, #12
 8000334:	0d40      	lsrs	r0, r0, #21
 8000336:	0fce      	lsrs	r6, r1, #31
 8000338:	2800      	cmp	r0, #0
 800033a:	d059      	beq.n	80003f0 <__aeabi_ddiv+0xd8>
 800033c:	4b87      	ldr	r3, [pc, #540]	; (800055c <__aeabi_ddiv+0x244>)
 800033e:	4298      	cmp	r0, r3
 8000340:	d100      	bne.n	8000344 <__aeabi_ddiv+0x2c>
 8000342:	e098      	b.n	8000476 <__aeabi_ddiv+0x15e>
 8000344:	0f6b      	lsrs	r3, r5, #29
 8000346:	00e4      	lsls	r4, r4, #3
 8000348:	431c      	orrs	r4, r3
 800034a:	2380      	movs	r3, #128	; 0x80
 800034c:	041b      	lsls	r3, r3, #16
 800034e:	4323      	orrs	r3, r4
 8000350:	4698      	mov	r8, r3
 8000352:	4b83      	ldr	r3, [pc, #524]	; (8000560 <__aeabi_ddiv+0x248>)
 8000354:	00ed      	lsls	r5, r5, #3
 8000356:	469b      	mov	fp, r3
 8000358:	2300      	movs	r3, #0
 800035a:	4699      	mov	r9, r3
 800035c:	4483      	add	fp, r0
 800035e:	9300      	str	r3, [sp, #0]
 8000360:	033c      	lsls	r4, r7, #12
 8000362:	007b      	lsls	r3, r7, #1
 8000364:	4650      	mov	r0, sl
 8000366:	0b24      	lsrs	r4, r4, #12
 8000368:	0d5b      	lsrs	r3, r3, #21
 800036a:	0fff      	lsrs	r7, r7, #31
 800036c:	2b00      	cmp	r3, #0
 800036e:	d067      	beq.n	8000440 <__aeabi_ddiv+0x128>
 8000370:	4a7a      	ldr	r2, [pc, #488]	; (800055c <__aeabi_ddiv+0x244>)
 8000372:	4293      	cmp	r3, r2
 8000374:	d018      	beq.n	80003a8 <__aeabi_ddiv+0x90>
 8000376:	497a      	ldr	r1, [pc, #488]	; (8000560 <__aeabi_ddiv+0x248>)
 8000378:	0f42      	lsrs	r2, r0, #29
 800037a:	468c      	mov	ip, r1
 800037c:	00e4      	lsls	r4, r4, #3
 800037e:	4659      	mov	r1, fp
 8000380:	4314      	orrs	r4, r2
 8000382:	2280      	movs	r2, #128	; 0x80
 8000384:	4463      	add	r3, ip
 8000386:	0412      	lsls	r2, r2, #16
 8000388:	1acb      	subs	r3, r1, r3
 800038a:	4314      	orrs	r4, r2
 800038c:	469b      	mov	fp, r3
 800038e:	00c2      	lsls	r2, r0, #3
 8000390:	2000      	movs	r0, #0
 8000392:	0033      	movs	r3, r6
 8000394:	407b      	eors	r3, r7
 8000396:	469a      	mov	sl, r3
 8000398:	464b      	mov	r3, r9
 800039a:	2b0f      	cmp	r3, #15
 800039c:	d900      	bls.n	80003a0 <__aeabi_ddiv+0x88>
 800039e:	e0ef      	b.n	8000580 <__aeabi_ddiv+0x268>
 80003a0:	4970      	ldr	r1, [pc, #448]	; (8000564 <__aeabi_ddiv+0x24c>)
 80003a2:	009b      	lsls	r3, r3, #2
 80003a4:	58cb      	ldr	r3, [r1, r3]
 80003a6:	469f      	mov	pc, r3
 80003a8:	4b6f      	ldr	r3, [pc, #444]	; (8000568 <__aeabi_ddiv+0x250>)
 80003aa:	4652      	mov	r2, sl
 80003ac:	469c      	mov	ip, r3
 80003ae:	4322      	orrs	r2, r4
 80003b0:	44e3      	add	fp, ip
 80003b2:	2a00      	cmp	r2, #0
 80003b4:	d000      	beq.n	80003b8 <__aeabi_ddiv+0xa0>
 80003b6:	e095      	b.n	80004e4 <__aeabi_ddiv+0x1cc>
 80003b8:	4649      	mov	r1, r9
 80003ba:	2302      	movs	r3, #2
 80003bc:	4319      	orrs	r1, r3
 80003be:	4689      	mov	r9, r1
 80003c0:	2400      	movs	r4, #0
 80003c2:	2002      	movs	r0, #2
 80003c4:	e7e5      	b.n	8000392 <__aeabi_ddiv+0x7a>
 80003c6:	2300      	movs	r3, #0
 80003c8:	2400      	movs	r4, #0
 80003ca:	2500      	movs	r5, #0
 80003cc:	4652      	mov	r2, sl
 80003ce:	051b      	lsls	r3, r3, #20
 80003d0:	4323      	orrs	r3, r4
 80003d2:	07d2      	lsls	r2, r2, #31
 80003d4:	4313      	orrs	r3, r2
 80003d6:	0028      	movs	r0, r5
 80003d8:	0019      	movs	r1, r3
 80003da:	b005      	add	sp, #20
 80003dc:	bcf0      	pop	{r4, r5, r6, r7}
 80003de:	46bb      	mov	fp, r7
 80003e0:	46b2      	mov	sl, r6
 80003e2:	46a9      	mov	r9, r5
 80003e4:	46a0      	mov	r8, r4
 80003e6:	bdf0      	pop	{r4, r5, r6, r7, pc}
 80003e8:	2400      	movs	r4, #0
 80003ea:	2500      	movs	r5, #0
 80003ec:	4b5b      	ldr	r3, [pc, #364]	; (800055c <__aeabi_ddiv+0x244>)
 80003ee:	e7ed      	b.n	80003cc <__aeabi_ddiv+0xb4>
 80003f0:	464b      	mov	r3, r9
 80003f2:	4323      	orrs	r3, r4
 80003f4:	4698      	mov	r8, r3
 80003f6:	d100      	bne.n	80003fa <__aeabi_ddiv+0xe2>
 80003f8:	e089      	b.n	800050e <__aeabi_ddiv+0x1f6>
 80003fa:	2c00      	cmp	r4, #0
 80003fc:	d100      	bne.n	8000400 <__aeabi_ddiv+0xe8>
 80003fe:	e1e0      	b.n	80007c2 <__aeabi_ddiv+0x4aa>
 8000400:	0020      	movs	r0, r4
 8000402:	f000 fad7 	bl	80009b4 <__clzsi2>
 8000406:	0001      	movs	r1, r0
 8000408:	0002      	movs	r2, r0
 800040a:	390b      	subs	r1, #11
 800040c:	231d      	movs	r3, #29
 800040e:	1a5b      	subs	r3, r3, r1
 8000410:	4649      	mov	r1, r9
 8000412:	0010      	movs	r0, r2
 8000414:	40d9      	lsrs	r1, r3
 8000416:	3808      	subs	r0, #8
 8000418:	4084      	lsls	r4, r0
 800041a:	000b      	movs	r3, r1
 800041c:	464d      	mov	r5, r9
 800041e:	4323      	orrs	r3, r4
 8000420:	4698      	mov	r8, r3
 8000422:	4085      	lsls	r5, r0
 8000424:	4851      	ldr	r0, [pc, #324]	; (800056c <__aeabi_ddiv+0x254>)
 8000426:	033c      	lsls	r4, r7, #12
 8000428:	1a83      	subs	r3, r0, r2
 800042a:	469b      	mov	fp, r3
 800042c:	2300      	movs	r3, #0
 800042e:	4699      	mov	r9, r3
 8000430:	9300      	str	r3, [sp, #0]
 8000432:	007b      	lsls	r3, r7, #1
 8000434:	4650      	mov	r0, sl
 8000436:	0b24      	lsrs	r4, r4, #12
 8000438:	0d5b      	lsrs	r3, r3, #21
 800043a:	0fff      	lsrs	r7, r7, #31
 800043c:	2b00      	cmp	r3, #0
 800043e:	d197      	bne.n	8000370 <__aeabi_ddiv+0x58>
 8000440:	4652      	mov	r2, sl
 8000442:	4322      	orrs	r2, r4
 8000444:	d055      	beq.n	80004f2 <__aeabi_ddiv+0x1da>
 8000446:	2c00      	cmp	r4, #0
 8000448:	d100      	bne.n	800044c <__aeabi_ddiv+0x134>
 800044a:	e1ca      	b.n	80007e2 <__aeabi_ddiv+0x4ca>
 800044c:	0020      	movs	r0, r4
 800044e:	f000 fab1 	bl	80009b4 <__clzsi2>
 8000452:	0002      	movs	r2, r0
 8000454:	3a0b      	subs	r2, #11
 8000456:	231d      	movs	r3, #29
 8000458:	0001      	movs	r1, r0
 800045a:	1a9b      	subs	r3, r3, r2
 800045c:	4652      	mov	r2, sl
 800045e:	3908      	subs	r1, #8
 8000460:	40da      	lsrs	r2, r3
 8000462:	408c      	lsls	r4, r1
 8000464:	4314      	orrs	r4, r2
 8000466:	4652      	mov	r2, sl
 8000468:	408a      	lsls	r2, r1
 800046a:	4b41      	ldr	r3, [pc, #260]	; (8000570 <__aeabi_ddiv+0x258>)
 800046c:	4458      	add	r0, fp
 800046e:	469b      	mov	fp, r3
 8000470:	4483      	add	fp, r0
 8000472:	2000      	movs	r0, #0
 8000474:	e78d      	b.n	8000392 <__aeabi_ddiv+0x7a>
 8000476:	464b      	mov	r3, r9
 8000478:	4323      	orrs	r3, r4
 800047a:	4698      	mov	r8, r3
 800047c:	d140      	bne.n	8000500 <__aeabi_ddiv+0x1e8>
 800047e:	2308      	movs	r3, #8
 8000480:	4699      	mov	r9, r3
 8000482:	3b06      	subs	r3, #6
 8000484:	2500      	movs	r5, #0
 8000486:	4683      	mov	fp, r0
 8000488:	9300      	str	r3, [sp, #0]
 800048a:	e769      	b.n	8000360 <__aeabi_ddiv+0x48>
 800048c:	46b2      	mov	sl, r6
 800048e:	9b00      	ldr	r3, [sp, #0]
 8000490:	2b02      	cmp	r3, #2
 8000492:	d0a9      	beq.n	80003e8 <__aeabi_ddiv+0xd0>
 8000494:	2b03      	cmp	r3, #3
 8000496:	d100      	bne.n	800049a <__aeabi_ddiv+0x182>
 8000498:	e211      	b.n	80008be <__aeabi_ddiv+0x5a6>
 800049a:	2b01      	cmp	r3, #1
 800049c:	d093      	beq.n	80003c6 <__aeabi_ddiv+0xae>
 800049e:	4a35      	ldr	r2, [pc, #212]	; (8000574 <__aeabi_ddiv+0x25c>)
 80004a0:	445a      	add	r2, fp
 80004a2:	2a00      	cmp	r2, #0
 80004a4:	dc00      	bgt.n	80004a8 <__aeabi_ddiv+0x190>
 80004a6:	e13c      	b.n	8000722 <__aeabi_ddiv+0x40a>
 80004a8:	076b      	lsls	r3, r5, #29
 80004aa:	d000      	beq.n	80004ae <__aeabi_ddiv+0x196>
 80004ac:	e1a7      	b.n	80007fe <__aeabi_ddiv+0x4e6>
 80004ae:	08ed      	lsrs	r5, r5, #3
 80004b0:	4643      	mov	r3, r8
 80004b2:	01db      	lsls	r3, r3, #7
 80004b4:	d506      	bpl.n	80004c4 <__aeabi_ddiv+0x1ac>
 80004b6:	4642      	mov	r2, r8
 80004b8:	4b2f      	ldr	r3, [pc, #188]	; (8000578 <__aeabi_ddiv+0x260>)
 80004ba:	401a      	ands	r2, r3
 80004bc:	4690      	mov	r8, r2
 80004be:	2280      	movs	r2, #128	; 0x80
 80004c0:	00d2      	lsls	r2, r2, #3
 80004c2:	445a      	add	r2, fp
 80004c4:	4b2d      	ldr	r3, [pc, #180]	; (800057c <__aeabi_ddiv+0x264>)
 80004c6:	429a      	cmp	r2, r3
 80004c8:	dc8e      	bgt.n	80003e8 <__aeabi_ddiv+0xd0>
 80004ca:	4643      	mov	r3, r8
 80004cc:	0552      	lsls	r2, r2, #21
 80004ce:	0758      	lsls	r0, r3, #29
 80004d0:	025c      	lsls	r4, r3, #9
 80004d2:	4305      	orrs	r5, r0
 80004d4:	0b24      	lsrs	r4, r4, #12
 80004d6:	0d53      	lsrs	r3, r2, #21
 80004d8:	e778      	b.n	80003cc <__aeabi_ddiv+0xb4>
 80004da:	46ba      	mov	sl, r7
 80004dc:	46a0      	mov	r8, r4
 80004de:	0015      	movs	r5, r2
 80004e0:	9000      	str	r0, [sp, #0]
 80004e2:	e7d4      	b.n	800048e <__aeabi_ddiv+0x176>
 80004e4:	464a      	mov	r2, r9
 80004e6:	2303      	movs	r3, #3
 80004e8:	431a      	orrs	r2, r3
 80004ea:	4691      	mov	r9, r2
 80004ec:	2003      	movs	r0, #3
 80004ee:	4652      	mov	r2, sl
 80004f0:	e74f      	b.n	8000392 <__aeabi_ddiv+0x7a>
 80004f2:	4649      	mov	r1, r9
 80004f4:	2301      	movs	r3, #1
 80004f6:	4319      	orrs	r1, r3
 80004f8:	4689      	mov	r9, r1
 80004fa:	2400      	movs	r4, #0
 80004fc:	2001      	movs	r0, #1
 80004fe:	e748      	b.n	8000392 <__aeabi_ddiv+0x7a>
 8000500:	230c      	movs	r3, #12
 8000502:	4699      	mov	r9, r3
 8000504:	3b09      	subs	r3, #9
 8000506:	46a0      	mov	r8, r4
 8000508:	4683      	mov	fp, r0
 800050a:	9300      	str	r3, [sp, #0]
 800050c:	e728      	b.n	8000360 <__aeabi_ddiv+0x48>
 800050e:	2304      	movs	r3, #4
 8000510:	4699      	mov	r9, r3
 8000512:	2300      	movs	r3, #0
 8000514:	469b      	mov	fp, r3
 8000516:	3301      	adds	r3, #1
 8000518:	2500      	movs	r5, #0
 800051a:	9300      	str	r3, [sp, #0]
 800051c:	e720      	b.n	8000360 <__aeabi_ddiv+0x48>
 800051e:	2300      	movs	r3, #0
 8000520:	2480      	movs	r4, #128	; 0x80
 8000522:	469a      	mov	sl, r3
 8000524:	2500      	movs	r5, #0
 8000526:	4b0d      	ldr	r3, [pc, #52]	; (800055c <__aeabi_ddiv+0x244>)
 8000528:	0324      	lsls	r4, r4, #12
 800052a:	e74f      	b.n	80003cc <__aeabi_ddiv+0xb4>
 800052c:	2380      	movs	r3, #128	; 0x80
 800052e:	4641      	mov	r1, r8
 8000530:	031b      	lsls	r3, r3, #12
 8000532:	4219      	tst	r1, r3
 8000534:	d008      	beq.n	8000548 <__aeabi_ddiv+0x230>
 8000536:	421c      	tst	r4, r3
 8000538:	d106      	bne.n	8000548 <__aeabi_ddiv+0x230>
 800053a:	431c      	orrs	r4, r3
 800053c:	0324      	lsls	r4, r4, #12
 800053e:	46ba      	mov	sl, r7
 8000540:	0015      	movs	r5, r2
 8000542:	4b06      	ldr	r3, [pc, #24]	; (800055c <__aeabi_ddiv+0x244>)
 8000544:	0b24      	lsrs	r4, r4, #12
 8000546:	e741      	b.n	80003cc <__aeabi_ddiv+0xb4>
 8000548:	2480      	movs	r4, #128	; 0x80
 800054a:	4643      	mov	r3, r8
 800054c:	0324      	lsls	r4, r4, #12
 800054e:	431c      	orrs	r4, r3
 8000550:	0324      	lsls	r4, r4, #12
 8000552:	46b2      	mov	sl, r6
 8000554:	4b01      	ldr	r3, [pc, #4]	; (800055c <__aeabi_ddiv+0x244>)
 8000556:	0b24      	lsrs	r4, r4, #12
 8000558:	e738      	b.n	80003cc <__aeabi_ddiv+0xb4>
 800055a:	46c0      	nop			; (mov r8, r8)
 800055c:	000007ff 	.word	0x000007ff
 8000560:	fffffc01 	.word	0xfffffc01
 8000564:	08008a68 	.word	0x08008a68
 8000568:	fffff801 	.word	0xfffff801
 800056c:	fffffc0d 	.word	0xfffffc0d
 8000570:	000003f3 	.word	0x000003f3
 8000574:	000003ff 	.word	0x000003ff
 8000578:	feffffff 	.word	0xfeffffff
 800057c:	000007fe 	.word	0x000007fe
 8000580:	4544      	cmp	r4, r8
 8000582:	d200      	bcs.n	8000586 <__aeabi_ddiv+0x26e>
 8000584:	e116      	b.n	80007b4 <__aeabi_ddiv+0x49c>
 8000586:	d100      	bne.n	800058a <__aeabi_ddiv+0x272>
 8000588:	e111      	b.n	80007ae <__aeabi_ddiv+0x496>
 800058a:	2301      	movs	r3, #1
 800058c:	425b      	negs	r3, r3
 800058e:	469c      	mov	ip, r3
 8000590:	002e      	movs	r6, r5
 8000592:	4640      	mov	r0, r8
 8000594:	2500      	movs	r5, #0
 8000596:	44e3      	add	fp, ip
 8000598:	0223      	lsls	r3, r4, #8
 800059a:	0e14      	lsrs	r4, r2, #24
 800059c:	431c      	orrs	r4, r3
 800059e:	0c1b      	lsrs	r3, r3, #16
 80005a0:	4699      	mov	r9, r3
 80005a2:	0423      	lsls	r3, r4, #16
 80005a4:	0c1f      	lsrs	r7, r3, #16
 80005a6:	0212      	lsls	r2, r2, #8
 80005a8:	4649      	mov	r1, r9
 80005aa:	9200      	str	r2, [sp, #0]
 80005ac:	9701      	str	r7, [sp, #4]
 80005ae:	f7ff fe43 	bl	8000238 <__aeabi_uidivmod>
 80005b2:	0002      	movs	r2, r0
 80005b4:	437a      	muls	r2, r7
 80005b6:	040b      	lsls	r3, r1, #16
 80005b8:	0c31      	lsrs	r1, r6, #16
 80005ba:	4680      	mov	r8, r0
 80005bc:	4319      	orrs	r1, r3
 80005be:	428a      	cmp	r2, r1
 80005c0:	d90b      	bls.n	80005da <__aeabi_ddiv+0x2c2>
 80005c2:	2301      	movs	r3, #1
 80005c4:	425b      	negs	r3, r3
 80005c6:	469c      	mov	ip, r3
 80005c8:	1909      	adds	r1, r1, r4
 80005ca:	44e0      	add	r8, ip
 80005cc:	428c      	cmp	r4, r1
 80005ce:	d804      	bhi.n	80005da <__aeabi_ddiv+0x2c2>
 80005d0:	428a      	cmp	r2, r1
 80005d2:	d902      	bls.n	80005da <__aeabi_ddiv+0x2c2>
 80005d4:	1e83      	subs	r3, r0, #2
 80005d6:	4698      	mov	r8, r3
 80005d8:	1909      	adds	r1, r1, r4
 80005da:	1a88      	subs	r0, r1, r2
 80005dc:	4649      	mov	r1, r9
 80005de:	f7ff fe2b 	bl	8000238 <__aeabi_uidivmod>
 80005e2:	0409      	lsls	r1, r1, #16
 80005e4:	468c      	mov	ip, r1
 80005e6:	0431      	lsls	r1, r6, #16
 80005e8:	4666      	mov	r6, ip
 80005ea:	9a01      	ldr	r2, [sp, #4]
 80005ec:	0c09      	lsrs	r1, r1, #16
 80005ee:	4342      	muls	r2, r0
 80005f0:	0003      	movs	r3, r0
 80005f2:	4331      	orrs	r1, r6
 80005f4:	428a      	cmp	r2, r1
 80005f6:	d904      	bls.n	8000602 <__aeabi_ddiv+0x2ea>
 80005f8:	1909      	adds	r1, r1, r4
 80005fa:	3b01      	subs	r3, #1
 80005fc:	428c      	cmp	r4, r1
 80005fe:	d800      	bhi.n	8000602 <__aeabi_ddiv+0x2ea>
 8000600:	e111      	b.n	8000826 <__aeabi_ddiv+0x50e>
 8000602:	1a89      	subs	r1, r1, r2
 8000604:	4642      	mov	r2, r8
 8000606:	9e00      	ldr	r6, [sp, #0]
 8000608:	0412      	lsls	r2, r2, #16
 800060a:	431a      	orrs	r2, r3
 800060c:	0c33      	lsrs	r3, r6, #16
 800060e:	001f      	movs	r7, r3
 8000610:	0c10      	lsrs	r0, r2, #16
 8000612:	4690      	mov	r8, r2
 8000614:	9302      	str	r3, [sp, #8]
 8000616:	0413      	lsls	r3, r2, #16
 8000618:	0432      	lsls	r2, r6, #16
 800061a:	0c16      	lsrs	r6, r2, #16
 800061c:	0032      	movs	r2, r6
 800061e:	0c1b      	lsrs	r3, r3, #16
 8000620:	435a      	muls	r2, r3
 8000622:	9603      	str	r6, [sp, #12]
 8000624:	437b      	muls	r3, r7
 8000626:	4346      	muls	r6, r0
 8000628:	4378      	muls	r0, r7
 800062a:	0c17      	lsrs	r7, r2, #16
 800062c:	46bc      	mov	ip, r7
 800062e:	199b      	adds	r3, r3, r6
 8000630:	4463      	add	r3, ip
 8000632:	429e      	cmp	r6, r3
 8000634:	d903      	bls.n	800063e <__aeabi_ddiv+0x326>
 8000636:	2680      	movs	r6, #128	; 0x80
 8000638:	0276      	lsls	r6, r6, #9
 800063a:	46b4      	mov	ip, r6
 800063c:	4460      	add	r0, ip
 800063e:	0c1e      	lsrs	r6, r3, #16
 8000640:	1830      	adds	r0, r6, r0
 8000642:	0416      	lsls	r6, r2, #16
 8000644:	041b      	lsls	r3, r3, #16
 8000646:	0c36      	lsrs	r6, r6, #16
 8000648:	199e      	adds	r6, r3, r6
 800064a:	4281      	cmp	r1, r0
 800064c:	d200      	bcs.n	8000650 <__aeabi_ddiv+0x338>
 800064e:	e09c      	b.n	800078a <__aeabi_ddiv+0x472>
 8000650:	d100      	bne.n	8000654 <__aeabi_ddiv+0x33c>
 8000652:	e097      	b.n	8000784 <__aeabi_ddiv+0x46c>
 8000654:	1bae      	subs	r6, r5, r6
 8000656:	1a09      	subs	r1, r1, r0
 8000658:	42b5      	cmp	r5, r6
 800065a:	4180      	sbcs	r0, r0
 800065c:	4240      	negs	r0, r0
 800065e:	1a08      	subs	r0, r1, r0
 8000660:	4284      	cmp	r4, r0
 8000662:	d100      	bne.n	8000666 <__aeabi_ddiv+0x34e>
 8000664:	e111      	b.n	800088a <__aeabi_ddiv+0x572>
 8000666:	4649      	mov	r1, r9
 8000668:	f7ff fde6 	bl	8000238 <__aeabi_uidivmod>
 800066c:	9a01      	ldr	r2, [sp, #4]
 800066e:	040b      	lsls	r3, r1, #16
 8000670:	4342      	muls	r2, r0
 8000672:	0c31      	lsrs	r1, r6, #16
 8000674:	0005      	movs	r5, r0
 8000676:	4319      	orrs	r1, r3
 8000678:	428a      	cmp	r2, r1
 800067a:	d907      	bls.n	800068c <__aeabi_ddiv+0x374>
 800067c:	1909      	adds	r1, r1, r4
 800067e:	3d01      	subs	r5, #1
 8000680:	428c      	cmp	r4, r1
 8000682:	d803      	bhi.n	800068c <__aeabi_ddiv+0x374>
 8000684:	428a      	cmp	r2, r1
 8000686:	d901      	bls.n	800068c <__aeabi_ddiv+0x374>
 8000688:	1e85      	subs	r5, r0, #2
 800068a:	1909      	adds	r1, r1, r4
 800068c:	1a88      	subs	r0, r1, r2
 800068e:	4649      	mov	r1, r9
 8000690:	f7ff fdd2 	bl	8000238 <__aeabi_uidivmod>
 8000694:	0409      	lsls	r1, r1, #16
 8000696:	468c      	mov	ip, r1
 8000698:	0431      	lsls	r1, r6, #16
 800069a:	4666      	mov	r6, ip
 800069c:	9a01      	ldr	r2, [sp, #4]
 800069e:	0c09      	lsrs	r1, r1, #16
 80006a0:	4342      	muls	r2, r0
 80006a2:	0003      	movs	r3, r0
 80006a4:	4331      	orrs	r1, r6
 80006a6:	428a      	cmp	r2, r1
 80006a8:	d907      	bls.n	80006ba <__aeabi_ddiv+0x3a2>
 80006aa:	1909      	adds	r1, r1, r4
 80006ac:	3b01      	subs	r3, #1
 80006ae:	428c      	cmp	r4, r1
 80006b0:	d803      	bhi.n	80006ba <__aeabi_ddiv+0x3a2>
 80006b2:	428a      	cmp	r2, r1
 80006b4:	d901      	bls.n	80006ba <__aeabi_ddiv+0x3a2>
 80006b6:	1e83      	subs	r3, r0, #2
 80006b8:	1909      	adds	r1, r1, r4
 80006ba:	9e03      	ldr	r6, [sp, #12]
 80006bc:	1a89      	subs	r1, r1, r2
 80006be:	0032      	movs	r2, r6
 80006c0:	042d      	lsls	r5, r5, #16
 80006c2:	431d      	orrs	r5, r3
 80006c4:	9f02      	ldr	r7, [sp, #8]
 80006c6:	042b      	lsls	r3, r5, #16
 80006c8:	0c1b      	lsrs	r3, r3, #16
 80006ca:	435a      	muls	r2, r3
 80006cc:	437b      	muls	r3, r7
 80006ce:	469c      	mov	ip, r3
 80006d0:	0c28      	lsrs	r0, r5, #16
 80006d2:	4346      	muls	r6, r0
 80006d4:	0c13      	lsrs	r3, r2, #16
 80006d6:	44b4      	add	ip, r6
 80006d8:	4463      	add	r3, ip
 80006da:	4378      	muls	r0, r7
 80006dc:	429e      	cmp	r6, r3
 80006de:	d903      	bls.n	80006e8 <__aeabi_ddiv+0x3d0>
 80006e0:	2680      	movs	r6, #128	; 0x80
 80006e2:	0276      	lsls	r6, r6, #9
 80006e4:	46b4      	mov	ip, r6
 80006e6:	4460      	add	r0, ip
 80006e8:	0c1e      	lsrs	r6, r3, #16
 80006ea:	0412      	lsls	r2, r2, #16
 80006ec:	041b      	lsls	r3, r3, #16
 80006ee:	0c12      	lsrs	r2, r2, #16
 80006f0:	1830      	adds	r0, r6, r0
 80006f2:	189b      	adds	r3, r3, r2
 80006f4:	4281      	cmp	r1, r0
 80006f6:	d306      	bcc.n	8000706 <__aeabi_ddiv+0x3ee>
 80006f8:	d002      	beq.n	8000700 <__aeabi_ddiv+0x3e8>
 80006fa:	2301      	movs	r3, #1
 80006fc:	431d      	orrs	r5, r3
 80006fe:	e6ce      	b.n	800049e <__aeabi_ddiv+0x186>
 8000700:	2b00      	cmp	r3, #0
 8000702:	d100      	bne.n	8000706 <__aeabi_ddiv+0x3ee>
 8000704:	e6cb      	b.n	800049e <__aeabi_ddiv+0x186>
 8000706:	1861      	adds	r1, r4, r1
 8000708:	1e6e      	subs	r6, r5, #1
 800070a:	42a1      	cmp	r1, r4
 800070c:	d200      	bcs.n	8000710 <__aeabi_ddiv+0x3f8>
 800070e:	e0a4      	b.n	800085a <__aeabi_ddiv+0x542>
 8000710:	4281      	cmp	r1, r0
 8000712:	d200      	bcs.n	8000716 <__aeabi_ddiv+0x3fe>
 8000714:	e0c9      	b.n	80008aa <__aeabi_ddiv+0x592>
 8000716:	d100      	bne.n	800071a <__aeabi_ddiv+0x402>
 8000718:	e0d9      	b.n	80008ce <__aeabi_ddiv+0x5b6>
 800071a:	0035      	movs	r5, r6
 800071c:	e7ed      	b.n	80006fa <__aeabi_ddiv+0x3e2>
 800071e:	2501      	movs	r5, #1
 8000720:	426d      	negs	r5, r5
 8000722:	2101      	movs	r1, #1
 8000724:	1a89      	subs	r1, r1, r2
 8000726:	2938      	cmp	r1, #56	; 0x38
 8000728:	dd00      	ble.n	800072c <__aeabi_ddiv+0x414>
 800072a:	e64c      	b.n	80003c6 <__aeabi_ddiv+0xae>
 800072c:	291f      	cmp	r1, #31
 800072e:	dc00      	bgt.n	8000732 <__aeabi_ddiv+0x41a>
 8000730:	e07f      	b.n	8000832 <__aeabi_ddiv+0x51a>
 8000732:	231f      	movs	r3, #31
 8000734:	425b      	negs	r3, r3
 8000736:	1a9a      	subs	r2, r3, r2
 8000738:	4643      	mov	r3, r8
 800073a:	40d3      	lsrs	r3, r2
 800073c:	2920      	cmp	r1, #32
 800073e:	d004      	beq.n	800074a <__aeabi_ddiv+0x432>
 8000740:	4644      	mov	r4, r8
 8000742:	4a65      	ldr	r2, [pc, #404]	; (80008d8 <__aeabi_ddiv+0x5c0>)
 8000744:	445a      	add	r2, fp
 8000746:	4094      	lsls	r4, r2
 8000748:	4325      	orrs	r5, r4
 800074a:	1e6a      	subs	r2, r5, #1
 800074c:	4195      	sbcs	r5, r2
 800074e:	2207      	movs	r2, #7
 8000750:	432b      	orrs	r3, r5
 8000752:	0015      	movs	r5, r2
 8000754:	2400      	movs	r4, #0
 8000756:	401d      	ands	r5, r3
 8000758:	421a      	tst	r2, r3
 800075a:	d100      	bne.n	800075e <__aeabi_ddiv+0x446>
 800075c:	e0a1      	b.n	80008a2 <__aeabi_ddiv+0x58a>
 800075e:	220f      	movs	r2, #15
 8000760:	2400      	movs	r4, #0
 8000762:	401a      	ands	r2, r3
 8000764:	2a04      	cmp	r2, #4
 8000766:	d100      	bne.n	800076a <__aeabi_ddiv+0x452>
 8000768:	e098      	b.n	800089c <__aeabi_ddiv+0x584>
 800076a:	1d1a      	adds	r2, r3, #4
 800076c:	429a      	cmp	r2, r3
 800076e:	419b      	sbcs	r3, r3
 8000770:	425b      	negs	r3, r3
 8000772:	18e4      	adds	r4, r4, r3
 8000774:	0013      	movs	r3, r2
 8000776:	0222      	lsls	r2, r4, #8
 8000778:	d400      	bmi.n	800077c <__aeabi_ddiv+0x464>
 800077a:	e08f      	b.n	800089c <__aeabi_ddiv+0x584>
 800077c:	2301      	movs	r3, #1
 800077e:	2400      	movs	r4, #0
 8000780:	2500      	movs	r5, #0
 8000782:	e623      	b.n	80003cc <__aeabi_ddiv+0xb4>
 8000784:	42b5      	cmp	r5, r6
 8000786:	d300      	bcc.n	800078a <__aeabi_ddiv+0x472>
 8000788:	e764      	b.n	8000654 <__aeabi_ddiv+0x33c>
 800078a:	4643      	mov	r3, r8
 800078c:	1e5a      	subs	r2, r3, #1
 800078e:	9b00      	ldr	r3, [sp, #0]
 8000790:	469c      	mov	ip, r3
 8000792:	4465      	add	r5, ip
 8000794:	001f      	movs	r7, r3
 8000796:	429d      	cmp	r5, r3
 8000798:	419b      	sbcs	r3, r3
 800079a:	425b      	negs	r3, r3
 800079c:	191b      	adds	r3, r3, r4
 800079e:	18c9      	adds	r1, r1, r3
 80007a0:	428c      	cmp	r4, r1
 80007a2:	d23a      	bcs.n	800081a <__aeabi_ddiv+0x502>
 80007a4:	4288      	cmp	r0, r1
 80007a6:	d863      	bhi.n	8000870 <__aeabi_ddiv+0x558>
 80007a8:	d060      	beq.n	800086c <__aeabi_ddiv+0x554>
 80007aa:	4690      	mov	r8, r2
 80007ac:	e752      	b.n	8000654 <__aeabi_ddiv+0x33c>
 80007ae:	42aa      	cmp	r2, r5
 80007b0:	d900      	bls.n	80007b4 <__aeabi_ddiv+0x49c>
 80007b2:	e6ea      	b.n	800058a <__aeabi_ddiv+0x272>
 80007b4:	4643      	mov	r3, r8
 80007b6:	07de      	lsls	r6, r3, #31
 80007b8:	0858      	lsrs	r0, r3, #1
 80007ba:	086b      	lsrs	r3, r5, #1
 80007bc:	431e      	orrs	r6, r3
 80007be:	07ed      	lsls	r5, r5, #31
 80007c0:	e6ea      	b.n	8000598 <__aeabi_ddiv+0x280>
 80007c2:	4648      	mov	r0, r9
 80007c4:	f000 f8f6 	bl	80009b4 <__clzsi2>
 80007c8:	0001      	movs	r1, r0
 80007ca:	0002      	movs	r2, r0
 80007cc:	3115      	adds	r1, #21
 80007ce:	3220      	adds	r2, #32
 80007d0:	291c      	cmp	r1, #28
 80007d2:	dc00      	bgt.n	80007d6 <__aeabi_ddiv+0x4be>
 80007d4:	e61a      	b.n	800040c <__aeabi_ddiv+0xf4>
 80007d6:	464b      	mov	r3, r9
 80007d8:	3808      	subs	r0, #8
 80007da:	4083      	lsls	r3, r0
 80007dc:	2500      	movs	r5, #0
 80007de:	4698      	mov	r8, r3
 80007e0:	e620      	b.n	8000424 <__aeabi_ddiv+0x10c>
 80007e2:	f000 f8e7 	bl	80009b4 <__clzsi2>
 80007e6:	0003      	movs	r3, r0
 80007e8:	001a      	movs	r2, r3
 80007ea:	3215      	adds	r2, #21
 80007ec:	3020      	adds	r0, #32
 80007ee:	2a1c      	cmp	r2, #28
 80007f0:	dc00      	bgt.n	80007f4 <__aeabi_ddiv+0x4dc>
 80007f2:	e630      	b.n	8000456 <__aeabi_ddiv+0x13e>
 80007f4:	4654      	mov	r4, sl
 80007f6:	3b08      	subs	r3, #8
 80007f8:	2200      	movs	r2, #0
 80007fa:	409c      	lsls	r4, r3
 80007fc:	e635      	b.n	800046a <__aeabi_ddiv+0x152>
 80007fe:	230f      	movs	r3, #15
 8000800:	402b      	ands	r3, r5
 8000802:	2b04      	cmp	r3, #4
 8000804:	d100      	bne.n	8000808 <__aeabi_ddiv+0x4f0>
 8000806:	e652      	b.n	80004ae <__aeabi_ddiv+0x196>
 8000808:	2305      	movs	r3, #5
 800080a:	425b      	negs	r3, r3
 800080c:	42ab      	cmp	r3, r5
 800080e:	419b      	sbcs	r3, r3
 8000810:	3504      	adds	r5, #4
 8000812:	425b      	negs	r3, r3
 8000814:	08ed      	lsrs	r5, r5, #3
 8000816:	4498      	add	r8, r3
 8000818:	e64a      	b.n	80004b0 <__aeabi_ddiv+0x198>
 800081a:	428c      	cmp	r4, r1
 800081c:	d1c5      	bne.n	80007aa <__aeabi_ddiv+0x492>
 800081e:	42af      	cmp	r7, r5
 8000820:	d9c0      	bls.n	80007a4 <__aeabi_ddiv+0x48c>
 8000822:	4690      	mov	r8, r2
 8000824:	e716      	b.n	8000654 <__aeabi_ddiv+0x33c>
 8000826:	428a      	cmp	r2, r1
 8000828:	d800      	bhi.n	800082c <__aeabi_ddiv+0x514>
 800082a:	e6ea      	b.n	8000602 <__aeabi_ddiv+0x2ea>
 800082c:	1e83      	subs	r3, r0, #2
 800082e:	1909      	adds	r1, r1, r4
 8000830:	e6e7      	b.n	8000602 <__aeabi_ddiv+0x2ea>
 8000832:	4a2a      	ldr	r2, [pc, #168]	; (80008dc <__aeabi_ddiv+0x5c4>)
 8000834:	0028      	movs	r0, r5
 8000836:	445a      	add	r2, fp
 8000838:	4643      	mov	r3, r8
 800083a:	4095      	lsls	r5, r2
 800083c:	4093      	lsls	r3, r2
 800083e:	40c8      	lsrs	r0, r1
 8000840:	1e6a      	subs	r2, r5, #1
 8000842:	4195      	sbcs	r5, r2
 8000844:	4644      	mov	r4, r8
 8000846:	4303      	orrs	r3, r0
 8000848:	432b      	orrs	r3, r5
 800084a:	40cc      	lsrs	r4, r1
 800084c:	075a      	lsls	r2, r3, #29
 800084e:	d092      	beq.n	8000776 <__aeabi_ddiv+0x45e>
 8000850:	220f      	movs	r2, #15
 8000852:	401a      	ands	r2, r3
 8000854:	2a04      	cmp	r2, #4
 8000856:	d188      	bne.n	800076a <__aeabi_ddiv+0x452>
 8000858:	e78d      	b.n	8000776 <__aeabi_ddiv+0x45e>
 800085a:	0035      	movs	r5, r6
 800085c:	4281      	cmp	r1, r0
 800085e:	d000      	beq.n	8000862 <__aeabi_ddiv+0x54a>
 8000860:	e74b      	b.n	80006fa <__aeabi_ddiv+0x3e2>
 8000862:	9a00      	ldr	r2, [sp, #0]
 8000864:	4293      	cmp	r3, r2
 8000866:	d000      	beq.n	800086a <__aeabi_ddiv+0x552>
 8000868:	e747      	b.n	80006fa <__aeabi_ddiv+0x3e2>
 800086a:	e618      	b.n	800049e <__aeabi_ddiv+0x186>
 800086c:	42ae      	cmp	r6, r5
 800086e:	d99c      	bls.n	80007aa <__aeabi_ddiv+0x492>
 8000870:	2302      	movs	r3, #2
 8000872:	425b      	negs	r3, r3
 8000874:	469c      	mov	ip, r3
 8000876:	9b00      	ldr	r3, [sp, #0]
 8000878:	44e0      	add	r8, ip
 800087a:	469c      	mov	ip, r3
 800087c:	4465      	add	r5, ip
 800087e:	429d      	cmp	r5, r3
 8000880:	419b      	sbcs	r3, r3
 8000882:	425b      	negs	r3, r3
 8000884:	191b      	adds	r3, r3, r4
 8000886:	18c9      	adds	r1, r1, r3
 8000888:	e6e4      	b.n	8000654 <__aeabi_ddiv+0x33c>
 800088a:	4a15      	ldr	r2, [pc, #84]	; (80008e0 <__aeabi_ddiv+0x5c8>)
 800088c:	445a      	add	r2, fp
 800088e:	2a00      	cmp	r2, #0
 8000890:	dc00      	bgt.n	8000894 <__aeabi_ddiv+0x57c>
 8000892:	e744      	b.n	800071e <__aeabi_ddiv+0x406>
 8000894:	2301      	movs	r3, #1
 8000896:	2500      	movs	r5, #0
 8000898:	4498      	add	r8, r3
 800089a:	e609      	b.n	80004b0 <__aeabi_ddiv+0x198>
 800089c:	0765      	lsls	r5, r4, #29
 800089e:	0264      	lsls	r4, r4, #9
 80008a0:	0b24      	lsrs	r4, r4, #12
 80008a2:	08db      	lsrs	r3, r3, #3
 80008a4:	431d      	orrs	r5, r3
 80008a6:	2300      	movs	r3, #0
 80008a8:	e590      	b.n	80003cc <__aeabi_ddiv+0xb4>
 80008aa:	9e00      	ldr	r6, [sp, #0]
 80008ac:	3d02      	subs	r5, #2
 80008ae:	0072      	lsls	r2, r6, #1
 80008b0:	42b2      	cmp	r2, r6
 80008b2:	41bf      	sbcs	r7, r7
 80008b4:	427f      	negs	r7, r7
 80008b6:	193c      	adds	r4, r7, r4
 80008b8:	1909      	adds	r1, r1, r4
 80008ba:	9200      	str	r2, [sp, #0]
 80008bc:	e7ce      	b.n	800085c <__aeabi_ddiv+0x544>
 80008be:	2480      	movs	r4, #128	; 0x80
 80008c0:	4643      	mov	r3, r8
 80008c2:	0324      	lsls	r4, r4, #12
 80008c4:	431c      	orrs	r4, r3
 80008c6:	0324      	lsls	r4, r4, #12
 80008c8:	4b06      	ldr	r3, [pc, #24]	; (80008e4 <__aeabi_ddiv+0x5cc>)
 80008ca:	0b24      	lsrs	r4, r4, #12
 80008cc:	e57e      	b.n	80003cc <__aeabi_ddiv+0xb4>
 80008ce:	9a00      	ldr	r2, [sp, #0]
 80008d0:	429a      	cmp	r2, r3
 80008d2:	d3ea      	bcc.n	80008aa <__aeabi_ddiv+0x592>
 80008d4:	0035      	movs	r5, r6
 80008d6:	e7c4      	b.n	8000862 <__aeabi_ddiv+0x54a>
 80008d8:	0000043e 	.word	0x0000043e
 80008dc:	0000041e 	.word	0x0000041e
 80008e0:	000003ff 	.word	0x000003ff
 80008e4:	000007ff 	.word	0x000007ff

080008e8 <__aeabi_d2iz>:
 80008e8:	000a      	movs	r2, r1
 80008ea:	b530      	push	{r4, r5, lr}
 80008ec:	4c13      	ldr	r4, [pc, #76]	; (800093c <__aeabi_d2iz+0x54>)
 80008ee:	0053      	lsls	r3, r2, #1
 80008f0:	0309      	lsls	r1, r1, #12
 80008f2:	0005      	movs	r5, r0
 80008f4:	0b09      	lsrs	r1, r1, #12
 80008f6:	2000      	movs	r0, #0
 80008f8:	0d5b      	lsrs	r3, r3, #21
 80008fa:	0fd2      	lsrs	r2, r2, #31
 80008fc:	42a3      	cmp	r3, r4
 80008fe:	dd04      	ble.n	800090a <__aeabi_d2iz+0x22>
 8000900:	480f      	ldr	r0, [pc, #60]	; (8000940 <__aeabi_d2iz+0x58>)
 8000902:	4283      	cmp	r3, r0
 8000904:	dd02      	ble.n	800090c <__aeabi_d2iz+0x24>
 8000906:	4b0f      	ldr	r3, [pc, #60]	; (8000944 <__aeabi_d2iz+0x5c>)
 8000908:	18d0      	adds	r0, r2, r3
 800090a:	bd30      	pop	{r4, r5, pc}
 800090c:	2080      	movs	r0, #128	; 0x80
 800090e:	0340      	lsls	r0, r0, #13
 8000910:	4301      	orrs	r1, r0
 8000912:	480d      	ldr	r0, [pc, #52]	; (8000948 <__aeabi_d2iz+0x60>)
 8000914:	1ac0      	subs	r0, r0, r3
 8000916:	281f      	cmp	r0, #31
 8000918:	dd08      	ble.n	800092c <__aeabi_d2iz+0x44>
 800091a:	480c      	ldr	r0, [pc, #48]	; (800094c <__aeabi_d2iz+0x64>)
 800091c:	1ac3      	subs	r3, r0, r3
 800091e:	40d9      	lsrs	r1, r3
 8000920:	000b      	movs	r3, r1
 8000922:	4258      	negs	r0, r3
 8000924:	2a00      	cmp	r2, #0
 8000926:	d1f0      	bne.n	800090a <__aeabi_d2iz+0x22>
 8000928:	0018      	movs	r0, r3
 800092a:	e7ee      	b.n	800090a <__aeabi_d2iz+0x22>
 800092c:	4c08      	ldr	r4, [pc, #32]	; (8000950 <__aeabi_d2iz+0x68>)
 800092e:	40c5      	lsrs	r5, r0
 8000930:	46a4      	mov	ip, r4
 8000932:	4463      	add	r3, ip
 8000934:	4099      	lsls	r1, r3
 8000936:	000b      	movs	r3, r1
 8000938:	432b      	orrs	r3, r5
 800093a:	e7f2      	b.n	8000922 <__aeabi_d2iz+0x3a>
 800093c:	000003fe 	.word	0x000003fe
 8000940:	0000041d 	.word	0x0000041d
 8000944:	7fffffff 	.word	0x7fffffff
 8000948:	00000433 	.word	0x00000433
 800094c:	00000413 	.word	0x00000413
 8000950:	fffffbed 	.word	0xfffffbed

08000954 <__aeabi_i2d>:
 8000954:	b570      	push	{r4, r5, r6, lr}
 8000956:	2800      	cmp	r0, #0
 8000958:	d016      	beq.n	8000988 <__aeabi_i2d+0x34>
 800095a:	17c3      	asrs	r3, r0, #31
 800095c:	18c5      	adds	r5, r0, r3
 800095e:	405d      	eors	r5, r3
 8000960:	0fc4      	lsrs	r4, r0, #31
 8000962:	0028      	movs	r0, r5
 8000964:	f000 f826 	bl	80009b4 <__clzsi2>
 8000968:	4a11      	ldr	r2, [pc, #68]	; (80009b0 <__aeabi_i2d+0x5c>)
 800096a:	1a12      	subs	r2, r2, r0
 800096c:	280a      	cmp	r0, #10
 800096e:	dc16      	bgt.n	800099e <__aeabi_i2d+0x4a>
 8000970:	0003      	movs	r3, r0
 8000972:	002e      	movs	r6, r5
 8000974:	3315      	adds	r3, #21
 8000976:	409e      	lsls	r6, r3
 8000978:	230b      	movs	r3, #11
 800097a:	1a18      	subs	r0, r3, r0
 800097c:	40c5      	lsrs	r5, r0
 800097e:	0553      	lsls	r3, r2, #21
 8000980:	032d      	lsls	r5, r5, #12
 8000982:	0b2d      	lsrs	r5, r5, #12
 8000984:	0d5b      	lsrs	r3, r3, #21
 8000986:	e003      	b.n	8000990 <__aeabi_i2d+0x3c>
 8000988:	2400      	movs	r4, #0
 800098a:	2300      	movs	r3, #0
 800098c:	2500      	movs	r5, #0
 800098e:	2600      	movs	r6, #0
 8000990:	051b      	lsls	r3, r3, #20
 8000992:	432b      	orrs	r3, r5
 8000994:	07e4      	lsls	r4, r4, #31
 8000996:	4323      	orrs	r3, r4
 8000998:	0030      	movs	r0, r6
 800099a:	0019      	movs	r1, r3
 800099c:	bd70      	pop	{r4, r5, r6, pc}
 800099e:	380b      	subs	r0, #11
 80009a0:	4085      	lsls	r5, r0
 80009a2:	0553      	lsls	r3, r2, #21
 80009a4:	032d      	lsls	r5, r5, #12
 80009a6:	2600      	movs	r6, #0
 80009a8:	0b2d      	lsrs	r5, r5, #12
 80009aa:	0d5b      	lsrs	r3, r3, #21
 80009ac:	e7f0      	b.n	8000990 <__aeabi_i2d+0x3c>
 80009ae:	46c0      	nop			; (mov r8, r8)
 80009b0:	0000041e 	.word	0x0000041e

080009b4 <__clzsi2>:
 80009b4:	211c      	movs	r1, #28
 80009b6:	2301      	movs	r3, #1
 80009b8:	041b      	lsls	r3, r3, #16
 80009ba:	4298      	cmp	r0, r3
 80009bc:	d301      	bcc.n	80009c2 <__clzsi2+0xe>
 80009be:	0c00      	lsrs	r0, r0, #16
 80009c0:	3910      	subs	r1, #16
 80009c2:	0a1b      	lsrs	r3, r3, #8
 80009c4:	4298      	cmp	r0, r3
 80009c6:	d301      	bcc.n	80009cc <__clzsi2+0x18>
 80009c8:	0a00      	lsrs	r0, r0, #8
 80009ca:	3908      	subs	r1, #8
 80009cc:	091b      	lsrs	r3, r3, #4
 80009ce:	4298      	cmp	r0, r3
 80009d0:	d301      	bcc.n	80009d6 <__clzsi2+0x22>
 80009d2:	0900      	lsrs	r0, r0, #4
 80009d4:	3904      	subs	r1, #4
 80009d6:	a202      	add	r2, pc, #8	; (adr r2, 80009e0 <__clzsi2+0x2c>)
 80009d8:	5c10      	ldrb	r0, [r2, r0]
 80009da:	1840      	adds	r0, r0, r1
 80009dc:	4770      	bx	lr
 80009de:	46c0      	nop			; (mov r8, r8)
 80009e0:	02020304 	.word	0x02020304
 80009e4:	01010101 	.word	0x01010101
	...

080009f0 <__divdi3>:
 80009f0:	b5f0      	push	{r4, r5, r6, r7, lr}
 80009f2:	4657      	mov	r7, sl
 80009f4:	464e      	mov	r6, r9
 80009f6:	4645      	mov	r5, r8
 80009f8:	46de      	mov	lr, fp
 80009fa:	b5e0      	push	{r5, r6, r7, lr}
 80009fc:	000f      	movs	r7, r1
 80009fe:	0019      	movs	r1, r3
 8000a00:	2300      	movs	r3, #0
 8000a02:	0006      	movs	r6, r0
 8000a04:	4698      	mov	r8, r3
 8000a06:	0010      	movs	r0, r2
 8000a08:	b083      	sub	sp, #12
 8000a0a:	2f00      	cmp	r7, #0
 8000a0c:	da07      	bge.n	8000a1e <__divdi3+0x2e>
 8000a0e:	0033      	movs	r3, r6
 8000a10:	003c      	movs	r4, r7
 8000a12:	2700      	movs	r7, #0
 8000a14:	425e      	negs	r6, r3
 8000a16:	41a7      	sbcs	r7, r4
 8000a18:	2301      	movs	r3, #1
 8000a1a:	425b      	negs	r3, r3
 8000a1c:	4698      	mov	r8, r3
 8000a1e:	2900      	cmp	r1, #0
 8000a20:	da07      	bge.n	8000a32 <__divdi3+0x42>
 8000a22:	4643      	mov	r3, r8
 8000a24:	43db      	mvns	r3, r3
 8000a26:	000c      	movs	r4, r1
 8000a28:	4698      	mov	r8, r3
 8000a2a:	0003      	movs	r3, r0
 8000a2c:	2100      	movs	r1, #0
 8000a2e:	4258      	negs	r0, r3
 8000a30:	41a1      	sbcs	r1, r4
 8000a32:	0034      	movs	r4, r6
 8000a34:	003d      	movs	r5, r7
 8000a36:	4682      	mov	sl, r0
 8000a38:	4689      	mov	r9, r1
 8000a3a:	42b9      	cmp	r1, r7
 8000a3c:	d86a      	bhi.n	8000b14 <__divdi3+0x124>
 8000a3e:	d067      	beq.n	8000b10 <__divdi3+0x120>
 8000a40:	4649      	mov	r1, r9
 8000a42:	4650      	mov	r0, sl
 8000a44:	f000 f8ba 	bl	8000bbc <__clzdi2>
 8000a48:	4683      	mov	fp, r0
 8000a4a:	0039      	movs	r1, r7
 8000a4c:	0030      	movs	r0, r6
 8000a4e:	f000 f8b5 	bl	8000bbc <__clzdi2>
 8000a52:	465b      	mov	r3, fp
 8000a54:	1a1b      	subs	r3, r3, r0
 8000a56:	469c      	mov	ip, r3
 8000a58:	3b20      	subs	r3, #32
 8000a5a:	469b      	mov	fp, r3
 8000a5c:	d46b      	bmi.n	8000b36 <__divdi3+0x146>
 8000a5e:	4658      	mov	r0, fp
 8000a60:	4651      	mov	r1, sl
 8000a62:	4081      	lsls	r1, r0
 8000a64:	4660      	mov	r0, ip
 8000a66:	000b      	movs	r3, r1
 8000a68:	4651      	mov	r1, sl
 8000a6a:	4081      	lsls	r1, r0
 8000a6c:	000a      	movs	r2, r1
 8000a6e:	42bb      	cmp	r3, r7
 8000a70:	d900      	bls.n	8000a74 <__divdi3+0x84>
 8000a72:	e072      	b.n	8000b5a <__divdi3+0x16a>
 8000a74:	42bb      	cmp	r3, r7
 8000a76:	d100      	bne.n	8000a7a <__divdi3+0x8a>
 8000a78:	e079      	b.n	8000b6e <__divdi3+0x17e>
 8000a7a:	0034      	movs	r4, r6
 8000a7c:	003d      	movs	r5, r7
 8000a7e:	4659      	mov	r1, fp
 8000a80:	1aa4      	subs	r4, r4, r2
 8000a82:	419d      	sbcs	r5, r3
 8000a84:	2900      	cmp	r1, #0
 8000a86:	da00      	bge.n	8000a8a <__divdi3+0x9a>
 8000a88:	e074      	b.n	8000b74 <__divdi3+0x184>
 8000a8a:	2100      	movs	r1, #0
 8000a8c:	2000      	movs	r0, #0
 8000a8e:	2601      	movs	r6, #1
 8000a90:	9000      	str	r0, [sp, #0]
 8000a92:	9101      	str	r1, [sp, #4]
 8000a94:	4659      	mov	r1, fp
 8000a96:	408e      	lsls	r6, r1
 8000a98:	9601      	str	r6, [sp, #4]
 8000a9a:	4661      	mov	r1, ip
 8000a9c:	2601      	movs	r6, #1
 8000a9e:	408e      	lsls	r6, r1
 8000aa0:	4661      	mov	r1, ip
 8000aa2:	9600      	str	r6, [sp, #0]
 8000aa4:	2900      	cmp	r1, #0
 8000aa6:	d05f      	beq.n	8000b68 <__divdi3+0x178>
 8000aa8:	07d9      	lsls	r1, r3, #31
 8000aaa:	0856      	lsrs	r6, r2, #1
 8000aac:	430e      	orrs	r6, r1
 8000aae:	085f      	lsrs	r7, r3, #1
 8000ab0:	4661      	mov	r1, ip
 8000ab2:	2201      	movs	r2, #1
 8000ab4:	2300      	movs	r3, #0
 8000ab6:	e00c      	b.n	8000ad2 <__divdi3+0xe2>
 8000ab8:	42af      	cmp	r7, r5
 8000aba:	d101      	bne.n	8000ac0 <__divdi3+0xd0>
 8000abc:	42a6      	cmp	r6, r4
 8000abe:	d80a      	bhi.n	8000ad6 <__divdi3+0xe6>
 8000ac0:	1ba4      	subs	r4, r4, r6
 8000ac2:	41bd      	sbcs	r5, r7
 8000ac4:	1924      	adds	r4, r4, r4
 8000ac6:	416d      	adcs	r5, r5
 8000ac8:	3901      	subs	r1, #1
 8000aca:	18a4      	adds	r4, r4, r2
 8000acc:	415d      	adcs	r5, r3
 8000ace:	2900      	cmp	r1, #0
 8000ad0:	d006      	beq.n	8000ae0 <__divdi3+0xf0>
 8000ad2:	42af      	cmp	r7, r5
 8000ad4:	d9f0      	bls.n	8000ab8 <__divdi3+0xc8>
 8000ad6:	3901      	subs	r1, #1
 8000ad8:	1924      	adds	r4, r4, r4
 8000ada:	416d      	adcs	r5, r5
 8000adc:	2900      	cmp	r1, #0
 8000ade:	d1f8      	bne.n	8000ad2 <__divdi3+0xe2>
 8000ae0:	9800      	ldr	r0, [sp, #0]
 8000ae2:	9901      	ldr	r1, [sp, #4]
 8000ae4:	465b      	mov	r3, fp
 8000ae6:	1900      	adds	r0, r0, r4
 8000ae8:	4169      	adcs	r1, r5
 8000aea:	2b00      	cmp	r3, #0
 8000aec:	db4d      	blt.n	8000b8a <__divdi3+0x19a>
 8000aee:	002e      	movs	r6, r5
 8000af0:	002c      	movs	r4, r5
 8000af2:	40de      	lsrs	r6, r3
 8000af4:	4663      	mov	r3, ip
 8000af6:	40dc      	lsrs	r4, r3
 8000af8:	465b      	mov	r3, fp
 8000afa:	2b00      	cmp	r3, #0
 8000afc:	db55      	blt.n	8000baa <__divdi3+0x1ba>
 8000afe:	0034      	movs	r4, r6
 8000b00:	409c      	lsls	r4, r3
 8000b02:	0023      	movs	r3, r4
 8000b04:	4664      	mov	r4, ip
 8000b06:	40a6      	lsls	r6, r4
 8000b08:	0032      	movs	r2, r6
 8000b0a:	1a80      	subs	r0, r0, r2
 8000b0c:	4199      	sbcs	r1, r3
 8000b0e:	e003      	b.n	8000b18 <__divdi3+0x128>
 8000b10:	42b0      	cmp	r0, r6
 8000b12:	d995      	bls.n	8000a40 <__divdi3+0x50>
 8000b14:	2000      	movs	r0, #0
 8000b16:	2100      	movs	r1, #0
 8000b18:	4643      	mov	r3, r8
 8000b1a:	2b00      	cmp	r3, #0
 8000b1c:	d004      	beq.n	8000b28 <__divdi3+0x138>
 8000b1e:	0003      	movs	r3, r0
 8000b20:	000c      	movs	r4, r1
 8000b22:	2100      	movs	r1, #0
 8000b24:	4258      	negs	r0, r3
 8000b26:	41a1      	sbcs	r1, r4
 8000b28:	b003      	add	sp, #12
 8000b2a:	bcf0      	pop	{r4, r5, r6, r7}
 8000b2c:	46bb      	mov	fp, r7
 8000b2e:	46b2      	mov	sl, r6
 8000b30:	46a9      	mov	r9, r5
 8000b32:	46a0      	mov	r8, r4
 8000b34:	bdf0      	pop	{r4, r5, r6, r7, pc}
 8000b36:	4662      	mov	r2, ip
 8000b38:	4648      	mov	r0, r9
 8000b3a:	2320      	movs	r3, #32
 8000b3c:	4651      	mov	r1, sl
 8000b3e:	4090      	lsls	r0, r2
 8000b40:	1a9b      	subs	r3, r3, r2
 8000b42:	40d9      	lsrs	r1, r3
 8000b44:	0003      	movs	r3, r0
 8000b46:	9100      	str	r1, [sp, #0]
 8000b48:	9900      	ldr	r1, [sp, #0]
 8000b4a:	4660      	mov	r0, ip
 8000b4c:	430b      	orrs	r3, r1
 8000b4e:	4651      	mov	r1, sl
 8000b50:	4081      	lsls	r1, r0
 8000b52:	000a      	movs	r2, r1
 8000b54:	42bb      	cmp	r3, r7
 8000b56:	d800      	bhi.n	8000b5a <__divdi3+0x16a>
 8000b58:	e78c      	b.n	8000a74 <__divdi3+0x84>
 8000b5a:	2100      	movs	r1, #0
 8000b5c:	2000      	movs	r0, #0
 8000b5e:	9000      	str	r0, [sp, #0]
 8000b60:	9101      	str	r1, [sp, #4]
 8000b62:	4661      	mov	r1, ip
 8000b64:	2900      	cmp	r1, #0
 8000b66:	d19f      	bne.n	8000aa8 <__divdi3+0xb8>
 8000b68:	9800      	ldr	r0, [sp, #0]
 8000b6a:	9901      	ldr	r1, [sp, #4]
 8000b6c:	e7d4      	b.n	8000b18 <__divdi3+0x128>
 8000b6e:	42b1      	cmp	r1, r6
 8000b70:	d8f3      	bhi.n	8000b5a <__divdi3+0x16a>
 8000b72:	e782      	b.n	8000a7a <__divdi3+0x8a>
 8000b74:	4661      	mov	r1, ip
 8000b76:	2620      	movs	r6, #32
 8000b78:	2701      	movs	r7, #1
 8000b7a:	1a76      	subs	r6, r6, r1
 8000b7c:	2000      	movs	r0, #0
 8000b7e:	2100      	movs	r1, #0
 8000b80:	40f7      	lsrs	r7, r6
 8000b82:	9000      	str	r0, [sp, #0]
 8000b84:	9101      	str	r1, [sp, #4]
 8000b86:	9701      	str	r7, [sp, #4]
 8000b88:	e787      	b.n	8000a9a <__divdi3+0xaa>
 8000b8a:	4662      	mov	r2, ip
 8000b8c:	2320      	movs	r3, #32
 8000b8e:	1a9b      	subs	r3, r3, r2
 8000b90:	002a      	movs	r2, r5
 8000b92:	409a      	lsls	r2, r3
 8000b94:	0026      	movs	r6, r4
 8000b96:	0013      	movs	r3, r2
 8000b98:	4662      	mov	r2, ip
 8000b9a:	40d6      	lsrs	r6, r2
 8000b9c:	002c      	movs	r4, r5
 8000b9e:	431e      	orrs	r6, r3
 8000ba0:	4663      	mov	r3, ip
 8000ba2:	40dc      	lsrs	r4, r3
 8000ba4:	465b      	mov	r3, fp
 8000ba6:	2b00      	cmp	r3, #0
 8000ba8:	daa9      	bge.n	8000afe <__divdi3+0x10e>
 8000baa:	4662      	mov	r2, ip
 8000bac:	2320      	movs	r3, #32
 8000bae:	0035      	movs	r5, r6
 8000bb0:	4094      	lsls	r4, r2
 8000bb2:	1a9b      	subs	r3, r3, r2
 8000bb4:	40dd      	lsrs	r5, r3
 8000bb6:	0023      	movs	r3, r4
 8000bb8:	432b      	orrs	r3, r5
 8000bba:	e7a3      	b.n	8000b04 <__divdi3+0x114>

08000bbc <__clzdi2>:
 8000bbc:	b510      	push	{r4, lr}
 8000bbe:	2900      	cmp	r1, #0
 8000bc0:	d103      	bne.n	8000bca <__clzdi2+0xe>
 8000bc2:	f7ff fef7 	bl	80009b4 <__clzsi2>
 8000bc6:	3020      	adds	r0, #32
 8000bc8:	e002      	b.n	8000bd0 <__clzdi2+0x14>
 8000bca:	1c08      	adds	r0, r1, #0
 8000bcc:	f7ff fef2 	bl	80009b4 <__clzsi2>
 8000bd0:	bd10      	pop	{r4, pc}
 8000bd2:	46c0      	nop			; (mov r8, r8)

08000bd4 <bme280_init>:
 8000bd4:	b5f0      	push	{r4, r5, r6, r7, lr}
 8000bd6:	b085      	sub	sp, #20
 8000bd8:	af00      	add	r7, sp, #0
 8000bda:	6078      	str	r0, [r7, #4]
 8000bdc:	230e      	movs	r3, #14
 8000bde:	18fb      	adds	r3, r7, r3
 8000be0:	2205      	movs	r2, #5
 8000be2:	701a      	strb	r2, [r3, #0]
 8000be4:	230d      	movs	r3, #13
 8000be6:	18fb      	adds	r3, r7, r3
 8000be8:	2200      	movs	r2, #0
 8000bea:	701a      	strb	r2, [r3, #0]
 8000bec:	250f      	movs	r5, #15
 8000bee:	197c      	adds	r4, r7, r5
 8000bf0:	687b      	ldr	r3, [r7, #4]
 8000bf2:	0018      	movs	r0, r3
 8000bf4:	f001 fbc7 	bl	8002386 <null_ptr_check>
 8000bf8:	0003      	movs	r3, r0
 8000bfa:	7023      	strb	r3, [r4, #0]
 8000bfc:	197b      	adds	r3, r7, r5
 8000bfe:	781b      	ldrb	r3, [r3, #0]
 8000c00:	b25b      	sxtb	r3, r3
 8000c02:	2b00      	cmp	r3, #0
 8000c04:	d148      	bne.n	8000c98 <bme280_init+0xc4>
 8000c06:	e037      	b.n	8000c78 <bme280_init+0xa4>
 8000c08:	250f      	movs	r5, #15
 8000c0a:	197c      	adds	r4, r7, r5
 8000c0c:	687b      	ldr	r3, [r7, #4]
 8000c0e:	260d      	movs	r6, #13
 8000c10:	19b9      	adds	r1, r7, r6
 8000c12:	2201      	movs	r2, #1
 8000c14:	20d0      	movs	r0, #208	; 0xd0
 8000c16:	f000 f847 	bl	8000ca8 <bme280_get_regs>
 8000c1a:	0003      	movs	r3, r0
 8000c1c:	7023      	strb	r3, [r4, #0]
 8000c1e:	0029      	movs	r1, r5
 8000c20:	187b      	adds	r3, r7, r1
 8000c22:	781b      	ldrb	r3, [r3, #0]
 8000c24:	b25b      	sxtb	r3, r3
 8000c26:	2b00      	cmp	r3, #0
 8000c28:	d11c      	bne.n	8000c64 <bme280_init+0x90>
 8000c2a:	19bb      	adds	r3, r7, r6
 8000c2c:	781b      	ldrb	r3, [r3, #0]
 8000c2e:	2b60      	cmp	r3, #96	; 0x60
 8000c30:	d118      	bne.n	8000c64 <bme280_init+0x90>
 8000c32:	19bb      	adds	r3, r7, r6
 8000c34:	781a      	ldrb	r2, [r3, #0]
 8000c36:	687b      	ldr	r3, [r7, #4]
 8000c38:	701a      	strb	r2, [r3, #0]
 8000c3a:	000d      	movs	r5, r1
 8000c3c:	187c      	adds	r4, r7, r1
 8000c3e:	687b      	ldr	r3, [r7, #4]
 8000c40:	0018      	movs	r0, r3
 8000c42:	f000 f9ea 	bl	800101a <bme280_soft_reset>
 8000c46:	0003      	movs	r3, r0
 8000c48:	7023      	strb	r3, [r4, #0]
 8000c4a:	197b      	adds	r3, r7, r5
 8000c4c:	781b      	ldrb	r3, [r3, #0]
 8000c4e:	b25b      	sxtb	r3, r3
 8000c50:	2b00      	cmp	r3, #0
 8000c52:	d117      	bne.n	8000c84 <bme280_init+0xb0>
 8000c54:	197c      	adds	r4, r7, r5
 8000c56:	687b      	ldr	r3, [r7, #4]
 8000c58:	0018      	movs	r0, r3
 8000c5a:	f001 f9e7 	bl	800202c <get_calib_data>
 8000c5e:	0003      	movs	r3, r0
 8000c60:	7023      	strb	r3, [r4, #0]
 8000c62:	e00f      	b.n	8000c84 <bme280_init+0xb0>
 8000c64:	687b      	ldr	r3, [r7, #4]
 8000c66:	68db      	ldr	r3, [r3, #12]
 8000c68:	2001      	movs	r0, #1
 8000c6a:	4798      	blx	r3
 8000c6c:	220e      	movs	r2, #14
 8000c6e:	18bb      	adds	r3, r7, r2
 8000c70:	18ba      	adds	r2, r7, r2
 8000c72:	7812      	ldrb	r2, [r2, #0]
 8000c74:	3a01      	subs	r2, #1
 8000c76:	701a      	strb	r2, [r3, #0]
 8000c78:	230e      	movs	r3, #14
 8000c7a:	18fb      	adds	r3, r7, r3
 8000c7c:	781b      	ldrb	r3, [r3, #0]
 8000c7e:	2b00      	cmp	r3, #0
 8000c80:	d1c2      	bne.n	8000c08 <bme280_init+0x34>
 8000c82:	e000      	b.n	8000c86 <bme280_init+0xb2>
 8000c84:	46c0      	nop			; (mov r8, r8)
 8000c86:	230e      	movs	r3, #14
 8000c88:	18fb      	adds	r3, r7, r3
 8000c8a:	781b      	ldrb	r3, [r3, #0]
 8000c8c:	2b00      	cmp	r3, #0
 8000c8e:	d103      	bne.n	8000c98 <bme280_init+0xc4>
 8000c90:	230f      	movs	r3, #15
 8000c92:	18fb      	adds	r3, r7, r3
 8000c94:	22fe      	movs	r2, #254	; 0xfe
 8000c96:	701a      	strb	r2, [r3, #0]
 8000c98:	230f      	movs	r3, #15
 8000c9a:	18fb      	adds	r3, r7, r3
 8000c9c:	781b      	ldrb	r3, [r3, #0]
 8000c9e:	b25b      	sxtb	r3, r3
 8000ca0:	0018      	movs	r0, r3
 8000ca2:	46bd      	mov	sp, r7
 8000ca4:	b005      	add	sp, #20
 8000ca6:	bdf0      	pop	{r4, r5, r6, r7, pc}

08000ca8 <bme280_get_regs>:
 8000ca8:	b5f0      	push	{r4, r5, r6, r7, lr}
 8000caa:	b087      	sub	sp, #28
 8000cac:	af00      	add	r7, sp, #0
 8000cae:	60b9      	str	r1, [r7, #8]
 8000cb0:	0011      	movs	r1, r2
 8000cb2:	607b      	str	r3, [r7, #4]
 8000cb4:	250f      	movs	r5, #15
 8000cb6:	197b      	adds	r3, r7, r5
 8000cb8:	1c02      	adds	r2, r0, #0
 8000cba:	701a      	strb	r2, [r3, #0]
 8000cbc:	230c      	movs	r3, #12
 8000cbe:	18fb      	adds	r3, r7, r3
 8000cc0:	1c0a      	adds	r2, r1, #0
 8000cc2:	801a      	strh	r2, [r3, #0]
 8000cc4:	2617      	movs	r6, #23
 8000cc6:	19bc      	adds	r4, r7, r6
 8000cc8:	687b      	ldr	r3, [r7, #4]
 8000cca:	0018      	movs	r0, r3
 8000ccc:	f001 fb5b 	bl	8002386 <null_ptr_check>
 8000cd0:	0003      	movs	r3, r0
 8000cd2:	7023      	strb	r3, [r4, #0]
 8000cd4:	19bb      	adds	r3, r7, r6
 8000cd6:	781b      	ldrb	r3, [r3, #0]
 8000cd8:	b25b      	sxtb	r3, r3
 8000cda:	2b00      	cmp	r3, #0
 8000cdc:	d124      	bne.n	8000d28 <bme280_get_regs+0x80>
 8000cde:	687b      	ldr	r3, [r7, #4]
 8000ce0:	789b      	ldrb	r3, [r3, #2]
 8000ce2:	2b01      	cmp	r3, #1
 8000ce4:	d006      	beq.n	8000cf4 <bme280_get_regs+0x4c>
 8000ce6:	197b      	adds	r3, r7, r5
 8000ce8:	197a      	adds	r2, r7, r5
 8000cea:	7812      	ldrb	r2, [r2, #0]
 8000cec:	2180      	movs	r1, #128	; 0x80
 8000cee:	4249      	negs	r1, r1
 8000cf0:	430a      	orrs	r2, r1
 8000cf2:	701a      	strb	r2, [r3, #0]
 8000cf4:	687b      	ldr	r3, [r7, #4]
 8000cf6:	685d      	ldr	r5, [r3, #4]
 8000cf8:	687b      	ldr	r3, [r7, #4]
 8000cfa:	7858      	ldrb	r0, [r3, #1]
 8000cfc:	2217      	movs	r2, #23
 8000cfe:	18bc      	adds	r4, r7, r2
 8000d00:	230c      	movs	r3, #12
 8000d02:	18fb      	adds	r3, r7, r3
 8000d04:	881e      	ldrh	r6, [r3, #0]
 8000d06:	68ba      	ldr	r2, [r7, #8]
 8000d08:	230f      	movs	r3, #15
 8000d0a:	18fb      	adds	r3, r7, r3
 8000d0c:	7819      	ldrb	r1, [r3, #0]
 8000d0e:	0033      	movs	r3, r6
 8000d10:	47a8      	blx	r5
 8000d12:	0003      	movs	r3, r0
 8000d14:	7023      	strb	r3, [r4, #0]
 8000d16:	2217      	movs	r2, #23
 8000d18:	18bb      	adds	r3, r7, r2
 8000d1a:	781b      	ldrb	r3, [r3, #0]
 8000d1c:	b25b      	sxtb	r3, r3
 8000d1e:	2b00      	cmp	r3, #0
 8000d20:	d002      	beq.n	8000d28 <bme280_get_regs+0x80>
 8000d22:	18bb      	adds	r3, r7, r2
 8000d24:	22fc      	movs	r2, #252	; 0xfc
 8000d26:	701a      	strb	r2, [r3, #0]
 8000d28:	2317      	movs	r3, #23
 8000d2a:	18fb      	adds	r3, r7, r3
 8000d2c:	781b      	ldrb	r3, [r3, #0]
 8000d2e:	b25b      	sxtb	r3, r3
 8000d30:	0018      	movs	r0, r3
 8000d32:	46bd      	mov	sp, r7
 8000d34:	b007      	add	sp, #28
 8000d36:	bdf0      	pop	{r4, r5, r6, r7, pc}

08000d38 <bme280_set_regs>:
 8000d38:	b5f0      	push	{r4, r5, r6, r7, lr}
 8000d3a:	b08d      	sub	sp, #52	; 0x34
 8000d3c:	af00      	add	r7, sp, #0
 8000d3e:	60f8      	str	r0, [r7, #12]
 8000d40:	60b9      	str	r1, [r7, #8]
 8000d42:	603b      	str	r3, [r7, #0]
 8000d44:	1dfb      	adds	r3, r7, #7
 8000d46:	701a      	strb	r2, [r3, #0]
 8000d48:	1dfb      	adds	r3, r7, #7
 8000d4a:	781b      	ldrb	r3, [r3, #0]
 8000d4c:	2b0a      	cmp	r3, #10
 8000d4e:	d902      	bls.n	8000d56 <bme280_set_regs+0x1e>
 8000d50:	1dfb      	adds	r3, r7, #7
 8000d52:	220a      	movs	r2, #10
 8000d54:	701a      	strb	r2, [r3, #0]
 8000d56:	252f      	movs	r5, #47	; 0x2f
 8000d58:	197c      	adds	r4, r7, r5
 8000d5a:	683b      	ldr	r3, [r7, #0]
 8000d5c:	0018      	movs	r0, r3
 8000d5e:	f001 fb12 	bl	8002386 <null_ptr_check>
 8000d62:	0003      	movs	r3, r0
 8000d64:	7023      	strb	r3, [r4, #0]
 8000d66:	197b      	adds	r3, r7, r5
 8000d68:	781b      	ldrb	r3, [r3, #0]
 8000d6a:	b25b      	sxtb	r3, r3
 8000d6c:	2b00      	cmp	r3, #0
 8000d6e:	d16a      	bne.n	8000e46 <bme280_set_regs+0x10e>
 8000d70:	68fb      	ldr	r3, [r7, #12]
 8000d72:	2b00      	cmp	r3, #0
 8000d74:	d067      	beq.n	8000e46 <bme280_set_regs+0x10e>
 8000d76:	68bb      	ldr	r3, [r7, #8]
 8000d78:	2b00      	cmp	r3, #0
 8000d7a:	d064      	beq.n	8000e46 <bme280_set_regs+0x10e>
 8000d7c:	1dfb      	adds	r3, r7, #7
 8000d7e:	781b      	ldrb	r3, [r3, #0]
 8000d80:	2b00      	cmp	r3, #0
 8000d82:	d05b      	beq.n	8000e3c <bme280_set_regs+0x104>
 8000d84:	68bb      	ldr	r3, [r7, #8]
 8000d86:	781a      	ldrb	r2, [r3, #0]
 8000d88:	2314      	movs	r3, #20
 8000d8a:	18fb      	adds	r3, r7, r3
 8000d8c:	701a      	strb	r2, [r3, #0]
 8000d8e:	683b      	ldr	r3, [r7, #0]
 8000d90:	789b      	ldrb	r3, [r3, #2]
 8000d92:	2b01      	cmp	r3, #1
 8000d94:	d01e      	beq.n	8000dd4 <bme280_set_regs+0x9c>
 8000d96:	232b      	movs	r3, #43	; 0x2b
 8000d98:	18fb      	adds	r3, r7, r3
 8000d9a:	2200      	movs	r2, #0
 8000d9c:	701a      	strb	r2, [r3, #0]
 8000d9e:	e012      	b.n	8000dc6 <bme280_set_regs+0x8e>
 8000da0:	202b      	movs	r0, #43	; 0x2b
 8000da2:	183b      	adds	r3, r7, r0
 8000da4:	781b      	ldrb	r3, [r3, #0]
 8000da6:	68fa      	ldr	r2, [r7, #12]
 8000da8:	18d3      	adds	r3, r2, r3
 8000daa:	781a      	ldrb	r2, [r3, #0]
 8000dac:	183b      	adds	r3, r7, r0
 8000dae:	781b      	ldrb	r3, [r3, #0]
 8000db0:	68f9      	ldr	r1, [r7, #12]
 8000db2:	18cb      	adds	r3, r1, r3
 8000db4:	217f      	movs	r1, #127	; 0x7f
 8000db6:	400a      	ands	r2, r1
 8000db8:	b2d2      	uxtb	r2, r2
 8000dba:	701a      	strb	r2, [r3, #0]
 8000dbc:	183b      	adds	r3, r7, r0
 8000dbe:	781a      	ldrb	r2, [r3, #0]
 8000dc0:	183b      	adds	r3, r7, r0
 8000dc2:	3201      	adds	r2, #1
 8000dc4:	701a      	strb	r2, [r3, #0]
 8000dc6:	232b      	movs	r3, #43	; 0x2b
 8000dc8:	18fa      	adds	r2, r7, r3
 8000dca:	1dfb      	adds	r3, r7, #7
 8000dcc:	7812      	ldrb	r2, [r2, #0]
 8000dce:	781b      	ldrb	r3, [r3, #0]
 8000dd0:	429a      	cmp	r2, r3
 8000dd2:	d3e5      	bcc.n	8000da0 <bme280_set_regs+0x68>
 8000dd4:	1dfb      	adds	r3, r7, #7
 8000dd6:	781b      	ldrb	r3, [r3, #0]
 8000dd8:	2b01      	cmp	r3, #1
 8000dda:	d911      	bls.n	8000e00 <bme280_set_regs+0xc8>
 8000ddc:	1dfb      	adds	r3, r7, #7
 8000dde:	781b      	ldrb	r3, [r3, #0]
 8000de0:	68ba      	ldr	r2, [r7, #8]
 8000de2:	2114      	movs	r1, #20
 8000de4:	1879      	adds	r1, r7, r1
 8000de6:	68f8      	ldr	r0, [r7, #12]
 8000de8:	f001 f96c 	bl	80020c4 <interleave_reg_addr>
 8000dec:	1dfb      	adds	r3, r7, #7
 8000dee:	781b      	ldrb	r3, [r3, #0]
 8000df0:	b29b      	uxth	r3, r3
 8000df2:	18db      	adds	r3, r3, r3
 8000df4:	b29a      	uxth	r2, r3
 8000df6:	232c      	movs	r3, #44	; 0x2c
 8000df8:	18fb      	adds	r3, r7, r3
 8000dfa:	3a01      	subs	r2, #1
 8000dfc:	801a      	strh	r2, [r3, #0]
 8000dfe:	e004      	b.n	8000e0a <bme280_set_regs+0xd2>
 8000e00:	232c      	movs	r3, #44	; 0x2c
 8000e02:	18fb      	adds	r3, r7, r3
 8000e04:	1dfa      	adds	r2, r7, #7
 8000e06:	7812      	ldrb	r2, [r2, #0]
 8000e08:	801a      	strh	r2, [r3, #0]
 8000e0a:	683b      	ldr	r3, [r7, #0]
 8000e0c:	689d      	ldr	r5, [r3, #8]
 8000e0e:	683b      	ldr	r3, [r7, #0]
 8000e10:	7858      	ldrb	r0, [r3, #1]
 8000e12:	68fb      	ldr	r3, [r7, #12]
 8000e14:	7819      	ldrb	r1, [r3, #0]
 8000e16:	262f      	movs	r6, #47	; 0x2f
 8000e18:	19bc      	adds	r4, r7, r6
 8000e1a:	232c      	movs	r3, #44	; 0x2c
 8000e1c:	18fb      	adds	r3, r7, r3
 8000e1e:	881b      	ldrh	r3, [r3, #0]
 8000e20:	2214      	movs	r2, #20
 8000e22:	18ba      	adds	r2, r7, r2
 8000e24:	47a8      	blx	r5
 8000e26:	0003      	movs	r3, r0
 8000e28:	7023      	strb	r3, [r4, #0]
 8000e2a:	19bb      	adds	r3, r7, r6
 8000e2c:	781b      	ldrb	r3, [r3, #0]
 8000e2e:	b25b      	sxtb	r3, r3
 8000e30:	2b00      	cmp	r3, #0
 8000e32:	d00d      	beq.n	8000e50 <bme280_set_regs+0x118>
 8000e34:	19bb      	adds	r3, r7, r6
 8000e36:	22fc      	movs	r2, #252	; 0xfc
 8000e38:	701a      	strb	r2, [r3, #0]
 8000e3a:	e009      	b.n	8000e50 <bme280_set_regs+0x118>
 8000e3c:	232f      	movs	r3, #47	; 0x2f
 8000e3e:	18fb      	adds	r3, r7, r3
 8000e40:	22fd      	movs	r2, #253	; 0xfd
 8000e42:	701a      	strb	r2, [r3, #0]
 8000e44:	e004      	b.n	8000e50 <bme280_set_regs+0x118>
 8000e46:	232f      	movs	r3, #47	; 0x2f
 8000e48:	18fb      	adds	r3, r7, r3
 8000e4a:	22ff      	movs	r2, #255	; 0xff
 8000e4c:	701a      	strb	r2, [r3, #0]
 8000e4e:	e000      	b.n	8000e52 <bme280_set_regs+0x11a>
 8000e50:	46c0      	nop			; (mov r8, r8)
 8000e52:	232f      	movs	r3, #47	; 0x2f
 8000e54:	18fb      	adds	r3, r7, r3
 8000e56:	781b      	ldrb	r3, [r3, #0]
 8000e58:	b25b      	sxtb	r3, r3
 8000e5a:	0018      	movs	r0, r3
 8000e5c:	46bd      	mov	sp, r7
 8000e5e:	b00d      	add	sp, #52	; 0x34
 8000e60:	bdf0      	pop	{r4, r5, r6, r7, pc}

08000e62 <bme280_set_sensor_settings>:
 8000e62:	b5f0      	push	{r4, r5, r6, r7, lr}
 8000e64:	b085      	sub	sp, #20
 8000e66:	af00      	add	r7, sp, #0
 8000e68:	0002      	movs	r2, r0
 8000e6a:	6039      	str	r1, [r7, #0]
 8000e6c:	1dfb      	adds	r3, r7, #7
 8000e6e:	701a      	strb	r2, [r3, #0]
 8000e70:	250f      	movs	r5, #15
 8000e72:	197c      	adds	r4, r7, r5
 8000e74:	683b      	ldr	r3, [r7, #0]
 8000e76:	0018      	movs	r0, r3
 8000e78:	f001 fa85 	bl	8002386 <null_ptr_check>
 8000e7c:	0003      	movs	r3, r0
 8000e7e:	7023      	strb	r3, [r4, #0]
 8000e80:	197b      	adds	r3, r7, r5
 8000e82:	781b      	ldrb	r3, [r3, #0]
 8000e84:	b25b      	sxtb	r3, r3
 8000e86:	2b00      	cmp	r3, #0
 8000e88:	d14e      	bne.n	8000f28 <bme280_set_sensor_settings+0xc6>
 8000e8a:	197c      	adds	r4, r7, r5
 8000e8c:	683a      	ldr	r2, [r7, #0]
 8000e8e:	260e      	movs	r6, #14
 8000e90:	19bb      	adds	r3, r7, r6
 8000e92:	0011      	movs	r1, r2
 8000e94:	0018      	movs	r0, r3
 8000e96:	f000 f896 	bl	8000fc6 <bme280_get_sensor_mode>
 8000e9a:	0003      	movs	r3, r0
 8000e9c:	7023      	strb	r3, [r4, #0]
 8000e9e:	002a      	movs	r2, r5
 8000ea0:	18bb      	adds	r3, r7, r2
 8000ea2:	781b      	ldrb	r3, [r3, #0]
 8000ea4:	b25b      	sxtb	r3, r3
 8000ea6:	2b00      	cmp	r3, #0
 8000ea8:	d10a      	bne.n	8000ec0 <bme280_set_sensor_settings+0x5e>
 8000eaa:	19bb      	adds	r3, r7, r6
 8000eac:	781b      	ldrb	r3, [r3, #0]
 8000eae:	2b00      	cmp	r3, #0
 8000eb0:	d006      	beq.n	8000ec0 <bme280_set_sensor_settings+0x5e>
 8000eb2:	18bc      	adds	r4, r7, r2
 8000eb4:	683b      	ldr	r3, [r7, #0]
 8000eb6:	0018      	movs	r0, r3
 8000eb8:	f000 fbb2 	bl	8001620 <put_device_to_sleep>
 8000ebc:	0003      	movs	r3, r0
 8000ebe:	7023      	strb	r3, [r4, #0]
 8000ec0:	240f      	movs	r4, #15
 8000ec2:	193b      	adds	r3, r7, r4
 8000ec4:	781b      	ldrb	r3, [r3, #0]
 8000ec6:	b25b      	sxtb	r3, r3
 8000ec8:	2b00      	cmp	r3, #0
 8000eca:	d12d      	bne.n	8000f28 <bme280_set_sensor_settings+0xc6>
 8000ecc:	1dfb      	adds	r3, r7, #7
 8000ece:	781b      	ldrb	r3, [r3, #0]
 8000ed0:	0019      	movs	r1, r3
 8000ed2:	2007      	movs	r0, #7
 8000ed4:	f001 fa33 	bl	800233e <are_settings_changed>
 8000ed8:	1e03      	subs	r3, r0, #0
 8000eda:	d00b      	beq.n	8000ef4 <bme280_set_sensor_settings+0x92>
 8000edc:	683b      	ldr	r3, [r7, #0]
 8000ede:	3338      	adds	r3, #56	; 0x38
 8000ee0:	0019      	movs	r1, r3
 8000ee2:	193c      	adds	r4, r7, r4
 8000ee4:	683a      	ldr	r2, [r7, #0]
 8000ee6:	1dfb      	adds	r3, r7, #7
 8000ee8:	781b      	ldrb	r3, [r3, #0]
 8000eea:	0018      	movs	r0, r3
 8000eec:	f000 f9af 	bl	800124e <set_osr_settings>
 8000ef0:	0003      	movs	r3, r0
 8000ef2:	7023      	strb	r3, [r4, #0]
 8000ef4:	240f      	movs	r4, #15
 8000ef6:	193b      	adds	r3, r7, r4
 8000ef8:	781b      	ldrb	r3, [r3, #0]
 8000efa:	b25b      	sxtb	r3, r3
 8000efc:	2b00      	cmp	r3, #0
 8000efe:	d113      	bne.n	8000f28 <bme280_set_sensor_settings+0xc6>
 8000f00:	1dfb      	adds	r3, r7, #7
 8000f02:	781b      	ldrb	r3, [r3, #0]
 8000f04:	0019      	movs	r1, r3
 8000f06:	2018      	movs	r0, #24
 8000f08:	f001 fa19 	bl	800233e <are_settings_changed>
 8000f0c:	1e03      	subs	r3, r0, #0
 8000f0e:	d00b      	beq.n	8000f28 <bme280_set_sensor_settings+0xc6>
 8000f10:	683b      	ldr	r3, [r7, #0]
 8000f12:	3338      	adds	r3, #56	; 0x38
 8000f14:	0019      	movs	r1, r3
 8000f16:	193c      	adds	r4, r7, r4
 8000f18:	683a      	ldr	r2, [r7, #0]
 8000f1a:	1dfb      	adds	r3, r7, #7
 8000f1c:	781b      	ldrb	r3, [r3, #0]
 8000f1e:	0018      	movs	r0, r3
 8000f20:	f000 fa5b 	bl	80013da <set_filter_standby_settings>
 8000f24:	0003      	movs	r3, r0
 8000f26:	7023      	strb	r3, [r4, #0]
 8000f28:	230f      	movs	r3, #15
 8000f2a:	18fb      	adds	r3, r7, r3
 8000f2c:	781b      	ldrb	r3, [r3, #0]
 8000f2e:	b25b      	sxtb	r3, r3
 8000f30:	0018      	movs	r0, r3
 8000f32:	46bd      	mov	sp, r7
 8000f34:	b005      	add	sp, #20
 8000f36:	bdf0      	pop	{r4, r5, r6, r7, pc}

08000f38 <bme280_set_sensor_mode>:
 8000f38:	b5f0      	push	{r4, r5, r6, r7, lr}
 8000f3a:	b085      	sub	sp, #20
 8000f3c:	af00      	add	r7, sp, #0
 8000f3e:	0002      	movs	r2, r0
 8000f40:	6039      	str	r1, [r7, #0]
 8000f42:	1dfb      	adds	r3, r7, #7
 8000f44:	701a      	strb	r2, [r3, #0]
 8000f46:	250f      	movs	r5, #15
 8000f48:	197c      	adds	r4, r7, r5
 8000f4a:	683b      	ldr	r3, [r7, #0]
 8000f4c:	0018      	movs	r0, r3
 8000f4e:	f001 fa1a 	bl	8002386 <null_ptr_check>
 8000f52:	0003      	movs	r3, r0
 8000f54:	7023      	strb	r3, [r4, #0]
 8000f56:	197b      	adds	r3, r7, r5
 8000f58:	781b      	ldrb	r3, [r3, #0]
 8000f5a:	b25b      	sxtb	r3, r3
 8000f5c:	2b00      	cmp	r3, #0
 8000f5e:	d12a      	bne.n	8000fb6 <bme280_set_sensor_mode+0x7e>
 8000f60:	197c      	adds	r4, r7, r5
 8000f62:	683a      	ldr	r2, [r7, #0]
 8000f64:	260e      	movs	r6, #14
 8000f66:	19bb      	adds	r3, r7, r6
 8000f68:	0011      	movs	r1, r2
 8000f6a:	0018      	movs	r0, r3
 8000f6c:	f000 f82b 	bl	8000fc6 <bme280_get_sensor_mode>
 8000f70:	0003      	movs	r3, r0
 8000f72:	7023      	strb	r3, [r4, #0]
 8000f74:	002a      	movs	r2, r5
 8000f76:	18bb      	adds	r3, r7, r2
 8000f78:	781b      	ldrb	r3, [r3, #0]
 8000f7a:	b25b      	sxtb	r3, r3
 8000f7c:	2b00      	cmp	r3, #0
 8000f7e:	d10a      	bne.n	8000f96 <bme280_set_sensor_mode+0x5e>
 8000f80:	19bb      	adds	r3, r7, r6
 8000f82:	781b      	ldrb	r3, [r3, #0]
 8000f84:	2b00      	cmp	r3, #0
 8000f86:	d006      	beq.n	8000f96 <bme280_set_sensor_mode+0x5e>
 8000f88:	18bc      	adds	r4, r7, r2
 8000f8a:	683b      	ldr	r3, [r7, #0]
 8000f8c:	0018      	movs	r0, r3
 8000f8e:	f000 fb47 	bl	8001620 <put_device_to_sleep>
 8000f92:	0003      	movs	r3, r0
 8000f94:	7023      	strb	r3, [r4, #0]
 8000f96:	220f      	movs	r2, #15
 8000f98:	18bb      	adds	r3, r7, r2
 8000f9a:	781b      	ldrb	r3, [r3, #0]
 8000f9c:	b25b      	sxtb	r3, r3
 8000f9e:	2b00      	cmp	r3, #0
 8000fa0:	d109      	bne.n	8000fb6 <bme280_set_sensor_mode+0x7e>
 8000fa2:	18bc      	adds	r4, r7, r2
 8000fa4:	683a      	ldr	r2, [r7, #0]
 8000fa6:	1dfb      	adds	r3, r7, #7
 8000fa8:	781b      	ldrb	r3, [r3, #0]
 8000faa:	0011      	movs	r1, r2
 8000fac:	0018      	movs	r0, r3
 8000fae:	f000 faf7 	bl	80015a0 <write_power_mode>
 8000fb2:	0003      	movs	r3, r0
 8000fb4:	7023      	strb	r3, [r4, #0]
 8000fb6:	230f      	movs	r3, #15
 8000fb8:	18fb      	adds	r3, r7, r3
 8000fba:	781b      	ldrb	r3, [r3, #0]
 8000fbc:	b25b      	sxtb	r3, r3
 8000fbe:	0018      	movs	r0, r3
 8000fc0:	46bd      	mov	sp, r7
 8000fc2:	b005      	add	sp, #20
 8000fc4:	bdf0      	pop	{r4, r5, r6, r7, pc}

08000fc6 <bme280_get_sensor_mode>:
 8000fc6:	b5b0      	push	{r4, r5, r7, lr}
 8000fc8:	b084      	sub	sp, #16
 8000fca:	af00      	add	r7, sp, #0
 8000fcc:	6078      	str	r0, [r7, #4]
 8000fce:	6039      	str	r1, [r7, #0]
 8000fd0:	250f      	movs	r5, #15
 8000fd2:	197c      	adds	r4, r7, r5
 8000fd4:	683b      	ldr	r3, [r7, #0]
 8000fd6:	0018      	movs	r0, r3
 8000fd8:	f001 f9d5 	bl	8002386 <null_ptr_check>
 8000fdc:	0003      	movs	r3, r0
 8000fde:	7023      	strb	r3, [r4, #0]
 8000fe0:	197b      	adds	r3, r7, r5
 8000fe2:	781b      	ldrb	r3, [r3, #0]
 8000fe4:	b25b      	sxtb	r3, r3
 8000fe6:	2b00      	cmp	r3, #0
 8000fe8:	d10f      	bne.n	800100a <bme280_get_sensor_mode+0x44>
 8000fea:	197c      	adds	r4, r7, r5
 8000fec:	683b      	ldr	r3, [r7, #0]
 8000fee:	6879      	ldr	r1, [r7, #4]
 8000ff0:	2201      	movs	r2, #1
 8000ff2:	20f4      	movs	r0, #244	; 0xf4
 8000ff4:	f7ff fe58 	bl	8000ca8 <bme280_get_regs>
 8000ff8:	0003      	movs	r3, r0
 8000ffa:	7023      	strb	r3, [r4, #0]
 8000ffc:	687b      	ldr	r3, [r7, #4]
 8000ffe:	781b      	ldrb	r3, [r3, #0]
 8001000:	2203      	movs	r2, #3
 8001002:	4013      	ands	r3, r2
 8001004:	b2da      	uxtb	r2, r3
 8001006:	687b      	ldr	r3, [r7, #4]
 8001008:	701a      	strb	r2, [r3, #0]
 800100a:	230f      	movs	r3, #15
 800100c:	18fb      	adds	r3, r7, r3
 800100e:	781b      	ldrb	r3, [r3, #0]
 8001010:	b25b      	sxtb	r3, r3
 8001012:	0018      	movs	r0, r3
 8001014:	46bd      	mov	sp, r7
 8001016:	b004      	add	sp, #16
 8001018:	bdb0      	pop	{r4, r5, r7, pc}

0800101a <bme280_soft_reset>:
 800101a:	b5f0      	push	{r4, r5, r6, r7, lr}
 800101c:	b085      	sub	sp, #20
 800101e:	af00      	add	r7, sp, #0
 8001020:	6078      	str	r0, [r7, #4]
 8001022:	260e      	movs	r6, #14
 8001024:	19bb      	adds	r3, r7, r6
 8001026:	22e0      	movs	r2, #224	; 0xe0
 8001028:	701a      	strb	r2, [r3, #0]
 800102a:	230d      	movs	r3, #13
 800102c:	18fb      	adds	r3, r7, r3
 800102e:	22b6      	movs	r2, #182	; 0xb6
 8001030:	701a      	strb	r2, [r3, #0]
 8001032:	250f      	movs	r5, #15
 8001034:	197c      	adds	r4, r7, r5
 8001036:	687b      	ldr	r3, [r7, #4]
 8001038:	0018      	movs	r0, r3
 800103a:	f001 f9a4 	bl	8002386 <null_ptr_check>
 800103e:	0003      	movs	r3, r0
 8001040:	7023      	strb	r3, [r4, #0]
 8001042:	197b      	adds	r3, r7, r5
 8001044:	781b      	ldrb	r3, [r3, #0]
 8001046:	b25b      	sxtb	r3, r3
 8001048:	2b00      	cmp	r3, #0
 800104a:	d10d      	bne.n	8001068 <bme280_soft_reset+0x4e>
 800104c:	197c      	adds	r4, r7, r5
 800104e:	687b      	ldr	r3, [r7, #4]
 8001050:	220d      	movs	r2, #13
 8001052:	18b9      	adds	r1, r7, r2
 8001054:	19b8      	adds	r0, r7, r6
 8001056:	2201      	movs	r2, #1
 8001058:	f7ff fe6e 	bl	8000d38 <bme280_set_regs>
 800105c:	0003      	movs	r3, r0
 800105e:	7023      	strb	r3, [r4, #0]
 8001060:	687b      	ldr	r3, [r7, #4]
 8001062:	68db      	ldr	r3, [r3, #12]
 8001064:	2002      	movs	r0, #2
 8001066:	4798      	blx	r3
 8001068:	230f      	movs	r3, #15
 800106a:	18fb      	adds	r3, r7, r3
 800106c:	781b      	ldrb	r3, [r3, #0]
 800106e:	b25b      	sxtb	r3, r3
 8001070:	0018      	movs	r0, r3
 8001072:	46bd      	mov	sp, r7
 8001074:	b005      	add	sp, #20
 8001076:	bdf0      	pop	{r4, r5, r6, r7, pc}

08001078 <bme280_get_sensor_data>:
 8001078:	b5f0      	push	{r4, r5, r6, r7, lr}
 800107a:	b08b      	sub	sp, #44	; 0x2c
 800107c:	af00      	add	r7, sp, #0
 800107e:	60f8      	str	r0, [r7, #12]
 8001080:	60b9      	str	r1, [r7, #8]
 8001082:	607a      	str	r2, [r7, #4]
 8001084:	261c      	movs	r6, #28
 8001086:	19bb      	adds	r3, r7, r6
 8001088:	2200      	movs	r2, #0
 800108a:	601a      	str	r2, [r3, #0]
 800108c:	2200      	movs	r2, #0
 800108e:	605a      	str	r2, [r3, #4]
 8001090:	2510      	movs	r5, #16
 8001092:	197b      	adds	r3, r7, r5
 8001094:	0018      	movs	r0, r3
 8001096:	230c      	movs	r3, #12
 8001098:	001a      	movs	r2, r3
 800109a:	2100      	movs	r1, #0
 800109c:	f006 ffa7 	bl	8007fee <memset>
 80010a0:	2527      	movs	r5, #39	; 0x27
 80010a2:	197c      	adds	r4, r7, r5
 80010a4:	687b      	ldr	r3, [r7, #4]
 80010a6:	0018      	movs	r0, r3
 80010a8:	f001 f96d 	bl	8002386 <null_ptr_check>
 80010ac:	0003      	movs	r3, r0
 80010ae:	7023      	strb	r3, [r4, #0]
 80010b0:	197b      	adds	r3, r7, r5
 80010b2:	781b      	ldrb	r3, [r3, #0]
 80010b4:	b25b      	sxtb	r3, r3
 80010b6:	2b00      	cmp	r3, #0
 80010b8:	d123      	bne.n	8001102 <bme280_get_sensor_data+0x8a>
 80010ba:	68bb      	ldr	r3, [r7, #8]
 80010bc:	2b00      	cmp	r3, #0
 80010be:	d020      	beq.n	8001102 <bme280_get_sensor_data+0x8a>
 80010c0:	197c      	adds	r4, r7, r5
 80010c2:	687b      	ldr	r3, [r7, #4]
 80010c4:	19b9      	adds	r1, r7, r6
 80010c6:	2208      	movs	r2, #8
 80010c8:	20f7      	movs	r0, #247	; 0xf7
 80010ca:	f7ff fded 	bl	8000ca8 <bme280_get_regs>
 80010ce:	0003      	movs	r3, r0
 80010d0:	7023      	strb	r3, [r4, #0]
 80010d2:	002c      	movs	r4, r5
 80010d4:	193b      	adds	r3, r7, r4
 80010d6:	781b      	ldrb	r3, [r3, #0]
 80010d8:	b25b      	sxtb	r3, r3
 80010da:	2b00      	cmp	r3, #0
 80010dc:	d115      	bne.n	800110a <bme280_get_sensor_data+0x92>
 80010de:	2510      	movs	r5, #16
 80010e0:	197a      	adds	r2, r7, r5
 80010e2:	19bb      	adds	r3, r7, r6
 80010e4:	0011      	movs	r1, r2
 80010e6:	0018      	movs	r0, r3
 80010e8:	f000 f817 	bl	800111a <bme280_parse_sensor_data>
 80010ec:	687b      	ldr	r3, [r7, #4]
 80010ee:	3310      	adds	r3, #16
 80010f0:	193c      	adds	r4, r7, r4
 80010f2:	68ba      	ldr	r2, [r7, #8]
 80010f4:	1979      	adds	r1, r7, r5
 80010f6:	68f8      	ldr	r0, [r7, #12]
 80010f8:	f000 f856 	bl	80011a8 <bme280_compensate_data>
 80010fc:	0003      	movs	r3, r0
 80010fe:	7023      	strb	r3, [r4, #0]
 8001100:	e003      	b.n	800110a <bme280_get_sensor_data+0x92>
 8001102:	2327      	movs	r3, #39	; 0x27
 8001104:	18fb      	adds	r3, r7, r3
 8001106:	22ff      	movs	r2, #255	; 0xff
 8001108:	701a      	strb	r2, [r3, #0]
 800110a:	2327      	movs	r3, #39	; 0x27
 800110c:	18fb      	adds	r3, r7, r3
 800110e:	781b      	ldrb	r3, [r3, #0]
 8001110:	b25b      	sxtb	r3, r3
 8001112:	0018      	movs	r0, r3
 8001114:	46bd      	mov	sp, r7
 8001116:	b00b      	add	sp, #44	; 0x2c
 8001118:	bdf0      	pop	{r4, r5, r6, r7, pc}

0800111a <bme280_parse_sensor_data>:
 800111a:	b580      	push	{r7, lr}
 800111c:	b086      	sub	sp, #24
 800111e:	af00      	add	r7, sp, #0
 8001120:	6078      	str	r0, [r7, #4]
 8001122:	6039      	str	r1, [r7, #0]
 8001124:	687b      	ldr	r3, [r7, #4]
 8001126:	781b      	ldrb	r3, [r3, #0]
 8001128:	031b      	lsls	r3, r3, #12
 800112a:	617b      	str	r3, [r7, #20]
 800112c:	687b      	ldr	r3, [r7, #4]
 800112e:	3301      	adds	r3, #1
 8001130:	781b      	ldrb	r3, [r3, #0]
 8001132:	011b      	lsls	r3, r3, #4
 8001134:	613b      	str	r3, [r7, #16]
 8001136:	687b      	ldr	r3, [r7, #4]
 8001138:	3302      	adds	r3, #2
 800113a:	781b      	ldrb	r3, [r3, #0]
 800113c:	091b      	lsrs	r3, r3, #4
 800113e:	b2db      	uxtb	r3, r3
 8001140:	60fb      	str	r3, [r7, #12]
 8001142:	697a      	ldr	r2, [r7, #20]
 8001144:	693b      	ldr	r3, [r7, #16]
 8001146:	431a      	orrs	r2, r3
 8001148:	68fb      	ldr	r3, [r7, #12]
 800114a:	4313      	orrs	r3, r2
 800114c:	001a      	movs	r2, r3
 800114e:	683b      	ldr	r3, [r7, #0]
 8001150:	601a      	str	r2, [r3, #0]
 8001152:	687b      	ldr	r3, [r7, #4]
 8001154:	3303      	adds	r3, #3
 8001156:	781b      	ldrb	r3, [r3, #0]
 8001158:	031b      	lsls	r3, r3, #12
 800115a:	617b      	str	r3, [r7, #20]
 800115c:	687b      	ldr	r3, [r7, #4]
 800115e:	3304      	adds	r3, #4
 8001160:	781b      	ldrb	r3, [r3, #0]
 8001162:	011b      	lsls	r3, r3, #4
 8001164:	613b      	str	r3, [r7, #16]
 8001166:	687b      	ldr	r3, [r7, #4]
 8001168:	3305      	adds	r3, #5
 800116a:	781b      	ldrb	r3, [r3, #0]
 800116c:	091b      	lsrs	r3, r3, #4
 800116e:	b2db      	uxtb	r3, r3
 8001170:	60fb      	str	r3, [r7, #12]
 8001172:	697a      	ldr	r2, [r7, #20]
 8001174:	693b      	ldr	r3, [r7, #16]
 8001176:	431a      	orrs	r2, r3
 8001178:	68fb      	ldr	r3, [r7, #12]
 800117a:	4313      	orrs	r3, r2
 800117c:	001a      	movs	r2, r3
 800117e:	683b      	ldr	r3, [r7, #0]
 8001180:	605a      	str	r2, [r3, #4]
 8001182:	687b      	ldr	r3, [r7, #4]
 8001184:	3306      	adds	r3, #6
 8001186:	781b      	ldrb	r3, [r3, #0]
 8001188:	021b      	lsls	r3, r3, #8
 800118a:	613b      	str	r3, [r7, #16]
 800118c:	687b      	ldr	r3, [r7, #4]
 800118e:	3307      	adds	r3, #7
 8001190:	781b      	ldrb	r3, [r3, #0]
 8001192:	617b      	str	r3, [r7, #20]
 8001194:	697a      	ldr	r2, [r7, #20]
 8001196:	693b      	ldr	r3, [r7, #16]
 8001198:	4313      	orrs	r3, r2
 800119a:	001a      	movs	r2, r3
 800119c:	683b      	ldr	r3, [r7, #0]
 800119e:	609a      	str	r2, [r3, #8]
 80011a0:	46c0      	nop			; (mov r8, r8)
 80011a2:	46bd      	mov	sp, r7
 80011a4:	b006      	add	sp, #24
 80011a6:	bd80      	pop	{r7, pc}

080011a8 <bme280_compensate_data>:
 80011a8:	b580      	push	{r7, lr}
 80011aa:	b086      	sub	sp, #24
 80011ac:	af00      	add	r7, sp, #0
 80011ae:	60f8      	str	r0, [r7, #12]
 80011b0:	60b9      	str	r1, [r7, #8]
 80011b2:	607a      	str	r2, [r7, #4]
 80011b4:	603b      	str	r3, [r7, #0]
 80011b6:	2317      	movs	r3, #23
 80011b8:	18fb      	adds	r3, r7, r3
 80011ba:	2200      	movs	r2, #0
 80011bc:	701a      	strb	r2, [r3, #0]
 80011be:	68bb      	ldr	r3, [r7, #8]
 80011c0:	2b00      	cmp	r3, #0
 80011c2:	d038      	beq.n	8001236 <bme280_compensate_data+0x8e>
 80011c4:	687b      	ldr	r3, [r7, #4]
 80011c6:	2b00      	cmp	r3, #0
 80011c8:	d035      	beq.n	8001236 <bme280_compensate_data+0x8e>
 80011ca:	683b      	ldr	r3, [r7, #0]
 80011cc:	2b00      	cmp	r3, #0
 80011ce:	d032      	beq.n	8001236 <bme280_compensate_data+0x8e>
 80011d0:	687b      	ldr	r3, [r7, #4]
 80011d2:	2200      	movs	r2, #0
 80011d4:	605a      	str	r2, [r3, #4]
 80011d6:	687b      	ldr	r3, [r7, #4]
 80011d8:	2200      	movs	r2, #0
 80011da:	601a      	str	r2, [r3, #0]
 80011dc:	687b      	ldr	r3, [r7, #4]
 80011de:	2200      	movs	r2, #0
 80011e0:	609a      	str	r2, [r3, #8]
 80011e2:	68fb      	ldr	r3, [r7, #12]
 80011e4:	2207      	movs	r2, #7
 80011e6:	4013      	ands	r3, r2
 80011e8:	d008      	beq.n	80011fc <bme280_compensate_data+0x54>
 80011ea:	683a      	ldr	r2, [r7, #0]
 80011ec:	68bb      	ldr	r3, [r7, #8]
 80011ee:	0011      	movs	r1, r2
 80011f0:	0018      	movs	r0, r3
 80011f2:	f000 fa75 	bl	80016e0 <compensate_temperature>
 80011f6:	0002      	movs	r2, r0
 80011f8:	687b      	ldr	r3, [r7, #4]
 80011fa:	605a      	str	r2, [r3, #4]
 80011fc:	68fb      	ldr	r3, [r7, #12]
 80011fe:	2201      	movs	r2, #1
 8001200:	4013      	ands	r3, r2
 8001202:	d009      	beq.n	8001218 <bme280_compensate_data+0x70>
 8001204:	683a      	ldr	r2, [r7, #0]
 8001206:	68bb      	ldr	r3, [r7, #8]
 8001208:	0011      	movs	r1, r2
 800120a:	0018      	movs	r0, r3
 800120c:	f000 fad6 	bl	80017bc <compensate_pressure>
 8001210:	0003      	movs	r3, r0
 8001212:	001a      	movs	r2, r3
 8001214:	687b      	ldr	r3, [r7, #4]
 8001216:	601a      	str	r2, [r3, #0]
 8001218:	68fb      	ldr	r3, [r7, #12]
 800121a:	2204      	movs	r2, #4
 800121c:	4013      	ands	r3, r2
 800121e:	d00e      	beq.n	800123e <bme280_compensate_data+0x96>
 8001220:	683a      	ldr	r2, [r7, #0]
 8001222:	68bb      	ldr	r3, [r7, #8]
 8001224:	0011      	movs	r1, r2
 8001226:	0018      	movs	r0, r3
 8001228:	f000 fe42 	bl	8001eb0 <compensate_humidity>
 800122c:	0003      	movs	r3, r0
 800122e:	001a      	movs	r2, r3
 8001230:	687b      	ldr	r3, [r7, #4]
 8001232:	609a      	str	r2, [r3, #8]
 8001234:	e003      	b.n	800123e <bme280_compensate_data+0x96>
 8001236:	2317      	movs	r3, #23
 8001238:	18fb      	adds	r3, r7, r3
 800123a:	22ff      	movs	r2, #255	; 0xff
 800123c:	701a      	strb	r2, [r3, #0]
 800123e:	2317      	movs	r3, #23
 8001240:	18fb      	adds	r3, r7, r3
 8001242:	781b      	ldrb	r3, [r3, #0]
 8001244:	b25b      	sxtb	r3, r3
 8001246:	0018      	movs	r0, r3
 8001248:	46bd      	mov	sp, r7
 800124a:	b006      	add	sp, #24
 800124c:	bd80      	pop	{r7, pc}

0800124e <set_osr_settings>:
 800124e:	b590      	push	{r4, r7, lr}
 8001250:	b087      	sub	sp, #28
 8001252:	af00      	add	r7, sp, #0
 8001254:	60b9      	str	r1, [r7, #8]
 8001256:	607a      	str	r2, [r7, #4]
 8001258:	210f      	movs	r1, #15
 800125a:	187b      	adds	r3, r7, r1
 800125c:	1c02      	adds	r2, r0, #0
 800125e:	701a      	strb	r2, [r3, #0]
 8001260:	2017      	movs	r0, #23
 8001262:	183b      	adds	r3, r7, r0
 8001264:	2201      	movs	r2, #1
 8001266:	701a      	strb	r2, [r3, #0]
 8001268:	187b      	adds	r3, r7, r1
 800126a:	781b      	ldrb	r3, [r3, #0]
 800126c:	2204      	movs	r2, #4
 800126e:	4013      	ands	r3, r2
 8001270:	d008      	beq.n	8001284 <set_osr_settings+0x36>
 8001272:	183c      	adds	r4, r7, r0
 8001274:	687a      	ldr	r2, [r7, #4]
 8001276:	68bb      	ldr	r3, [r7, #8]
 8001278:	0011      	movs	r1, r2
 800127a:	0018      	movs	r0, r3
 800127c:	f000 f81b 	bl	80012b6 <set_osr_humidity_settings>
 8001280:	0003      	movs	r3, r0
 8001282:	7023      	strb	r3, [r4, #0]
 8001284:	200f      	movs	r0, #15
 8001286:	183b      	adds	r3, r7, r0
 8001288:	781b      	ldrb	r3, [r3, #0]
 800128a:	2203      	movs	r2, #3
 800128c:	4013      	ands	r3, r2
 800128e:	d00a      	beq.n	80012a6 <set_osr_settings+0x58>
 8001290:	2317      	movs	r3, #23
 8001292:	18fc      	adds	r4, r7, r3
 8001294:	687a      	ldr	r2, [r7, #4]
 8001296:	68b9      	ldr	r1, [r7, #8]
 8001298:	183b      	adds	r3, r7, r0
 800129a:	781b      	ldrb	r3, [r3, #0]
 800129c:	0018      	movs	r0, r3
 800129e:	f000 f851 	bl	8001344 <set_osr_press_temp_settings>
 80012a2:	0003      	movs	r3, r0
 80012a4:	7023      	strb	r3, [r4, #0]
 80012a6:	2317      	movs	r3, #23
 80012a8:	18fb      	adds	r3, r7, r3
 80012aa:	781b      	ldrb	r3, [r3, #0]
 80012ac:	b25b      	sxtb	r3, r3
 80012ae:	0018      	movs	r0, r3
 80012b0:	46bd      	mov	sp, r7
 80012b2:	b007      	add	sp, #28
 80012b4:	bd90      	pop	{r4, r7, pc}

080012b6 <set_osr_humidity_settings>:
 80012b6:	b5f0      	push	{r4, r5, r6, r7, lr}
 80012b8:	b085      	sub	sp, #20
 80012ba:	af00      	add	r7, sp, #0
 80012bc:	6078      	str	r0, [r7, #4]
 80012be:	6039      	str	r1, [r7, #0]
 80012c0:	250c      	movs	r5, #12
 80012c2:	197b      	adds	r3, r7, r5
 80012c4:	22f2      	movs	r2, #242	; 0xf2
 80012c6:	701a      	strb	r2, [r3, #0]
 80012c8:	687b      	ldr	r3, [r7, #4]
 80012ca:	789b      	ldrb	r3, [r3, #2]
 80012cc:	2207      	movs	r2, #7
 80012ce:	4013      	ands	r3, r2
 80012d0:	b2da      	uxtb	r2, r3
 80012d2:	210e      	movs	r1, #14
 80012d4:	187b      	adds	r3, r7, r1
 80012d6:	701a      	strb	r2, [r3, #0]
 80012d8:	260f      	movs	r6, #15
 80012da:	19bc      	adds	r4, r7, r6
 80012dc:	683b      	ldr	r3, [r7, #0]
 80012de:	1879      	adds	r1, r7, r1
 80012e0:	1978      	adds	r0, r7, r5
 80012e2:	2201      	movs	r2, #1
 80012e4:	f7ff fd28 	bl	8000d38 <bme280_set_regs>
 80012e8:	0003      	movs	r3, r0
 80012ea:	7023      	strb	r3, [r4, #0]
 80012ec:	0031      	movs	r1, r6
 80012ee:	187b      	adds	r3, r7, r1
 80012f0:	781b      	ldrb	r3, [r3, #0]
 80012f2:	b25b      	sxtb	r3, r3
 80012f4:	2b00      	cmp	r3, #0
 80012f6:	d11d      	bne.n	8001334 <set_osr_humidity_settings+0x7e>
 80012f8:	197b      	adds	r3, r7, r5
 80012fa:	22f4      	movs	r2, #244	; 0xf4
 80012fc:	701a      	strb	r2, [r3, #0]
 80012fe:	197b      	adds	r3, r7, r5
 8001300:	7818      	ldrb	r0, [r3, #0]
 8001302:	000e      	movs	r6, r1
 8001304:	187c      	adds	r4, r7, r1
 8001306:	683b      	ldr	r3, [r7, #0]
 8001308:	220d      	movs	r2, #13
 800130a:	18b9      	adds	r1, r7, r2
 800130c:	2201      	movs	r2, #1
 800130e:	f7ff fccb 	bl	8000ca8 <bme280_get_regs>
 8001312:	0003      	movs	r3, r0
 8001314:	7023      	strb	r3, [r4, #0]
 8001316:	19bb      	adds	r3, r7, r6
 8001318:	781b      	ldrb	r3, [r3, #0]
 800131a:	b25b      	sxtb	r3, r3
 800131c:	2b00      	cmp	r3, #0
 800131e:	d109      	bne.n	8001334 <set_osr_humidity_settings+0x7e>
 8001320:	19bc      	adds	r4, r7, r6
 8001322:	683b      	ldr	r3, [r7, #0]
 8001324:	220d      	movs	r2, #13
 8001326:	18b9      	adds	r1, r7, r2
 8001328:	1978      	adds	r0, r7, r5
 800132a:	2201      	movs	r2, #1
 800132c:	f7ff fd04 	bl	8000d38 <bme280_set_regs>
 8001330:	0003      	movs	r3, r0
 8001332:	7023      	strb	r3, [r4, #0]
 8001334:	230f      	movs	r3, #15
 8001336:	18fb      	adds	r3, r7, r3
 8001338:	781b      	ldrb	r3, [r3, #0]
 800133a:	b25b      	sxtb	r3, r3
 800133c:	0018      	movs	r0, r3
 800133e:	46bd      	mov	sp, r7
 8001340:	b005      	add	sp, #20
 8001342:	bdf0      	pop	{r4, r5, r6, r7, pc}

08001344 <set_osr_press_temp_settings>:
 8001344:	b5f0      	push	{r4, r5, r6, r7, lr}
 8001346:	b087      	sub	sp, #28
 8001348:	af00      	add	r7, sp, #0
 800134a:	60b9      	str	r1, [r7, #8]
 800134c:	607a      	str	r2, [r7, #4]
 800134e:	250f      	movs	r5, #15
 8001350:	197b      	adds	r3, r7, r5
 8001352:	1c02      	adds	r2, r0, #0
 8001354:	701a      	strb	r2, [r3, #0]
 8001356:	2116      	movs	r1, #22
 8001358:	187b      	adds	r3, r7, r1
 800135a:	22f4      	movs	r2, #244	; 0xf4
 800135c:	701a      	strb	r2, [r3, #0]
 800135e:	187b      	adds	r3, r7, r1
 8001360:	7818      	ldrb	r0, [r3, #0]
 8001362:	2617      	movs	r6, #23
 8001364:	19bc      	adds	r4, r7, r6
 8001366:	687b      	ldr	r3, [r7, #4]
 8001368:	2215      	movs	r2, #21
 800136a:	18b9      	adds	r1, r7, r2
 800136c:	2201      	movs	r2, #1
 800136e:	f7ff fc9b 	bl	8000ca8 <bme280_get_regs>
 8001372:	0003      	movs	r3, r0
 8001374:	7023      	strb	r3, [r4, #0]
 8001376:	19bb      	adds	r3, r7, r6
 8001378:	781b      	ldrb	r3, [r3, #0]
 800137a:	b25b      	sxtb	r3, r3
 800137c:	2b00      	cmp	r3, #0
 800137e:	d124      	bne.n	80013ca <set_osr_press_temp_settings+0x86>
 8001380:	197b      	adds	r3, r7, r5
 8001382:	781b      	ldrb	r3, [r3, #0]
 8001384:	2201      	movs	r2, #1
 8001386:	4013      	ands	r3, r2
 8001388:	d006      	beq.n	8001398 <set_osr_press_temp_settings+0x54>
 800138a:	68ba      	ldr	r2, [r7, #8]
 800138c:	2315      	movs	r3, #21
 800138e:	18fb      	adds	r3, r7, r3
 8001390:	0011      	movs	r1, r2
 8001392:	0018      	movs	r0, r3
 8001394:	f000 f89f 	bl	80014d6 <fill_osr_press_settings>
 8001398:	230f      	movs	r3, #15
 800139a:	18fb      	adds	r3, r7, r3
 800139c:	781b      	ldrb	r3, [r3, #0]
 800139e:	2202      	movs	r2, #2
 80013a0:	4013      	ands	r3, r2
 80013a2:	d006      	beq.n	80013b2 <set_osr_press_temp_settings+0x6e>
 80013a4:	68ba      	ldr	r2, [r7, #8]
 80013a6:	2315      	movs	r3, #21
 80013a8:	18fb      	adds	r3, r7, r3
 80013aa:	0011      	movs	r1, r2
 80013ac:	0018      	movs	r0, r3
 80013ae:	f000 f8ad 	bl	800150c <fill_osr_temp_settings>
 80013b2:	2317      	movs	r3, #23
 80013b4:	18fc      	adds	r4, r7, r3
 80013b6:	687b      	ldr	r3, [r7, #4]
 80013b8:	2215      	movs	r2, #21
 80013ba:	18b9      	adds	r1, r7, r2
 80013bc:	2216      	movs	r2, #22
 80013be:	18b8      	adds	r0, r7, r2
 80013c0:	2201      	movs	r2, #1
 80013c2:	f7ff fcb9 	bl	8000d38 <bme280_set_regs>
 80013c6:	0003      	movs	r3, r0
 80013c8:	7023      	strb	r3, [r4, #0]
 80013ca:	2317      	movs	r3, #23
 80013cc:	18fb      	adds	r3, r7, r3
 80013ce:	781b      	ldrb	r3, [r3, #0]
 80013d0:	b25b      	sxtb	r3, r3
 80013d2:	0018      	movs	r0, r3
 80013d4:	46bd      	mov	sp, r7
 80013d6:	b007      	add	sp, #28
 80013d8:	bdf0      	pop	{r4, r5, r6, r7, pc}

080013da <set_filter_standby_settings>:
 80013da:	b5f0      	push	{r4, r5, r6, r7, lr}
 80013dc:	b087      	sub	sp, #28
 80013de:	af00      	add	r7, sp, #0
 80013e0:	60b9      	str	r1, [r7, #8]
 80013e2:	607a      	str	r2, [r7, #4]
 80013e4:	250f      	movs	r5, #15
 80013e6:	197b      	adds	r3, r7, r5
 80013e8:	1c02      	adds	r2, r0, #0
 80013ea:	701a      	strb	r2, [r3, #0]
 80013ec:	2116      	movs	r1, #22
 80013ee:	187b      	adds	r3, r7, r1
 80013f0:	22f5      	movs	r2, #245	; 0xf5
 80013f2:	701a      	strb	r2, [r3, #0]
 80013f4:	187b      	adds	r3, r7, r1
 80013f6:	7818      	ldrb	r0, [r3, #0]
 80013f8:	2617      	movs	r6, #23
 80013fa:	19bc      	adds	r4, r7, r6
 80013fc:	687b      	ldr	r3, [r7, #4]
 80013fe:	2215      	movs	r2, #21
 8001400:	18b9      	adds	r1, r7, r2
 8001402:	2201      	movs	r2, #1
 8001404:	f7ff fc50 	bl	8000ca8 <bme280_get_regs>
 8001408:	0003      	movs	r3, r0
 800140a:	7023      	strb	r3, [r4, #0]
 800140c:	19bb      	adds	r3, r7, r6
 800140e:	781b      	ldrb	r3, [r3, #0]
 8001410:	b25b      	sxtb	r3, r3
 8001412:	2b00      	cmp	r3, #0
 8001414:	d124      	bne.n	8001460 <set_filter_standby_settings+0x86>
 8001416:	197b      	adds	r3, r7, r5
 8001418:	781b      	ldrb	r3, [r3, #0]
 800141a:	2208      	movs	r2, #8
 800141c:	4013      	ands	r3, r2
 800141e:	d006      	beq.n	800142e <set_filter_standby_settings+0x54>
 8001420:	68ba      	ldr	r2, [r7, #8]
 8001422:	2315      	movs	r3, #21
 8001424:	18fb      	adds	r3, r7, r3
 8001426:	0011      	movs	r1, r2
 8001428:	0018      	movs	r0, r3
 800142a:	f000 f821 	bl	8001470 <fill_filter_settings>
 800142e:	230f      	movs	r3, #15
 8001430:	18fb      	adds	r3, r7, r3
 8001432:	781b      	ldrb	r3, [r3, #0]
 8001434:	2210      	movs	r2, #16
 8001436:	4013      	ands	r3, r2
 8001438:	d006      	beq.n	8001448 <set_filter_standby_settings+0x6e>
 800143a:	68ba      	ldr	r2, [r7, #8]
 800143c:	2315      	movs	r3, #21
 800143e:	18fb      	adds	r3, r7, r3
 8001440:	0011      	movs	r1, r2
 8001442:	0018      	movs	r0, r3
 8001444:	f000 f82f 	bl	80014a6 <fill_standby_settings>
 8001448:	2317      	movs	r3, #23
 800144a:	18fc      	adds	r4, r7, r3
 800144c:	687b      	ldr	r3, [r7, #4]
 800144e:	2215      	movs	r2, #21
 8001450:	18b9      	adds	r1, r7, r2
 8001452:	2216      	movs	r2, #22
 8001454:	18b8      	adds	r0, r7, r2
 8001456:	2201      	movs	r2, #1
 8001458:	f7ff fc6e 	bl	8000d38 <bme280_set_regs>
 800145c:	0003      	movs	r3, r0
 800145e:	7023      	strb	r3, [r4, #0]
 8001460:	2317      	movs	r3, #23
 8001462:	18fb      	adds	r3, r7, r3
 8001464:	781b      	ldrb	r3, [r3, #0]
 8001466:	b25b      	sxtb	r3, r3
 8001468:	0018      	movs	r0, r3
 800146a:	46bd      	mov	sp, r7
 800146c:	b007      	add	sp, #28
 800146e:	bdf0      	pop	{r4, r5, r6, r7, pc}

08001470 <fill_filter_settings>:
 8001470:	b580      	push	{r7, lr}
 8001472:	b082      	sub	sp, #8
 8001474:	af00      	add	r7, sp, #0
 8001476:	6078      	str	r0, [r7, #4]
 8001478:	6039      	str	r1, [r7, #0]
 800147a:	687b      	ldr	r3, [r7, #4]
 800147c:	781b      	ldrb	r3, [r3, #0]
 800147e:	b25b      	sxtb	r3, r3
 8001480:	221c      	movs	r2, #28
 8001482:	4393      	bics	r3, r2
 8001484:	b25a      	sxtb	r2, r3
 8001486:	683b      	ldr	r3, [r7, #0]
 8001488:	78db      	ldrb	r3, [r3, #3]
 800148a:	009b      	lsls	r3, r3, #2
 800148c:	b25b      	sxtb	r3, r3
 800148e:	211c      	movs	r1, #28
 8001490:	400b      	ands	r3, r1
 8001492:	b25b      	sxtb	r3, r3
 8001494:	4313      	orrs	r3, r2
 8001496:	b25b      	sxtb	r3, r3
 8001498:	b2da      	uxtb	r2, r3
 800149a:	687b      	ldr	r3, [r7, #4]
 800149c:	701a      	strb	r2, [r3, #0]
 800149e:	46c0      	nop			; (mov r8, r8)
 80014a0:	46bd      	mov	sp, r7
 80014a2:	b002      	add	sp, #8
 80014a4:	bd80      	pop	{r7, pc}

080014a6 <fill_standby_settings>:
 80014a6:	b580      	push	{r7, lr}
 80014a8:	b082      	sub	sp, #8
 80014aa:	af00      	add	r7, sp, #0
 80014ac:	6078      	str	r0, [r7, #4]
 80014ae:	6039      	str	r1, [r7, #0]
 80014b0:	687b      	ldr	r3, [r7, #4]
 80014b2:	781b      	ldrb	r3, [r3, #0]
 80014b4:	b25b      	sxtb	r3, r3
 80014b6:	221f      	movs	r2, #31
 80014b8:	4013      	ands	r3, r2
 80014ba:	b25a      	sxtb	r2, r3
 80014bc:	683b      	ldr	r3, [r7, #0]
 80014be:	791b      	ldrb	r3, [r3, #4]
 80014c0:	015b      	lsls	r3, r3, #5
 80014c2:	b25b      	sxtb	r3, r3
 80014c4:	4313      	orrs	r3, r2
 80014c6:	b25b      	sxtb	r3, r3
 80014c8:	b2da      	uxtb	r2, r3
 80014ca:	687b      	ldr	r3, [r7, #4]
 80014cc:	701a      	strb	r2, [r3, #0]
 80014ce:	46c0      	nop			; (mov r8, r8)
 80014d0:	46bd      	mov	sp, r7
 80014d2:	b002      	add	sp, #8
 80014d4:	bd80      	pop	{r7, pc}

080014d6 <fill_osr_press_settings>:
 80014d6:	b580      	push	{r7, lr}
 80014d8:	b082      	sub	sp, #8
 80014da:	af00      	add	r7, sp, #0
 80014dc:	6078      	str	r0, [r7, #4]
 80014de:	6039      	str	r1, [r7, #0]
 80014e0:	687b      	ldr	r3, [r7, #4]
 80014e2:	781b      	ldrb	r3, [r3, #0]
 80014e4:	b25b      	sxtb	r3, r3
 80014e6:	221c      	movs	r2, #28
 80014e8:	4393      	bics	r3, r2
 80014ea:	b25a      	sxtb	r2, r3
 80014ec:	683b      	ldr	r3, [r7, #0]
 80014ee:	781b      	ldrb	r3, [r3, #0]
 80014f0:	009b      	lsls	r3, r3, #2
 80014f2:	b25b      	sxtb	r3, r3
 80014f4:	211c      	movs	r1, #28
 80014f6:	400b      	ands	r3, r1
 80014f8:	b25b      	sxtb	r3, r3
 80014fa:	4313      	orrs	r3, r2
 80014fc:	b25b      	sxtb	r3, r3
 80014fe:	b2da      	uxtb	r2, r3
 8001500:	687b      	ldr	r3, [r7, #4]
 8001502:	701a      	strb	r2, [r3, #0]
 8001504:	46c0      	nop			; (mov r8, r8)
 8001506:	46bd      	mov	sp, r7
 8001508:	b002      	add	sp, #8
 800150a:	bd80      	pop	{r7, pc}

0800150c <fill_osr_temp_settings>:
 800150c:	b580      	push	{r7, lr}
 800150e:	b082      	sub	sp, #8
 8001510:	af00      	add	r7, sp, #0
 8001512:	6078      	str	r0, [r7, #4]
 8001514:	6039      	str	r1, [r7, #0]
 8001516:	687b      	ldr	r3, [r7, #4]
 8001518:	781b      	ldrb	r3, [r3, #0]
 800151a:	b25b      	sxtb	r3, r3
 800151c:	221f      	movs	r2, #31
 800151e:	4013      	ands	r3, r2
 8001520:	b25a      	sxtb	r2, r3
 8001522:	683b      	ldr	r3, [r7, #0]
 8001524:	785b      	ldrb	r3, [r3, #1]
 8001526:	015b      	lsls	r3, r3, #5
 8001528:	b25b      	sxtb	r3, r3
 800152a:	4313      	orrs	r3, r2
 800152c:	b25b      	sxtb	r3, r3
 800152e:	b2da      	uxtb	r2, r3
 8001530:	687b      	ldr	r3, [r7, #4]
 8001532:	701a      	strb	r2, [r3, #0]
 8001534:	46c0      	nop			; (mov r8, r8)
 8001536:	46bd      	mov	sp, r7
 8001538:	b002      	add	sp, #8
 800153a:	bd80      	pop	{r7, pc}

0800153c <parse_device_settings>:
 800153c:	b580      	push	{r7, lr}
 800153e:	b082      	sub	sp, #8
 8001540:	af00      	add	r7, sp, #0
 8001542:	6078      	str	r0, [r7, #4]
 8001544:	6039      	str	r1, [r7, #0]
 8001546:	687b      	ldr	r3, [r7, #4]
 8001548:	781b      	ldrb	r3, [r3, #0]
 800154a:	2207      	movs	r2, #7
 800154c:	4013      	ands	r3, r2
 800154e:	b2da      	uxtb	r2, r3
 8001550:	683b      	ldr	r3, [r7, #0]
 8001552:	709a      	strb	r2, [r3, #2]
 8001554:	687b      	ldr	r3, [r7, #4]
 8001556:	3302      	adds	r3, #2
 8001558:	781b      	ldrb	r3, [r3, #0]
 800155a:	109b      	asrs	r3, r3, #2
 800155c:	b2db      	uxtb	r3, r3
 800155e:	2207      	movs	r2, #7
 8001560:	4013      	ands	r3, r2
 8001562:	b2da      	uxtb	r2, r3
 8001564:	683b      	ldr	r3, [r7, #0]
 8001566:	701a      	strb	r2, [r3, #0]
 8001568:	687b      	ldr	r3, [r7, #4]
 800156a:	3302      	adds	r3, #2
 800156c:	781b      	ldrb	r3, [r3, #0]
 800156e:	095b      	lsrs	r3, r3, #5
 8001570:	b2da      	uxtb	r2, r3
 8001572:	683b      	ldr	r3, [r7, #0]
 8001574:	705a      	strb	r2, [r3, #1]
 8001576:	687b      	ldr	r3, [r7, #4]
 8001578:	3303      	adds	r3, #3
 800157a:	781b      	ldrb	r3, [r3, #0]
 800157c:	109b      	asrs	r3, r3, #2
 800157e:	b2db      	uxtb	r3, r3
 8001580:	2207      	movs	r2, #7
 8001582:	4013      	ands	r3, r2
 8001584:	b2da      	uxtb	r2, r3
 8001586:	683b      	ldr	r3, [r7, #0]
 8001588:	70da      	strb	r2, [r3, #3]
 800158a:	687b      	ldr	r3, [r7, #4]
 800158c:	3303      	adds	r3, #3
 800158e:	781b      	ldrb	r3, [r3, #0]
 8001590:	095b      	lsrs	r3, r3, #5
 8001592:	b2da      	uxtb	r2, r3
 8001594:	683b      	ldr	r3, [r7, #0]
 8001596:	711a      	strb	r2, [r3, #4]
 8001598:	46c0      	nop			; (mov r8, r8)
 800159a:	46bd      	mov	sp, r7
 800159c:	b002      	add	sp, #8
 800159e:	bd80      	pop	{r7, pc}

080015a0 <write_power_mode>:
 80015a0:	b5f0      	push	{r4, r5, r6, r7, lr}
 80015a2:	b085      	sub	sp, #20
 80015a4:	af00      	add	r7, sp, #0
 80015a6:	0002      	movs	r2, r0
 80015a8:	6039      	str	r1, [r7, #0]
 80015aa:	1dfb      	adds	r3, r7, #7
 80015ac:	701a      	strb	r2, [r3, #0]
 80015ae:	260e      	movs	r6, #14
 80015b0:	19bb      	adds	r3, r7, r6
 80015b2:	22f4      	movs	r2, #244	; 0xf4
 80015b4:	701a      	strb	r2, [r3, #0]
 80015b6:	19bb      	adds	r3, r7, r6
 80015b8:	7818      	ldrb	r0, [r3, #0]
 80015ba:	240f      	movs	r4, #15
 80015bc:	193c      	adds	r4, r7, r4
 80015be:	683b      	ldr	r3, [r7, #0]
 80015c0:	250d      	movs	r5, #13
 80015c2:	1979      	adds	r1, r7, r5
 80015c4:	2201      	movs	r2, #1
 80015c6:	f7ff fb6f 	bl	8000ca8 <bme280_get_regs>
 80015ca:	0003      	movs	r3, r0
 80015cc:	7023      	strb	r3, [r4, #0]
 80015ce:	240f      	movs	r4, #15
 80015d0:	193b      	adds	r3, r7, r4
 80015d2:	781b      	ldrb	r3, [r3, #0]
 80015d4:	b25b      	sxtb	r3, r3
 80015d6:	2b00      	cmp	r3, #0
 80015d8:	d11a      	bne.n	8001610 <write_power_mode+0x70>
 80015da:	0028      	movs	r0, r5
 80015dc:	183b      	adds	r3, r7, r0
 80015de:	781b      	ldrb	r3, [r3, #0]
 80015e0:	b25b      	sxtb	r3, r3
 80015e2:	2203      	movs	r2, #3
 80015e4:	4393      	bics	r3, r2
 80015e6:	b25a      	sxtb	r2, r3
 80015e8:	1dfb      	adds	r3, r7, #7
 80015ea:	781b      	ldrb	r3, [r3, #0]
 80015ec:	b25b      	sxtb	r3, r3
 80015ee:	2103      	movs	r1, #3
 80015f0:	400b      	ands	r3, r1
 80015f2:	b25b      	sxtb	r3, r3
 80015f4:	4313      	orrs	r3, r2
 80015f6:	b25b      	sxtb	r3, r3
 80015f8:	b2da      	uxtb	r2, r3
 80015fa:	183b      	adds	r3, r7, r0
 80015fc:	701a      	strb	r2, [r3, #0]
 80015fe:	193c      	adds	r4, r7, r4
 8001600:	683b      	ldr	r3, [r7, #0]
 8001602:	1839      	adds	r1, r7, r0
 8001604:	19b8      	adds	r0, r7, r6
 8001606:	2201      	movs	r2, #1
 8001608:	f7ff fb96 	bl	8000d38 <bme280_set_regs>
 800160c:	0003      	movs	r3, r0
 800160e:	7023      	strb	r3, [r4, #0]
 8001610:	230f      	movs	r3, #15
 8001612:	18fb      	adds	r3, r7, r3
 8001614:	781b      	ldrb	r3, [r3, #0]
 8001616:	b25b      	sxtb	r3, r3
 8001618:	0018      	movs	r0, r3
 800161a:	46bd      	mov	sp, r7
 800161c:	b005      	add	sp, #20
 800161e:	bdf0      	pop	{r4, r5, r6, r7, pc}

08001620 <put_device_to_sleep>:
 8001620:	b5f0      	push	{r4, r5, r6, r7, lr}
 8001622:	b087      	sub	sp, #28
 8001624:	af00      	add	r7, sp, #0
 8001626:	6078      	str	r0, [r7, #4]
 8001628:	2517      	movs	r5, #23
 800162a:	197c      	adds	r4, r7, r5
 800162c:	687b      	ldr	r3, [r7, #4]
 800162e:	2610      	movs	r6, #16
 8001630:	19b9      	adds	r1, r7, r6
 8001632:	2204      	movs	r2, #4
 8001634:	20f2      	movs	r0, #242	; 0xf2
 8001636:	f7ff fb37 	bl	8000ca8 <bme280_get_regs>
 800163a:	0003      	movs	r3, r0
 800163c:	7023      	strb	r3, [r4, #0]
 800163e:	002c      	movs	r4, r5
 8001640:	193b      	adds	r3, r7, r4
 8001642:	781b      	ldrb	r3, [r3, #0]
 8001644:	b25b      	sxtb	r3, r3
 8001646:	2b00      	cmp	r3, #0
 8001648:	d11d      	bne.n	8001686 <put_device_to_sleep+0x66>
 800164a:	2308      	movs	r3, #8
 800164c:	18fa      	adds	r2, r7, r3
 800164e:	19bb      	adds	r3, r7, r6
 8001650:	0011      	movs	r1, r2
 8001652:	0018      	movs	r0, r3
 8001654:	f7ff ff72 	bl	800153c <parse_device_settings>
 8001658:	0025      	movs	r5, r4
 800165a:	193c      	adds	r4, r7, r4
 800165c:	687b      	ldr	r3, [r7, #4]
 800165e:	0018      	movs	r0, r3
 8001660:	f7ff fcdb 	bl	800101a <bme280_soft_reset>
 8001664:	0003      	movs	r3, r0
 8001666:	7023      	strb	r3, [r4, #0]
 8001668:	197b      	adds	r3, r7, r5
 800166a:	781b      	ldrb	r3, [r3, #0]
 800166c:	b25b      	sxtb	r3, r3
 800166e:	2b00      	cmp	r3, #0
 8001670:	d109      	bne.n	8001686 <put_device_to_sleep+0x66>
 8001672:	197c      	adds	r4, r7, r5
 8001674:	687a      	ldr	r2, [r7, #4]
 8001676:	2308      	movs	r3, #8
 8001678:	18fb      	adds	r3, r7, r3
 800167a:	0011      	movs	r1, r2
 800167c:	0018      	movs	r0, r3
 800167e:	f000 f80a 	bl	8001696 <reload_device_settings>
 8001682:	0003      	movs	r3, r0
 8001684:	7023      	strb	r3, [r4, #0]
 8001686:	2317      	movs	r3, #23
 8001688:	18fb      	adds	r3, r7, r3
 800168a:	781b      	ldrb	r3, [r3, #0]
 800168c:	b25b      	sxtb	r3, r3
 800168e:	0018      	movs	r0, r3
 8001690:	46bd      	mov	sp, r7
 8001692:	b007      	add	sp, #28
 8001694:	bdf0      	pop	{r4, r5, r6, r7, pc}

08001696 <reload_device_settings>:
 8001696:	b5b0      	push	{r4, r5, r7, lr}
 8001698:	b084      	sub	sp, #16
 800169a:	af00      	add	r7, sp, #0
 800169c:	6078      	str	r0, [r7, #4]
 800169e:	6039      	str	r1, [r7, #0]
 80016a0:	250f      	movs	r5, #15
 80016a2:	197c      	adds	r4, r7, r5
 80016a4:	683a      	ldr	r2, [r7, #0]
 80016a6:	687b      	ldr	r3, [r7, #4]
 80016a8:	0019      	movs	r1, r3
 80016aa:	201f      	movs	r0, #31
 80016ac:	f7ff fdcf 	bl	800124e <set_osr_settings>
 80016b0:	0003      	movs	r3, r0
 80016b2:	7023      	strb	r3, [r4, #0]
 80016b4:	197b      	adds	r3, r7, r5
 80016b6:	781b      	ldrb	r3, [r3, #0]
 80016b8:	b25b      	sxtb	r3, r3
 80016ba:	2b00      	cmp	r3, #0
 80016bc:	d108      	bne.n	80016d0 <reload_device_settings+0x3a>
 80016be:	197c      	adds	r4, r7, r5
 80016c0:	683a      	ldr	r2, [r7, #0]
 80016c2:	687b      	ldr	r3, [r7, #4]
 80016c4:	0019      	movs	r1, r3
 80016c6:	201f      	movs	r0, #31
 80016c8:	f7ff fe87 	bl	80013da <set_filter_standby_settings>
 80016cc:	0003      	movs	r3, r0
 80016ce:	7023      	strb	r3, [r4, #0]
 80016d0:	230f      	movs	r3, #15
 80016d2:	18fb      	adds	r3, r7, r3
 80016d4:	781b      	ldrb	r3, [r3, #0]
 80016d6:	b25b      	sxtb	r3, r3
 80016d8:	0018      	movs	r0, r3
 80016da:	46bd      	mov	sp, r7
 80016dc:	b004      	add	sp, #16
 80016de:	bdb0      	pop	{r4, r5, r7, pc}

080016e0 <compensate_temperature>:
 80016e0:	b580      	push	{r7, lr}
 80016e2:	b088      	sub	sp, #32
 80016e4:	af00      	add	r7, sp, #0
 80016e6:	6078      	str	r0, [r7, #4]
 80016e8:	6039      	str	r1, [r7, #0]
 80016ea:	4b2f      	ldr	r3, [pc, #188]	; (80017a8 <compensate_temperature+0xc8>)
 80016ec:	61bb      	str	r3, [r7, #24]
 80016ee:	4b2f      	ldr	r3, [pc, #188]	; (80017ac <compensate_temperature+0xcc>)
 80016f0:	617b      	str	r3, [r7, #20]
 80016f2:	687b      	ldr	r3, [r7, #4]
 80016f4:	685b      	ldr	r3, [r3, #4]
 80016f6:	2b00      	cmp	r3, #0
 80016f8:	da00      	bge.n	80016fc <compensate_temperature+0x1c>
 80016fa:	3307      	adds	r3, #7
 80016fc:	10db      	asrs	r3, r3, #3
 80016fe:	001a      	movs	r2, r3
 8001700:	683b      	ldr	r3, [r7, #0]
 8001702:	881b      	ldrh	r3, [r3, #0]
 8001704:	005b      	lsls	r3, r3, #1
 8001706:	1ad3      	subs	r3, r2, r3
 8001708:	613b      	str	r3, [r7, #16]
 800170a:	683b      	ldr	r3, [r7, #0]
 800170c:	2202      	movs	r2, #2
 800170e:	5e9b      	ldrsh	r3, [r3, r2]
 8001710:	001a      	movs	r2, r3
 8001712:	693b      	ldr	r3, [r7, #16]
 8001714:	4353      	muls	r3, r2
 8001716:	2b00      	cmp	r3, #0
 8001718:	da02      	bge.n	8001720 <compensate_temperature+0x40>
 800171a:	4a25      	ldr	r2, [pc, #148]	; (80017b0 <compensate_temperature+0xd0>)
 800171c:	4694      	mov	ip, r2
 800171e:	4463      	add	r3, ip
 8001720:	12db      	asrs	r3, r3, #11
 8001722:	613b      	str	r3, [r7, #16]
 8001724:	687b      	ldr	r3, [r7, #4]
 8001726:	685b      	ldr	r3, [r3, #4]
 8001728:	2b00      	cmp	r3, #0
 800172a:	da00      	bge.n	800172e <compensate_temperature+0x4e>
 800172c:	330f      	adds	r3, #15
 800172e:	111b      	asrs	r3, r3, #4
 8001730:	001a      	movs	r2, r3
 8001732:	683b      	ldr	r3, [r7, #0]
 8001734:	881b      	ldrh	r3, [r3, #0]
 8001736:	1ad3      	subs	r3, r2, r3
 8001738:	60fb      	str	r3, [r7, #12]
 800173a:	68fb      	ldr	r3, [r7, #12]
 800173c:	435b      	muls	r3, r3
 800173e:	2b00      	cmp	r3, #0
 8001740:	da02      	bge.n	8001748 <compensate_temperature+0x68>
 8001742:	4a1c      	ldr	r2, [pc, #112]	; (80017b4 <compensate_temperature+0xd4>)
 8001744:	4694      	mov	ip, r2
 8001746:	4463      	add	r3, ip
 8001748:	131b      	asrs	r3, r3, #12
 800174a:	001a      	movs	r2, r3
 800174c:	683b      	ldr	r3, [r7, #0]
 800174e:	2104      	movs	r1, #4
 8001750:	5e5b      	ldrsh	r3, [r3, r1]
 8001752:	4353      	muls	r3, r2
 8001754:	2b00      	cmp	r3, #0
 8001756:	da02      	bge.n	800175e <compensate_temperature+0x7e>
 8001758:	4a17      	ldr	r2, [pc, #92]	; (80017b8 <compensate_temperature+0xd8>)
 800175a:	4694      	mov	ip, r2
 800175c:	4463      	add	r3, ip
 800175e:	139b      	asrs	r3, r3, #14
 8001760:	60fb      	str	r3, [r7, #12]
 8001762:	693a      	ldr	r2, [r7, #16]
 8001764:	68fb      	ldr	r3, [r7, #12]
 8001766:	18d2      	adds	r2, r2, r3
 8001768:	683b      	ldr	r3, [r7, #0]
 800176a:	625a      	str	r2, [r3, #36]	; 0x24
 800176c:	683b      	ldr	r3, [r7, #0]
 800176e:	6a5a      	ldr	r2, [r3, #36]	; 0x24
 8001770:	0013      	movs	r3, r2
 8001772:	009b      	lsls	r3, r3, #2
 8001774:	189b      	adds	r3, r3, r2
 8001776:	3380      	adds	r3, #128	; 0x80
 8001778:	2b00      	cmp	r3, #0
 800177a:	da00      	bge.n	800177e <compensate_temperature+0x9e>
 800177c:	33ff      	adds	r3, #255	; 0xff
 800177e:	121b      	asrs	r3, r3, #8
 8001780:	61fb      	str	r3, [r7, #28]
 8001782:	69fa      	ldr	r2, [r7, #28]
 8001784:	69bb      	ldr	r3, [r7, #24]
 8001786:	429a      	cmp	r2, r3
 8001788:	da02      	bge.n	8001790 <compensate_temperature+0xb0>
 800178a:	69bb      	ldr	r3, [r7, #24]
 800178c:	61fb      	str	r3, [r7, #28]
 800178e:	e005      	b.n	800179c <compensate_temperature+0xbc>
 8001790:	69fa      	ldr	r2, [r7, #28]
 8001792:	697b      	ldr	r3, [r7, #20]
 8001794:	429a      	cmp	r2, r3
 8001796:	dd01      	ble.n	800179c <compensate_temperature+0xbc>
 8001798:	697b      	ldr	r3, [r7, #20]
 800179a:	61fb      	str	r3, [r7, #28]
 800179c:	69fb      	ldr	r3, [r7, #28]
 800179e:	0018      	movs	r0, r3
 80017a0:	46bd      	mov	sp, r7
 80017a2:	b008      	add	sp, #32
 80017a4:	bd80      	pop	{r7, pc}
 80017a6:	46c0      	nop			; (mov r8, r8)
 80017a8:	fffff060 	.word	0xfffff060
 80017ac:	00002134 	.word	0x00002134
 80017b0:	000007ff 	.word	0x000007ff
 80017b4:	00000fff 	.word	0x00000fff
 80017b8:	00003fff 	.word	0x00003fff

080017bc <compensate_pressure>:
 80017bc:	b5f0      	push	{r4, r5, r6, r7, lr}
 80017be:	46c6      	mov	lr, r8
 80017c0:	b500      	push	{lr}
 80017c2:	b0be      	sub	sp, #248	; 0xf8
 80017c4:	af00      	add	r7, sp, #0
 80017c6:	23bc      	movs	r3, #188	; 0xbc
 80017c8:	2208      	movs	r2, #8
 80017ca:	4694      	mov	ip, r2
 80017cc:	44bc      	add	ip, r7
 80017ce:	4463      	add	r3, ip
 80017d0:	6018      	str	r0, [r3, #0]
 80017d2:	22b8      	movs	r2, #184	; 0xb8
 80017d4:	2308      	movs	r3, #8
 80017d6:	18fb      	adds	r3, r7, r3
 80017d8:	189b      	adds	r3, r3, r2
 80017da:	6019      	str	r1, [r3, #0]
 80017dc:	4be6      	ldr	r3, [pc, #920]	; (8001b78 <compensate_pressure+0x3bc>)
 80017de:	21e8      	movs	r1, #232	; 0xe8
 80017e0:	2008      	movs	r0, #8
 80017e2:	4684      	mov	ip, r0
 80017e4:	44bc      	add	ip, r7
 80017e6:	4461      	add	r1, ip
 80017e8:	600b      	str	r3, [r1, #0]
 80017ea:	4be4      	ldr	r3, [pc, #912]	; (8001b7c <compensate_pressure+0x3c0>)
 80017ec:	21e4      	movs	r1, #228	; 0xe4
 80017ee:	2008      	movs	r0, #8
 80017f0:	4684      	mov	ip, r0
 80017f2:	44bc      	add	ip, r7
 80017f4:	4461      	add	r1, ip
 80017f6:	600b      	str	r3, [r1, #0]
 80017f8:	2308      	movs	r3, #8
 80017fa:	18fb      	adds	r3, r7, r3
 80017fc:	189b      	adds	r3, r3, r2
 80017fe:	681b      	ldr	r3, [r3, #0]
 8001800:	6a5b      	ldr	r3, [r3, #36]	; 0x24
 8001802:	663b      	str	r3, [r7, #96]	; 0x60
 8001804:	17db      	asrs	r3, r3, #31
 8001806:	667b      	str	r3, [r7, #100]	; 0x64
 8001808:	4add      	ldr	r2, [pc, #884]	; (8001b80 <compensate_pressure+0x3c4>)
 800180a:	2301      	movs	r3, #1
 800180c:	425b      	negs	r3, r3
 800180e:	6e38      	ldr	r0, [r7, #96]	; 0x60
 8001810:	6e79      	ldr	r1, [r7, #100]	; 0x64
 8001812:	1880      	adds	r0, r0, r2
 8001814:	4159      	adcs	r1, r3
 8001816:	0002      	movs	r2, r0
 8001818:	000b      	movs	r3, r1
 800181a:	26d8      	movs	r6, #216	; 0xd8
 800181c:	2108      	movs	r1, #8
 800181e:	1879      	adds	r1, r7, r1
 8001820:	1989      	adds	r1, r1, r6
 8001822:	600a      	str	r2, [r1, #0]
 8001824:	604b      	str	r3, [r1, #4]
 8001826:	2308      	movs	r3, #8
 8001828:	18fb      	adds	r3, r7, r3
 800182a:	199b      	adds	r3, r3, r6
 800182c:	681a      	ldr	r2, [r3, #0]
 800182e:	685b      	ldr	r3, [r3, #4]
 8001830:	2108      	movs	r1, #8
 8001832:	1879      	adds	r1, r7, r1
 8001834:	1989      	adds	r1, r1, r6
 8001836:	6808      	ldr	r0, [r1, #0]
 8001838:	6849      	ldr	r1, [r1, #4]
 800183a:	f7fe fd27 	bl	800028c <__aeabi_lmul>
 800183e:	0002      	movs	r2, r0
 8001840:	000b      	movs	r3, r1
 8001842:	0010      	movs	r0, r2
 8001844:	0019      	movs	r1, r3
 8001846:	22b8      	movs	r2, #184	; 0xb8
 8001848:	2308      	movs	r3, #8
 800184a:	18fb      	adds	r3, r7, r3
 800184c:	189b      	adds	r3, r3, r2
 800184e:	681b      	ldr	r3, [r3, #0]
 8001850:	2210      	movs	r2, #16
 8001852:	5e9b      	ldrsh	r3, [r3, r2]
 8001854:	65bb      	str	r3, [r7, #88]	; 0x58
 8001856:	17db      	asrs	r3, r3, #31
 8001858:	65fb      	str	r3, [r7, #92]	; 0x5c
 800185a:	6dba      	ldr	r2, [r7, #88]	; 0x58
 800185c:	6dfb      	ldr	r3, [r7, #92]	; 0x5c
 800185e:	f7fe fd15 	bl	800028c <__aeabi_lmul>
 8001862:	0002      	movs	r2, r0
 8001864:	000b      	movs	r3, r1
 8001866:	21d0      	movs	r1, #208	; 0xd0
 8001868:	2008      	movs	r0, #8
 800186a:	1838      	adds	r0, r7, r0
 800186c:	1840      	adds	r0, r0, r1
 800186e:	6002      	str	r2, [r0, #0]
 8001870:	6043      	str	r3, [r0, #4]
 8001872:	22b8      	movs	r2, #184	; 0xb8
 8001874:	2308      	movs	r3, #8
 8001876:	18fb      	adds	r3, r7, r3
 8001878:	189b      	adds	r3, r3, r2
 800187a:	681b      	ldr	r3, [r3, #0]
 800187c:	220e      	movs	r2, #14
 800187e:	5e9b      	ldrsh	r3, [r3, r2]
 8001880:	653b      	str	r3, [r7, #80]	; 0x50
 8001882:	17db      	asrs	r3, r3, #31
 8001884:	657b      	str	r3, [r7, #84]	; 0x54
 8001886:	2308      	movs	r3, #8
 8001888:	18fb      	adds	r3, r7, r3
 800188a:	199b      	adds	r3, r3, r6
 800188c:	681a      	ldr	r2, [r3, #0]
 800188e:	685b      	ldr	r3, [r3, #4]
 8001890:	6d38      	ldr	r0, [r7, #80]	; 0x50
 8001892:	6d79      	ldr	r1, [r7, #84]	; 0x54
 8001894:	f7fe fcfa 	bl	800028c <__aeabi_lmul>
 8001898:	0002      	movs	r2, r0
 800189a:	000b      	movs	r3, r1
 800189c:	0bd1      	lsrs	r1, r2, #15
 800189e:	045d      	lsls	r5, r3, #17
 80018a0:	430d      	orrs	r5, r1
 80018a2:	0454      	lsls	r4, r2, #17
 80018a4:	21d0      	movs	r1, #208	; 0xd0
 80018a6:	2308      	movs	r3, #8
 80018a8:	18fb      	adds	r3, r7, r3
 80018aa:	185b      	adds	r3, r3, r1
 80018ac:	681a      	ldr	r2, [r3, #0]
 80018ae:	685b      	ldr	r3, [r3, #4]
 80018b0:	1912      	adds	r2, r2, r4
 80018b2:	416b      	adcs	r3, r5
 80018b4:	2008      	movs	r0, #8
 80018b6:	1838      	adds	r0, r7, r0
 80018b8:	1840      	adds	r0, r0, r1
 80018ba:	6002      	str	r2, [r0, #0]
 80018bc:	6043      	str	r3, [r0, #4]
 80018be:	24b8      	movs	r4, #184	; 0xb8
 80018c0:	2308      	movs	r3, #8
 80018c2:	18fb      	adds	r3, r7, r3
 80018c4:	191b      	adds	r3, r3, r4
 80018c6:	681b      	ldr	r3, [r3, #0]
 80018c8:	220c      	movs	r2, #12
 80018ca:	5e9b      	ldrsh	r3, [r3, r2]
 80018cc:	64bb      	str	r3, [r7, #72]	; 0x48
 80018ce:	17db      	asrs	r3, r3, #31
 80018d0:	64fb      	str	r3, [r7, #76]	; 0x4c
 80018d2:	6cbb      	ldr	r3, [r7, #72]	; 0x48
 80018d4:	00db      	lsls	r3, r3, #3
 80018d6:	647b      	str	r3, [r7, #68]	; 0x44
 80018d8:	2300      	movs	r3, #0
 80018da:	643b      	str	r3, [r7, #64]	; 0x40
 80018dc:	000d      	movs	r5, r1
 80018de:	2308      	movs	r3, #8
 80018e0:	18fb      	adds	r3, r7, r3
 80018e2:	185b      	adds	r3, r3, r1
 80018e4:	681a      	ldr	r2, [r3, #0]
 80018e6:	685b      	ldr	r3, [r3, #4]
 80018e8:	6c38      	ldr	r0, [r7, #64]	; 0x40
 80018ea:	6c79      	ldr	r1, [r7, #68]	; 0x44
 80018ec:	1812      	adds	r2, r2, r0
 80018ee:	414b      	adcs	r3, r1
 80018f0:	2108      	movs	r1, #8
 80018f2:	1879      	adds	r1, r7, r1
 80018f4:	1949      	adds	r1, r1, r5
 80018f6:	600a      	str	r2, [r1, #0]
 80018f8:	604b      	str	r3, [r1, #4]
 80018fa:	2308      	movs	r3, #8
 80018fc:	18fb      	adds	r3, r7, r3
 80018fe:	199b      	adds	r3, r3, r6
 8001900:	681a      	ldr	r2, [r3, #0]
 8001902:	685b      	ldr	r3, [r3, #4]
 8001904:	2108      	movs	r1, #8
 8001906:	1879      	adds	r1, r7, r1
 8001908:	1989      	adds	r1, r1, r6
 800190a:	6808      	ldr	r0, [r1, #0]
 800190c:	6849      	ldr	r1, [r1, #4]
 800190e:	f7fe fcbd 	bl	800028c <__aeabi_lmul>
 8001912:	0002      	movs	r2, r0
 8001914:	000b      	movs	r3, r1
 8001916:	0010      	movs	r0, r2
 8001918:	0019      	movs	r1, r3
 800191a:	2308      	movs	r3, #8
 800191c:	18fb      	adds	r3, r7, r3
 800191e:	191b      	adds	r3, r3, r4
 8001920:	681b      	ldr	r3, [r3, #0]
 8001922:	220a      	movs	r2, #10
 8001924:	5e9b      	ldrsh	r3, [r3, r2]
 8001926:	63bb      	str	r3, [r7, #56]	; 0x38
 8001928:	17db      	asrs	r3, r3, #31
 800192a:	63fb      	str	r3, [r7, #60]	; 0x3c
 800192c:	6bba      	ldr	r2, [r7, #56]	; 0x38
 800192e:	6bfb      	ldr	r3, [r7, #60]	; 0x3c
 8001930:	f7fe fcac 	bl	800028c <__aeabi_lmul>
 8001934:	0002      	movs	r2, r0
 8001936:	000b      	movs	r3, r1
 8001938:	0010      	movs	r0, r2
 800193a:	0019      	movs	r1, r3
 800193c:	2900      	cmp	r1, #0
 800193e:	da03      	bge.n	8001948 <compensate_pressure+0x18c>
 8001940:	22ff      	movs	r2, #255	; 0xff
 8001942:	2300      	movs	r3, #0
 8001944:	1880      	adds	r0, r0, r2
 8001946:	4159      	adcs	r1, r3
 8001948:	060b      	lsls	r3, r1, #24
 800194a:	0a02      	lsrs	r2, r0, #8
 800194c:	2498      	movs	r4, #152	; 0x98
 800194e:	2508      	movs	r5, #8
 8001950:	197d      	adds	r5, r7, r5
 8001952:	192d      	adds	r5, r5, r4
 8001954:	602a      	str	r2, [r5, #0]
 8001956:	2208      	movs	r2, #8
 8001958:	18ba      	adds	r2, r7, r2
 800195a:	1912      	adds	r2, r2, r4
 800195c:	6812      	ldr	r2, [r2, #0]
 800195e:	431a      	orrs	r2, r3
 8001960:	2308      	movs	r3, #8
 8001962:	18fb      	adds	r3, r7, r3
 8001964:	191b      	adds	r3, r3, r4
 8001966:	601a      	str	r2, [r3, #0]
 8001968:	120b      	asrs	r3, r1, #8
 800196a:	229c      	movs	r2, #156	; 0x9c
 800196c:	2108      	movs	r1, #8
 800196e:	468c      	mov	ip, r1
 8001970:	44bc      	add	ip, r7
 8001972:	4462      	add	r2, ip
 8001974:	6013      	str	r3, [r2, #0]
 8001976:	2308      	movs	r3, #8
 8001978:	18fb      	adds	r3, r7, r3
 800197a:	191b      	adds	r3, r3, r4
 800197c:	685c      	ldr	r4, [r3, #4]
 800197e:	681b      	ldr	r3, [r3, #0]
 8001980:	603b      	str	r3, [r7, #0]
 8001982:	607c      	str	r4, [r7, #4]
 8001984:	25b8      	movs	r5, #184	; 0xb8
 8001986:	2308      	movs	r3, #8
 8001988:	18fb      	adds	r3, r7, r3
 800198a:	195b      	adds	r3, r3, r5
 800198c:	681b      	ldr	r3, [r3, #0]
 800198e:	2208      	movs	r2, #8
 8001990:	5e9b      	ldrsh	r3, [r3, r2]
 8001992:	633b      	str	r3, [r7, #48]	; 0x30
 8001994:	17db      	asrs	r3, r3, #31
 8001996:	637b      	str	r3, [r7, #52]	; 0x34
 8001998:	26d8      	movs	r6, #216	; 0xd8
 800199a:	2308      	movs	r3, #8
 800199c:	18fb      	adds	r3, r7, r3
 800199e:	199b      	adds	r3, r3, r6
 80019a0:	681a      	ldr	r2, [r3, #0]
 80019a2:	685b      	ldr	r3, [r3, #4]
 80019a4:	6b38      	ldr	r0, [r7, #48]	; 0x30
 80019a6:	6b79      	ldr	r1, [r7, #52]	; 0x34
 80019a8:	f7fe fc70 	bl	800028c <__aeabi_lmul>
 80019ac:	0002      	movs	r2, r0
 80019ae:	000b      	movs	r3, r1
 80019b0:	0d11      	lsrs	r1, r2, #20
 80019b2:	4688      	mov	r8, r1
 80019b4:	0318      	lsls	r0, r3, #12
 80019b6:	24b4      	movs	r4, #180	; 0xb4
 80019b8:	2108      	movs	r1, #8
 80019ba:	468c      	mov	ip, r1
 80019bc:	44bc      	add	ip, r7
 80019be:	4464      	add	r4, ip
 80019c0:	6020      	str	r0, [r4, #0]
 80019c2:	20b4      	movs	r0, #180	; 0xb4
 80019c4:	2108      	movs	r1, #8
 80019c6:	1879      	adds	r1, r7, r1
 80019c8:	180c      	adds	r4, r1, r0
 80019ca:	6820      	ldr	r0, [r4, #0]
 80019cc:	4641      	mov	r1, r8
 80019ce:	4308      	orrs	r0, r1
 80019d0:	21b4      	movs	r1, #180	; 0xb4
 80019d2:	2408      	movs	r4, #8
 80019d4:	46a4      	mov	ip, r4
 80019d6:	44bc      	add	ip, r7
 80019d8:	4461      	add	r1, ip
 80019da:	6008      	str	r0, [r1, #0]
 80019dc:	0313      	lsls	r3, r2, #12
 80019de:	22b0      	movs	r2, #176	; 0xb0
 80019e0:	2108      	movs	r1, #8
 80019e2:	1879      	adds	r1, r7, r1
 80019e4:	1889      	adds	r1, r1, r2
 80019e6:	600b      	str	r3, [r1, #0]
 80019e8:	2308      	movs	r3, #8
 80019ea:	18fb      	adds	r3, r7, r3
 80019ec:	189b      	adds	r3, r3, r2
 80019ee:	681a      	ldr	r2, [r3, #0]
 80019f0:	685b      	ldr	r3, [r3, #4]
 80019f2:	6838      	ldr	r0, [r7, #0]
 80019f4:	6879      	ldr	r1, [r7, #4]
 80019f6:	1812      	adds	r2, r2, r0
 80019f8:	414b      	adcs	r3, r1
 80019fa:	2108      	movs	r1, #8
 80019fc:	1879      	adds	r1, r7, r1
 80019fe:	1989      	adds	r1, r1, r6
 8001a00:	600a      	str	r2, [r1, #0]
 8001a02:	604b      	str	r3, [r1, #4]
 8001a04:	2200      	movs	r2, #0
 8001a06:	2380      	movs	r3, #128	; 0x80
 8001a08:	021b      	lsls	r3, r3, #8
 8001a0a:	21c8      	movs	r1, #200	; 0xc8
 8001a0c:	2008      	movs	r0, #8
 8001a0e:	1838      	adds	r0, r7, r0
 8001a10:	1840      	adds	r0, r0, r1
 8001a12:	6002      	str	r2, [r0, #0]
 8001a14:	6043      	str	r3, [r0, #4]
 8001a16:	2308      	movs	r3, #8
 8001a18:	18fb      	adds	r3, r7, r3
 8001a1a:	185b      	adds	r3, r3, r1
 8001a1c:	6818      	ldr	r0, [r3, #0]
 8001a1e:	6859      	ldr	r1, [r3, #4]
 8001a20:	2308      	movs	r3, #8
 8001a22:	18fb      	adds	r3, r7, r3
 8001a24:	199b      	adds	r3, r3, r6
 8001a26:	681a      	ldr	r2, [r3, #0]
 8001a28:	685b      	ldr	r3, [r3, #4]
 8001a2a:	1880      	adds	r0, r0, r2
 8001a2c:	4159      	adcs	r1, r3
 8001a2e:	2308      	movs	r3, #8
 8001a30:	18fb      	adds	r3, r7, r3
 8001a32:	195b      	adds	r3, r3, r5
 8001a34:	681b      	ldr	r3, [r3, #0]
 8001a36:	88db      	ldrh	r3, [r3, #6]
 8001a38:	62bb      	str	r3, [r7, #40]	; 0x28
 8001a3a:	2300      	movs	r3, #0
 8001a3c:	62fb      	str	r3, [r7, #44]	; 0x2c
 8001a3e:	6aba      	ldr	r2, [r7, #40]	; 0x28
 8001a40:	6afb      	ldr	r3, [r7, #44]	; 0x2c
 8001a42:	f7fe fc23 	bl	800028c <__aeabi_lmul>
 8001a46:	0002      	movs	r2, r0
 8001a48:	000b      	movs	r3, r1
 8001a4a:	0010      	movs	r0, r2
 8001a4c:	0019      	movs	r1, r3
 8001a4e:	2900      	cmp	r1, #0
 8001a50:	da04      	bge.n	8001a5c <compensate_pressure+0x2a0>
 8001a52:	2201      	movs	r2, #1
 8001a54:	4252      	negs	r2, r2
 8001a56:	2301      	movs	r3, #1
 8001a58:	1880      	adds	r0, r0, r2
 8001a5a:	4159      	adcs	r1, r3
 8001a5c:	104b      	asrs	r3, r1, #1
 8001a5e:	60bb      	str	r3, [r7, #8]
 8001a60:	17cb      	asrs	r3, r1, #31
 8001a62:	60fb      	str	r3, [r7, #12]
 8001a64:	68bb      	ldr	r3, [r7, #8]
 8001a66:	68fc      	ldr	r4, [r7, #12]
 8001a68:	25d8      	movs	r5, #216	; 0xd8
 8001a6a:	2208      	movs	r2, #8
 8001a6c:	18ba      	adds	r2, r7, r2
 8001a6e:	1952      	adds	r2, r2, r5
 8001a70:	6013      	str	r3, [r2, #0]
 8001a72:	6054      	str	r4, [r2, #4]
 8001a74:	2308      	movs	r3, #8
 8001a76:	18fb      	adds	r3, r7, r3
 8001a78:	195b      	adds	r3, r3, r5
 8001a7a:	681a      	ldr	r2, [r3, #0]
 8001a7c:	23dc      	movs	r3, #220	; 0xdc
 8001a7e:	2108      	movs	r1, #8
 8001a80:	468c      	mov	ip, r1
 8001a82:	44bc      	add	ip, r7
 8001a84:	4463      	add	r3, ip
 8001a86:	681b      	ldr	r3, [r3, #0]
 8001a88:	431a      	orrs	r2, r3
 8001a8a:	d100      	bne.n	8001a8e <compensate_pressure+0x2d2>
 8001a8c:	e1f2      	b.n	8001e74 <compensate_pressure+0x6b8>
 8001a8e:	23bc      	movs	r3, #188	; 0xbc
 8001a90:	2208      	movs	r2, #8
 8001a92:	4694      	mov	ip, r2
 8001a94:	44bc      	add	ip, r7
 8001a96:	4463      	add	r3, ip
 8001a98:	681b      	ldr	r3, [r3, #0]
 8001a9a:	681a      	ldr	r2, [r3, #0]
 8001a9c:	2380      	movs	r3, #128	; 0x80
 8001a9e:	035b      	lsls	r3, r3, #13
 8001aa0:	1a9b      	subs	r3, r3, r2
 8001aa2:	24c0      	movs	r4, #192	; 0xc0
 8001aa4:	2208      	movs	r2, #8
 8001aa6:	18ba      	adds	r2, r7, r2
 8001aa8:	1912      	adds	r2, r2, r4
 8001aaa:	6013      	str	r3, [r2, #0]
 8001aac:	17db      	asrs	r3, r3, #31
 8001aae:	21c4      	movs	r1, #196	; 0xc4
 8001ab0:	2208      	movs	r2, #8
 8001ab2:	18ba      	adds	r2, r7, r2
 8001ab4:	1852      	adds	r2, r2, r1
 8001ab6:	6013      	str	r3, [r2, #0]
 8001ab8:	2308      	movs	r3, #8
 8001aba:	18fb      	adds	r3, r7, r3
 8001abc:	191b      	adds	r3, r3, r4
 8001abe:	681b      	ldr	r3, [r3, #0]
 8001ac0:	085a      	lsrs	r2, r3, #1
 8001ac2:	2308      	movs	r3, #8
 8001ac4:	18fb      	adds	r3, r7, r3
 8001ac6:	185b      	adds	r3, r3, r1
 8001ac8:	681b      	ldr	r3, [r3, #0]
 8001aca:	07db      	lsls	r3, r3, #31
 8001acc:	21ac      	movs	r1, #172	; 0xac
 8001ace:	2008      	movs	r0, #8
 8001ad0:	1838      	adds	r0, r7, r0
 8001ad2:	1840      	adds	r0, r0, r1
 8001ad4:	6003      	str	r3, [r0, #0]
 8001ad6:	2308      	movs	r3, #8
 8001ad8:	18fb      	adds	r3, r7, r3
 8001ada:	185b      	adds	r3, r3, r1
 8001adc:	681b      	ldr	r3, [r3, #0]
 8001ade:	4313      	orrs	r3, r2
 8001ae0:	2208      	movs	r2, #8
 8001ae2:	18ba      	adds	r2, r7, r2
 8001ae4:	1852      	adds	r2, r2, r1
 8001ae6:	6013      	str	r3, [r2, #0]
 8001ae8:	2308      	movs	r3, #8
 8001aea:	18fb      	adds	r3, r7, r3
 8001aec:	191b      	adds	r3, r3, r4
 8001aee:	681b      	ldr	r3, [r3, #0]
 8001af0:	07db      	lsls	r3, r3, #31
 8001af2:	21a8      	movs	r1, #168	; 0xa8
 8001af4:	2208      	movs	r2, #8
 8001af6:	18ba      	adds	r2, r7, r2
 8001af8:	1852      	adds	r2, r2, r1
 8001afa:	6013      	str	r3, [r2, #0]
 8001afc:	23d0      	movs	r3, #208	; 0xd0
 8001afe:	2208      	movs	r2, #8
 8001b00:	4694      	mov	ip, r2
 8001b02:	44bc      	add	ip, r7
 8001b04:	4463      	add	r3, ip
 8001b06:	681a      	ldr	r2, [r3, #0]
 8001b08:	685b      	ldr	r3, [r3, #4]
 8001b0a:	2008      	movs	r0, #8
 8001b0c:	4684      	mov	ip, r0
 8001b0e:	44bc      	add	ip, r7
 8001b10:	4461      	add	r1, ip
 8001b12:	6808      	ldr	r0, [r1, #0]
 8001b14:	6849      	ldr	r1, [r1, #4]
 8001b16:	1a80      	subs	r0, r0, r2
 8001b18:	4199      	sbcs	r1, r3
 8001b1a:	4a1a      	ldr	r2, [pc, #104]	; (8001b84 <compensate_pressure+0x3c8>)
 8001b1c:	2300      	movs	r3, #0
 8001b1e:	f7fe fbb5 	bl	800028c <__aeabi_lmul>
 8001b22:	0002      	movs	r2, r0
 8001b24:	000b      	movs	r3, r1
 8001b26:	0010      	movs	r0, r2
 8001b28:	0019      	movs	r1, r3
 8001b2a:	2308      	movs	r3, #8
 8001b2c:	18fb      	adds	r3, r7, r3
 8001b2e:	195b      	adds	r3, r3, r5
 8001b30:	681a      	ldr	r2, [r3, #0]
 8001b32:	685b      	ldr	r3, [r3, #4]
 8001b34:	f7fe fb86 	bl	8000244 <__aeabi_ldivmod>
 8001b38:	0002      	movs	r2, r0
 8001b3a:	000b      	movs	r3, r1
 8001b3c:	2108      	movs	r1, #8
 8001b3e:	1879      	adds	r1, r7, r1
 8001b40:	1909      	adds	r1, r1, r4
 8001b42:	600a      	str	r2, [r1, #0]
 8001b44:	604b      	str	r3, [r1, #4]
 8001b46:	23b8      	movs	r3, #184	; 0xb8
 8001b48:	2208      	movs	r2, #8
 8001b4a:	4694      	mov	ip, r2
 8001b4c:	44bc      	add	ip, r7
 8001b4e:	4463      	add	r3, ip
 8001b50:	681b      	ldr	r3, [r3, #0]
 8001b52:	2216      	movs	r2, #22
 8001b54:	5e9b      	ldrsh	r3, [r3, r2]
 8001b56:	623b      	str	r3, [r7, #32]
 8001b58:	17db      	asrs	r3, r3, #31
 8001b5a:	627b      	str	r3, [r7, #36]	; 0x24
 8001b5c:	2308      	movs	r3, #8
 8001b5e:	18fb      	adds	r3, r7, r3
 8001b60:	191b      	adds	r3, r3, r4
 8001b62:	681a      	ldr	r2, [r3, #0]
 8001b64:	685b      	ldr	r3, [r3, #4]
 8001b66:	0010      	movs	r0, r2
 8001b68:	0019      	movs	r1, r3
 8001b6a:	2900      	cmp	r1, #0
 8001b6c:	da0e      	bge.n	8001b8c <compensate_pressure+0x3d0>
 8001b6e:	4a06      	ldr	r2, [pc, #24]	; (8001b88 <compensate_pressure+0x3cc>)
 8001b70:	2300      	movs	r3, #0
 8001b72:	1880      	adds	r0, r0, r2
 8001b74:	4159      	adcs	r1, r3
 8001b76:	e009      	b.n	8001b8c <compensate_pressure+0x3d0>
 8001b78:	002dc6c0 	.word	0x002dc6c0
 8001b7c:	00a7d8c0 	.word	0x00a7d8c0
 8001b80:	fffe0c00 	.word	0xfffe0c00
 8001b84:	00000c35 	.word	0x00000c35
 8001b88:	00001fff 	.word	0x00001fff
 8001b8c:	04cb      	lsls	r3, r1, #19
 8001b8e:	0b42      	lsrs	r2, r0, #13
 8001b90:	2490      	movs	r4, #144	; 0x90
 8001b92:	2508      	movs	r5, #8
 8001b94:	197d      	adds	r5, r7, r5
 8001b96:	192d      	adds	r5, r5, r4
 8001b98:	602a      	str	r2, [r5, #0]
 8001b9a:	2208      	movs	r2, #8
 8001b9c:	18ba      	adds	r2, r7, r2
 8001b9e:	1912      	adds	r2, r2, r4
 8001ba0:	6812      	ldr	r2, [r2, #0]
 8001ba2:	431a      	orrs	r2, r3
 8001ba4:	2308      	movs	r3, #8
 8001ba6:	18fb      	adds	r3, r7, r3
 8001ba8:	191b      	adds	r3, r3, r4
 8001baa:	601a      	str	r2, [r3, #0]
 8001bac:	134b      	asrs	r3, r1, #13
 8001bae:	2294      	movs	r2, #148	; 0x94
 8001bb0:	2108      	movs	r1, #8
 8001bb2:	468c      	mov	ip, r1
 8001bb4:	44bc      	add	ip, r7
 8001bb6:	4462      	add	r2, ip
 8001bb8:	6013      	str	r3, [r2, #0]
 8001bba:	2308      	movs	r3, #8
 8001bbc:	18fb      	adds	r3, r7, r3
 8001bbe:	191b      	adds	r3, r3, r4
 8001bc0:	681a      	ldr	r2, [r3, #0]
 8001bc2:	685b      	ldr	r3, [r3, #4]
 8001bc4:	6a38      	ldr	r0, [r7, #32]
 8001bc6:	6a79      	ldr	r1, [r7, #36]	; 0x24
 8001bc8:	f7fe fb60 	bl	800028c <__aeabi_lmul>
 8001bcc:	0002      	movs	r2, r0
 8001bce:	000b      	movs	r3, r1
 8001bd0:	0014      	movs	r4, r2
 8001bd2:	001d      	movs	r5, r3
 8001bd4:	23c0      	movs	r3, #192	; 0xc0
 8001bd6:	2208      	movs	r2, #8
 8001bd8:	4694      	mov	ip, r2
 8001bda:	44bc      	add	ip, r7
 8001bdc:	4463      	add	r3, ip
 8001bde:	681a      	ldr	r2, [r3, #0]
 8001be0:	685b      	ldr	r3, [r3, #4]
 8001be2:	0010      	movs	r0, r2
 8001be4:	0019      	movs	r1, r3
 8001be6:	2900      	cmp	r1, #0
 8001be8:	da03      	bge.n	8001bf2 <compensate_pressure+0x436>
 8001bea:	4aae      	ldr	r2, [pc, #696]	; (8001ea4 <compensate_pressure+0x6e8>)
 8001bec:	2300      	movs	r3, #0
 8001bee:	1880      	adds	r0, r0, r2
 8001bf0:	4159      	adcs	r1, r3
 8001bf2:	04cb      	lsls	r3, r1, #19
 8001bf4:	469c      	mov	ip, r3
 8001bf6:	0b42      	lsrs	r2, r0, #13
 8001bf8:	2688      	movs	r6, #136	; 0x88
 8001bfa:	2308      	movs	r3, #8
 8001bfc:	18fb      	adds	r3, r7, r3
 8001bfe:	199b      	adds	r3, r3, r6
 8001c00:	601a      	str	r2, [r3, #0]
 8001c02:	2308      	movs	r3, #8
 8001c04:	18fb      	adds	r3, r7, r3
 8001c06:	199a      	adds	r2, r3, r6
 8001c08:	6812      	ldr	r2, [r2, #0]
 8001c0a:	4663      	mov	r3, ip
 8001c0c:	431a      	orrs	r2, r3
 8001c0e:	2308      	movs	r3, #8
 8001c10:	18fb      	adds	r3, r7, r3
 8001c12:	199b      	adds	r3, r3, r6
 8001c14:	601a      	str	r2, [r3, #0]
 8001c16:	134b      	asrs	r3, r1, #13
 8001c18:	228c      	movs	r2, #140	; 0x8c
 8001c1a:	2108      	movs	r1, #8
 8001c1c:	468c      	mov	ip, r1
 8001c1e:	44bc      	add	ip, r7
 8001c20:	4462      	add	r2, ip
 8001c22:	6013      	str	r3, [r2, #0]
 8001c24:	2308      	movs	r3, #8
 8001c26:	18fb      	adds	r3, r7, r3
 8001c28:	199b      	adds	r3, r3, r6
 8001c2a:	681a      	ldr	r2, [r3, #0]
 8001c2c:	685b      	ldr	r3, [r3, #4]
 8001c2e:	0020      	movs	r0, r4
 8001c30:	0029      	movs	r1, r5
 8001c32:	f7fe fb2b 	bl	800028c <__aeabi_lmul>
 8001c36:	0002      	movs	r2, r0
 8001c38:	000b      	movs	r3, r1
 8001c3a:	0010      	movs	r0, r2
 8001c3c:	0019      	movs	r1, r3
 8001c3e:	2900      	cmp	r1, #0
 8001c40:	da03      	bge.n	8001c4a <compensate_pressure+0x48e>
 8001c42:	4a99      	ldr	r2, [pc, #612]	; (8001ea8 <compensate_pressure+0x6ec>)
 8001c44:	2300      	movs	r3, #0
 8001c46:	1880      	adds	r0, r0, r2
 8001c48:	4159      	adcs	r1, r3
 8001c4a:	01cb      	lsls	r3, r1, #7
 8001c4c:	0e42      	lsrs	r2, r0, #25
 8001c4e:	2480      	movs	r4, #128	; 0x80
 8001c50:	2508      	movs	r5, #8
 8001c52:	197d      	adds	r5, r7, r5
 8001c54:	192d      	adds	r5, r5, r4
 8001c56:	602a      	str	r2, [r5, #0]
 8001c58:	2208      	movs	r2, #8
 8001c5a:	18ba      	adds	r2, r7, r2
 8001c5c:	1912      	adds	r2, r2, r4
 8001c5e:	6812      	ldr	r2, [r2, #0]
 8001c60:	431a      	orrs	r2, r3
 8001c62:	2308      	movs	r3, #8
 8001c64:	18fb      	adds	r3, r7, r3
 8001c66:	191b      	adds	r3, r3, r4
 8001c68:	601a      	str	r2, [r3, #0]
 8001c6a:	164b      	asrs	r3, r1, #25
 8001c6c:	2284      	movs	r2, #132	; 0x84
 8001c6e:	2108      	movs	r1, #8
 8001c70:	468c      	mov	ip, r1
 8001c72:	44bc      	add	ip, r7
 8001c74:	4462      	add	r2, ip
 8001c76:	6013      	str	r3, [r2, #0]
 8001c78:	2308      	movs	r3, #8
 8001c7a:	18fb      	adds	r3, r7, r3
 8001c7c:	191b      	adds	r3, r3, r4
 8001c7e:	685c      	ldr	r4, [r3, #4]
 8001c80:	681b      	ldr	r3, [r3, #0]
 8001c82:	22d8      	movs	r2, #216	; 0xd8
 8001c84:	2108      	movs	r1, #8
 8001c86:	468c      	mov	ip, r1
 8001c88:	44bc      	add	ip, r7
 8001c8a:	4462      	add	r2, ip
 8001c8c:	6013      	str	r3, [r2, #0]
 8001c8e:	6054      	str	r4, [r2, #4]
 8001c90:	23b8      	movs	r3, #184	; 0xb8
 8001c92:	2208      	movs	r2, #8
 8001c94:	4694      	mov	ip, r2
 8001c96:	44bc      	add	ip, r7
 8001c98:	4463      	add	r3, ip
 8001c9a:	681b      	ldr	r3, [r3, #0]
 8001c9c:	2214      	movs	r2, #20
 8001c9e:	5e9b      	ldrsh	r3, [r3, r2]
 8001ca0:	61bb      	str	r3, [r7, #24]
 8001ca2:	17db      	asrs	r3, r3, #31
 8001ca4:	61fb      	str	r3, [r7, #28]
 8001ca6:	23c0      	movs	r3, #192	; 0xc0
 8001ca8:	2208      	movs	r2, #8
 8001caa:	4694      	mov	ip, r2
 8001cac:	44bc      	add	ip, r7
 8001cae:	4463      	add	r3, ip
 8001cb0:	681a      	ldr	r2, [r3, #0]
 8001cb2:	685b      	ldr	r3, [r3, #4]
 8001cb4:	69b8      	ldr	r0, [r7, #24]
 8001cb6:	69f9      	ldr	r1, [r7, #28]
 8001cb8:	f7fe fae8 	bl	800028c <__aeabi_lmul>
 8001cbc:	0002      	movs	r2, r0
 8001cbe:	000b      	movs	r3, r1
 8001cc0:	0010      	movs	r0, r2
 8001cc2:	0019      	movs	r1, r3
 8001cc4:	2900      	cmp	r1, #0
 8001cc6:	da03      	bge.n	8001cd0 <compensate_pressure+0x514>
 8001cc8:	4a78      	ldr	r2, [pc, #480]	; (8001eac <compensate_pressure+0x6f0>)
 8001cca:	2300      	movs	r3, #0
 8001ccc:	1880      	adds	r0, r0, r2
 8001cce:	4159      	adcs	r1, r3
 8001cd0:	034b      	lsls	r3, r1, #13
 8001cd2:	0cc2      	lsrs	r2, r0, #19
 8001cd4:	2480      	movs	r4, #128	; 0x80
 8001cd6:	193c      	adds	r4, r7, r4
 8001cd8:	6022      	str	r2, [r4, #0]
 8001cda:	2280      	movs	r2, #128	; 0x80
 8001cdc:	18ba      	adds	r2, r7, r2
 8001cde:	6812      	ldr	r2, [r2, #0]
 8001ce0:	431a      	orrs	r2, r3
 8001ce2:	2380      	movs	r3, #128	; 0x80
 8001ce4:	18fb      	adds	r3, r7, r3
 8001ce6:	601a      	str	r2, [r3, #0]
 8001ce8:	14cb      	asrs	r3, r1, #19
 8001cea:	2284      	movs	r2, #132	; 0x84
 8001cec:	18ba      	adds	r2, r7, r2
 8001cee:	6013      	str	r3, [r2, #0]
 8001cf0:	2380      	movs	r3, #128	; 0x80
 8001cf2:	18fb      	adds	r3, r7, r3
 8001cf4:	685c      	ldr	r4, [r3, #4]
 8001cf6:	681b      	ldr	r3, [r3, #0]
 8001cf8:	25d0      	movs	r5, #208	; 0xd0
 8001cfa:	2208      	movs	r2, #8
 8001cfc:	18ba      	adds	r2, r7, r2
 8001cfe:	1952      	adds	r2, r2, r5
 8001d00:	6013      	str	r3, [r2, #0]
 8001d02:	6054      	str	r4, [r2, #4]
 8001d04:	23c0      	movs	r3, #192	; 0xc0
 8001d06:	2208      	movs	r2, #8
 8001d08:	4694      	mov	ip, r2
 8001d0a:	44bc      	add	ip, r7
 8001d0c:	4463      	add	r3, ip
 8001d0e:	6818      	ldr	r0, [r3, #0]
 8001d10:	6859      	ldr	r1, [r3, #4]
 8001d12:	23d8      	movs	r3, #216	; 0xd8
 8001d14:	2208      	movs	r2, #8
 8001d16:	4694      	mov	ip, r2
 8001d18:	44bc      	add	ip, r7
 8001d1a:	4463      	add	r3, ip
 8001d1c:	681a      	ldr	r2, [r3, #0]
 8001d1e:	685b      	ldr	r3, [r3, #4]
 8001d20:	1880      	adds	r0, r0, r2
 8001d22:	4159      	adcs	r1, r3
 8001d24:	2308      	movs	r3, #8
 8001d26:	18fb      	adds	r3, r7, r3
 8001d28:	195b      	adds	r3, r3, r5
 8001d2a:	681a      	ldr	r2, [r3, #0]
 8001d2c:	685b      	ldr	r3, [r3, #4]
 8001d2e:	1812      	adds	r2, r2, r0
 8001d30:	414b      	adcs	r3, r1
 8001d32:	2b00      	cmp	r3, #0
 8001d34:	da03      	bge.n	8001d3e <compensate_pressure+0x582>
 8001d36:	20ff      	movs	r0, #255	; 0xff
 8001d38:	2100      	movs	r1, #0
 8001d3a:	1812      	adds	r2, r2, r0
 8001d3c:	414b      	adcs	r3, r1
 8001d3e:	0619      	lsls	r1, r3, #24
 8001d40:	0a10      	lsrs	r0, r2, #8
 8001d42:	67b8      	str	r0, [r7, #120]	; 0x78
 8001d44:	6fb8      	ldr	r0, [r7, #120]	; 0x78
 8001d46:	4308      	orrs	r0, r1
 8001d48:	67b8      	str	r0, [r7, #120]	; 0x78
 8001d4a:	121b      	asrs	r3, r3, #8
 8001d4c:	67fb      	str	r3, [r7, #124]	; 0x7c
 8001d4e:	6fbb      	ldr	r3, [r7, #120]	; 0x78
 8001d50:	6ffc      	ldr	r4, [r7, #124]	; 0x7c
 8001d52:	603b      	str	r3, [r7, #0]
 8001d54:	607c      	str	r4, [r7, #4]
 8001d56:	21b8      	movs	r1, #184	; 0xb8
 8001d58:	2308      	movs	r3, #8
 8001d5a:	469c      	mov	ip, r3
 8001d5c:	44bc      	add	ip, r7
 8001d5e:	4461      	add	r1, ip
 8001d60:	6809      	ldr	r1, [r1, #0]
 8001d62:	2012      	movs	r0, #18
 8001d64:	5e09      	ldrsh	r1, [r1, r0]
 8001d66:	6139      	str	r1, [r7, #16]
 8001d68:	17c9      	asrs	r1, r1, #31
 8001d6a:	6179      	str	r1, [r7, #20]
 8001d6c:	693c      	ldr	r4, [r7, #16]
 8001d6e:	697d      	ldr	r5, [r7, #20]
 8001d70:	0021      	movs	r1, r4
 8001d72:	0f09      	lsrs	r1, r1, #28
 8001d74:	0028      	movs	r0, r5
 8001d76:	0100      	lsls	r0, r0, #4
 8001d78:	26a4      	movs	r6, #164	; 0xa4
 8001d7a:	2308      	movs	r3, #8
 8001d7c:	18fb      	adds	r3, r7, r3
 8001d7e:	199b      	adds	r3, r3, r6
 8001d80:	6018      	str	r0, [r3, #0]
 8001d82:	2308      	movs	r3, #8
 8001d84:	18fb      	adds	r3, r7, r3
 8001d86:	1998      	adds	r0, r3, r6
 8001d88:	6800      	ldr	r0, [r0, #0]
 8001d8a:	4308      	orrs	r0, r1
 8001d8c:	2308      	movs	r3, #8
 8001d8e:	18fb      	adds	r3, r7, r3
 8001d90:	1999      	adds	r1, r3, r6
 8001d92:	6008      	str	r0, [r1, #0]
 8001d94:	0021      	movs	r1, r4
 8001d96:	0109      	lsls	r1, r1, #4
 8001d98:	20a0      	movs	r0, #160	; 0xa0
 8001d9a:	2308      	movs	r3, #8
 8001d9c:	18fb      	adds	r3, r7, r3
 8001d9e:	181c      	adds	r4, r3, r0
 8001da0:	6021      	str	r1, [r4, #0]
 8001da2:	2308      	movs	r3, #8
 8001da4:	18fb      	adds	r3, r7, r3
 8001da6:	1819      	adds	r1, r3, r0
 8001da8:	6808      	ldr	r0, [r1, #0]
 8001daa:	6849      	ldr	r1, [r1, #4]
 8001dac:	683a      	ldr	r2, [r7, #0]
 8001dae:	687b      	ldr	r3, [r7, #4]
 8001db0:	1812      	adds	r2, r2, r0
 8001db2:	414b      	adcs	r3, r1
 8001db4:	21c0      	movs	r1, #192	; 0xc0
 8001db6:	2008      	movs	r0, #8
 8001db8:	1838      	adds	r0, r7, r0
 8001dba:	1840      	adds	r0, r0, r1
 8001dbc:	6002      	str	r2, [r0, #0]
 8001dbe:	6043      	str	r3, [r0, #4]
 8001dc0:	2308      	movs	r3, #8
 8001dc2:	18fb      	adds	r3, r7, r3
 8001dc4:	185b      	adds	r3, r3, r1
 8001dc6:	681a      	ldr	r2, [r3, #0]
 8001dc8:	685b      	ldr	r3, [r3, #4]
 8001dca:	2b00      	cmp	r3, #0
 8001dcc:	da03      	bge.n	8001dd6 <compensate_pressure+0x61a>
 8001dce:	2001      	movs	r0, #1
 8001dd0:	2100      	movs	r1, #0
 8001dd2:	1812      	adds	r2, r2, r0
 8001dd4:	414b      	adcs	r3, r1
 8001dd6:	07d9      	lsls	r1, r3, #31
 8001dd8:	0850      	lsrs	r0, r2, #1
 8001dda:	6738      	str	r0, [r7, #112]	; 0x70
 8001ddc:	6f38      	ldr	r0, [r7, #112]	; 0x70
 8001dde:	4308      	orrs	r0, r1
 8001de0:	6738      	str	r0, [r7, #112]	; 0x70
 8001de2:	105b      	asrs	r3, r3, #1
 8001de4:	677b      	str	r3, [r7, #116]	; 0x74
 8001de6:	6f38      	ldr	r0, [r7, #112]	; 0x70
 8001de8:	6f79      	ldr	r1, [r7, #116]	; 0x74
 8001dea:	2264      	movs	r2, #100	; 0x64
 8001dec:	2300      	movs	r3, #0
 8001dee:	f7fe fa4d 	bl	800028c <__aeabi_lmul>
 8001df2:	0002      	movs	r2, r0
 8001df4:	000b      	movs	r3, r1
 8001df6:	2b00      	cmp	r3, #0
 8001df8:	da03      	bge.n	8001e02 <compensate_pressure+0x646>
 8001dfa:	207f      	movs	r0, #127	; 0x7f
 8001dfc:	2100      	movs	r1, #0
 8001dfe:	1812      	adds	r2, r2, r0
 8001e00:	414b      	adcs	r3, r1
 8001e02:	0659      	lsls	r1, r3, #25
 8001e04:	09d0      	lsrs	r0, r2, #7
 8001e06:	66b8      	str	r0, [r7, #104]	; 0x68
 8001e08:	6eb8      	ldr	r0, [r7, #104]	; 0x68
 8001e0a:	4308      	orrs	r0, r1
 8001e0c:	66b8      	str	r0, [r7, #104]	; 0x68
 8001e0e:	11db      	asrs	r3, r3, #7
 8001e10:	66fb      	str	r3, [r7, #108]	; 0x6c
 8001e12:	6eba      	ldr	r2, [r7, #104]	; 0x68
 8001e14:	6efb      	ldr	r3, [r7, #108]	; 0x6c
 8001e16:	0013      	movs	r3, r2
 8001e18:	21ec      	movs	r1, #236	; 0xec
 8001e1a:	2208      	movs	r2, #8
 8001e1c:	18ba      	adds	r2, r7, r2
 8001e1e:	1852      	adds	r2, r2, r1
 8001e20:	6013      	str	r3, [r2, #0]
 8001e22:	2308      	movs	r3, #8
 8001e24:	18fb      	adds	r3, r7, r3
 8001e26:	185b      	adds	r3, r3, r1
 8001e28:	681b      	ldr	r3, [r3, #0]
 8001e2a:	20e8      	movs	r0, #232	; 0xe8
 8001e2c:	2208      	movs	r2, #8
 8001e2e:	18ba      	adds	r2, r7, r2
 8001e30:	1812      	adds	r2, r2, r0
 8001e32:	6812      	ldr	r2, [r2, #0]
 8001e34:	429a      	cmp	r2, r3
 8001e36:	d908      	bls.n	8001e4a <compensate_pressure+0x68e>
 8001e38:	2308      	movs	r3, #8
 8001e3a:	18fb      	adds	r3, r7, r3
 8001e3c:	181b      	adds	r3, r3, r0
 8001e3e:	681b      	ldr	r3, [r3, #0]
 8001e40:	2208      	movs	r2, #8
 8001e42:	18ba      	adds	r2, r7, r2
 8001e44:	1852      	adds	r2, r2, r1
 8001e46:	6013      	str	r3, [r2, #0]
 8001e48:	e020      	b.n	8001e8c <compensate_pressure+0x6d0>
 8001e4a:	20ec      	movs	r0, #236	; 0xec
 8001e4c:	2308      	movs	r3, #8
 8001e4e:	18fb      	adds	r3, r7, r3
 8001e50:	181b      	adds	r3, r3, r0
 8001e52:	681b      	ldr	r3, [r3, #0]
 8001e54:	21e4      	movs	r1, #228	; 0xe4
 8001e56:	2208      	movs	r2, #8
 8001e58:	18ba      	adds	r2, r7, r2
 8001e5a:	1852      	adds	r2, r2, r1
 8001e5c:	6812      	ldr	r2, [r2, #0]
 8001e5e:	429a      	cmp	r2, r3
 8001e60:	d214      	bcs.n	8001e8c <compensate_pressure+0x6d0>
 8001e62:	2308      	movs	r3, #8
 8001e64:	18fb      	adds	r3, r7, r3
 8001e66:	185b      	adds	r3, r3, r1
 8001e68:	681b      	ldr	r3, [r3, #0]
 8001e6a:	2208      	movs	r2, #8
 8001e6c:	18ba      	adds	r2, r7, r2
 8001e6e:	1812      	adds	r2, r2, r0
 8001e70:	6013      	str	r3, [r2, #0]
 8001e72:	e00b      	b.n	8001e8c <compensate_pressure+0x6d0>
 8001e74:	23e8      	movs	r3, #232	; 0xe8
 8001e76:	2208      	movs	r2, #8
 8001e78:	4694      	mov	ip, r2
 8001e7a:	44bc      	add	ip, r7
 8001e7c:	4463      	add	r3, ip
 8001e7e:	681b      	ldr	r3, [r3, #0]
 8001e80:	22ec      	movs	r2, #236	; 0xec
 8001e82:	2108      	movs	r1, #8
 8001e84:	468c      	mov	ip, r1
 8001e86:	44bc      	add	ip, r7
 8001e88:	4462      	add	r2, ip
 8001e8a:	6013      	str	r3, [r2, #0]
 8001e8c:	23ec      	movs	r3, #236	; 0xec
 8001e8e:	2208      	movs	r2, #8
 8001e90:	4694      	mov	ip, r2
 8001e92:	44bc      	add	ip, r7
 8001e94:	4463      	add	r3, ip
 8001e96:	681b      	ldr	r3, [r3, #0]
 8001e98:	0018      	movs	r0, r3
 8001e9a:	46bd      	mov	sp, r7
 8001e9c:	b03e      	add	sp, #248	; 0xf8
 8001e9e:	bc80      	pop	{r7}
 8001ea0:	46b8      	mov	r8, r7
 8001ea2:	bdf0      	pop	{r4, r5, r6, r7, pc}
 8001ea4:	00001fff 	.word	0x00001fff
 8001ea8:	01ffffff 	.word	0x01ffffff
 8001eac:	0007ffff 	.word	0x0007ffff

08001eb0 <compensate_humidity>:
 8001eb0:	b580      	push	{r7, lr}
 8001eb2:	b08a      	sub	sp, #40	; 0x28
 8001eb4:	af00      	add	r7, sp, #0
 8001eb6:	6078      	str	r0, [r7, #4]
 8001eb8:	6039      	str	r1, [r7, #0]
 8001eba:	23c8      	movs	r3, #200	; 0xc8
 8001ebc:	025b      	lsls	r3, r3, #9
 8001ebe:	623b      	str	r3, [r7, #32]
 8001ec0:	683b      	ldr	r3, [r7, #0]
 8001ec2:	6a5b      	ldr	r3, [r3, #36]	; 0x24
 8001ec4:	4a53      	ldr	r2, [pc, #332]	; (8002014 <compensate_humidity+0x164>)
 8001ec6:	4694      	mov	ip, r2
 8001ec8:	4463      	add	r3, ip
 8001eca:	61fb      	str	r3, [r7, #28]
 8001ecc:	687b      	ldr	r3, [r7, #4]
 8001ece:	689b      	ldr	r3, [r3, #8]
 8001ed0:	039b      	lsls	r3, r3, #14
 8001ed2:	61bb      	str	r3, [r7, #24]
 8001ed4:	683b      	ldr	r3, [r7, #0]
 8001ed6:	221e      	movs	r2, #30
 8001ed8:	5e9b      	ldrsh	r3, [r3, r2]
 8001eda:	051b      	lsls	r3, r3, #20
 8001edc:	617b      	str	r3, [r7, #20]
 8001ede:	683b      	ldr	r3, [r7, #0]
 8001ee0:	2220      	movs	r2, #32
 8001ee2:	5e9b      	ldrsh	r3, [r3, r2]
 8001ee4:	001a      	movs	r2, r3
 8001ee6:	69fb      	ldr	r3, [r7, #28]
 8001ee8:	4353      	muls	r3, r2
 8001eea:	613b      	str	r3, [r7, #16]
 8001eec:	69ba      	ldr	r2, [r7, #24]
 8001eee:	697b      	ldr	r3, [r7, #20]
 8001ef0:	1ad2      	subs	r2, r2, r3
 8001ef2:	693b      	ldr	r3, [r7, #16]
 8001ef4:	1ad3      	subs	r3, r2, r3
 8001ef6:	2280      	movs	r2, #128	; 0x80
 8001ef8:	01d2      	lsls	r2, r2, #7
 8001efa:	4694      	mov	ip, r2
 8001efc:	4463      	add	r3, ip
 8001efe:	2b00      	cmp	r3, #0
 8001f00:	da02      	bge.n	8001f08 <compensate_humidity+0x58>
 8001f02:	4a45      	ldr	r2, [pc, #276]	; (8002018 <compensate_humidity+0x168>)
 8001f04:	4694      	mov	ip, r2
 8001f06:	4463      	add	r3, ip
 8001f08:	13db      	asrs	r3, r3, #15
 8001f0a:	60fb      	str	r3, [r7, #12]
 8001f0c:	683b      	ldr	r3, [r7, #0]
 8001f0e:	2222      	movs	r2, #34	; 0x22
 8001f10:	569b      	ldrsb	r3, [r3, r2]
 8001f12:	001a      	movs	r2, r3
 8001f14:	69fb      	ldr	r3, [r7, #28]
 8001f16:	4353      	muls	r3, r2
 8001f18:	2b00      	cmp	r3, #0
 8001f1a:	da02      	bge.n	8001f22 <compensate_humidity+0x72>
 8001f1c:	4a3f      	ldr	r2, [pc, #252]	; (800201c <compensate_humidity+0x16c>)
 8001f1e:	4694      	mov	ip, r2
 8001f20:	4463      	add	r3, ip
 8001f22:	129b      	asrs	r3, r3, #10
 8001f24:	61bb      	str	r3, [r7, #24]
 8001f26:	683b      	ldr	r3, [r7, #0]
 8001f28:	7f1b      	ldrb	r3, [r3, #28]
 8001f2a:	001a      	movs	r2, r3
 8001f2c:	69fb      	ldr	r3, [r7, #28]
 8001f2e:	4353      	muls	r3, r2
 8001f30:	2b00      	cmp	r3, #0
 8001f32:	da02      	bge.n	8001f3a <compensate_humidity+0x8a>
 8001f34:	4a3a      	ldr	r2, [pc, #232]	; (8002020 <compensate_humidity+0x170>)
 8001f36:	4694      	mov	ip, r2
 8001f38:	4463      	add	r3, ip
 8001f3a:	12db      	asrs	r3, r3, #11
 8001f3c:	617b      	str	r3, [r7, #20]
 8001f3e:	697b      	ldr	r3, [r7, #20]
 8001f40:	2280      	movs	r2, #128	; 0x80
 8001f42:	0212      	lsls	r2, r2, #8
 8001f44:	4694      	mov	ip, r2
 8001f46:	4463      	add	r3, ip
 8001f48:	69ba      	ldr	r2, [r7, #24]
 8001f4a:	4353      	muls	r3, r2
 8001f4c:	2b00      	cmp	r3, #0
 8001f4e:	da02      	bge.n	8001f56 <compensate_humidity+0xa6>
 8001f50:	4a32      	ldr	r2, [pc, #200]	; (800201c <compensate_humidity+0x16c>)
 8001f52:	4694      	mov	ip, r2
 8001f54:	4463      	add	r3, ip
 8001f56:	129b      	asrs	r3, r3, #10
 8001f58:	2280      	movs	r2, #128	; 0x80
 8001f5a:	0392      	lsls	r2, r2, #14
 8001f5c:	4694      	mov	ip, r2
 8001f5e:	4463      	add	r3, ip
 8001f60:	613b      	str	r3, [r7, #16]
 8001f62:	683b      	ldr	r3, [r7, #0]
 8001f64:	221a      	movs	r2, #26
 8001f66:	5e9b      	ldrsh	r3, [r3, r2]
 8001f68:	001a      	movs	r2, r3
 8001f6a:	693b      	ldr	r3, [r7, #16]
 8001f6c:	4353      	muls	r3, r2
 8001f6e:	2280      	movs	r2, #128	; 0x80
 8001f70:	0192      	lsls	r2, r2, #6
 8001f72:	4694      	mov	ip, r2
 8001f74:	4463      	add	r3, ip
 8001f76:	2b00      	cmp	r3, #0
 8001f78:	da02      	bge.n	8001f80 <compensate_humidity+0xd0>
 8001f7a:	4a2a      	ldr	r2, [pc, #168]	; (8002024 <compensate_humidity+0x174>)
 8001f7c:	4694      	mov	ip, r2
 8001f7e:	4463      	add	r3, ip
 8001f80:	139b      	asrs	r3, r3, #14
 8001f82:	61bb      	str	r3, [r7, #24]
 8001f84:	68fb      	ldr	r3, [r7, #12]
 8001f86:	69ba      	ldr	r2, [r7, #24]
 8001f88:	4353      	muls	r3, r2
 8001f8a:	617b      	str	r3, [r7, #20]
 8001f8c:	697b      	ldr	r3, [r7, #20]
 8001f8e:	2b00      	cmp	r3, #0
 8001f90:	da02      	bge.n	8001f98 <compensate_humidity+0xe8>
 8001f92:	4a21      	ldr	r2, [pc, #132]	; (8002018 <compensate_humidity+0x168>)
 8001f94:	4694      	mov	ip, r2
 8001f96:	4463      	add	r3, ip
 8001f98:	13db      	asrs	r3, r3, #15
 8001f9a:	001a      	movs	r2, r3
 8001f9c:	697b      	ldr	r3, [r7, #20]
 8001f9e:	2b00      	cmp	r3, #0
 8001fa0:	da02      	bge.n	8001fa8 <compensate_humidity+0xf8>
 8001fa2:	491d      	ldr	r1, [pc, #116]	; (8002018 <compensate_humidity+0x168>)
 8001fa4:	468c      	mov	ip, r1
 8001fa6:	4463      	add	r3, ip
 8001fa8:	13db      	asrs	r3, r3, #15
 8001faa:	4353      	muls	r3, r2
 8001fac:	2b00      	cmp	r3, #0
 8001fae:	da00      	bge.n	8001fb2 <compensate_humidity+0x102>
 8001fb0:	337f      	adds	r3, #127	; 0x7f
 8001fb2:	11db      	asrs	r3, r3, #7
 8001fb4:	613b      	str	r3, [r7, #16]
 8001fb6:	683b      	ldr	r3, [r7, #0]
 8001fb8:	7e1b      	ldrb	r3, [r3, #24]
 8001fba:	001a      	movs	r2, r3
 8001fbc:	693b      	ldr	r3, [r7, #16]
 8001fbe:	4353      	muls	r3, r2
 8001fc0:	2b00      	cmp	r3, #0
 8001fc2:	da00      	bge.n	8001fc6 <compensate_humidity+0x116>
 8001fc4:	330f      	adds	r3, #15
 8001fc6:	111b      	asrs	r3, r3, #4
 8001fc8:	425b      	negs	r3, r3
 8001fca:	001a      	movs	r2, r3
 8001fcc:	697b      	ldr	r3, [r7, #20]
 8001fce:	189b      	adds	r3, r3, r2
 8001fd0:	60fb      	str	r3, [r7, #12]
 8001fd2:	68fb      	ldr	r3, [r7, #12]
 8001fd4:	2b00      	cmp	r3, #0
 8001fd6:	da00      	bge.n	8001fda <compensate_humidity+0x12a>
 8001fd8:	2300      	movs	r3, #0
 8001fda:	60fb      	str	r3, [r7, #12]
 8001fdc:	68fb      	ldr	r3, [r7, #12]
 8001fde:	22c8      	movs	r2, #200	; 0xc8
 8001fe0:	0552      	lsls	r2, r2, #21
 8001fe2:	4293      	cmp	r3, r2
 8001fe4:	dd01      	ble.n	8001fea <compensate_humidity+0x13a>
 8001fe6:	23c8      	movs	r3, #200	; 0xc8
 8001fe8:	055b      	lsls	r3, r3, #21
 8001fea:	60fb      	str	r3, [r7, #12]
 8001fec:	68fb      	ldr	r3, [r7, #12]
 8001fee:	2b00      	cmp	r3, #0
 8001ff0:	da02      	bge.n	8001ff8 <compensate_humidity+0x148>
 8001ff2:	4a0d      	ldr	r2, [pc, #52]	; (8002028 <compensate_humidity+0x178>)
 8001ff4:	4694      	mov	ip, r2
 8001ff6:	4463      	add	r3, ip
 8001ff8:	131b      	asrs	r3, r3, #12
 8001ffa:	627b      	str	r3, [r7, #36]	; 0x24
 8001ffc:	6a7b      	ldr	r3, [r7, #36]	; 0x24
 8001ffe:	6a3a      	ldr	r2, [r7, #32]
 8002000:	429a      	cmp	r2, r3
 8002002:	d201      	bcs.n	8002008 <compensate_humidity+0x158>
 8002004:	6a3b      	ldr	r3, [r7, #32]
 8002006:	627b      	str	r3, [r7, #36]	; 0x24
 8002008:	6a7b      	ldr	r3, [r7, #36]	; 0x24
 800200a:	0018      	movs	r0, r3
 800200c:	46bd      	mov	sp, r7
 800200e:	b00a      	add	sp, #40	; 0x28
 8002010:	bd80      	pop	{r7, pc}
 8002012:	46c0      	nop			; (mov r8, r8)
 8002014:	fffed400 	.word	0xfffed400
 8002018:	00007fff 	.word	0x00007fff
 800201c:	000003ff 	.word	0x000003ff
 8002020:	000007ff 	.word	0x000007ff
 8002024:	00003fff 	.word	0x00003fff
 8002028:	00000fff 	.word	0x00000fff

0800202c <get_calib_data>:
 800202c:	b5f0      	push	{r4, r5, r6, r7, lr}
 800202e:	b08b      	sub	sp, #44	; 0x2c
 8002030:	af00      	add	r7, sp, #0
 8002032:	6078      	str	r0, [r7, #4]
 8002034:	2626      	movs	r6, #38	; 0x26
 8002036:	19bb      	adds	r3, r7, r6
 8002038:	2288      	movs	r2, #136	; 0x88
 800203a:	701a      	strb	r2, [r3, #0]
 800203c:	250c      	movs	r5, #12
 800203e:	197b      	adds	r3, r7, r5
 8002040:	2200      	movs	r2, #0
 8002042:	601a      	str	r2, [r3, #0]
 8002044:	3304      	adds	r3, #4
 8002046:	2216      	movs	r2, #22
 8002048:	2100      	movs	r1, #0
 800204a:	0018      	movs	r0, r3
 800204c:	f005 ffcf 	bl	8007fee <memset>
 8002050:	2427      	movs	r4, #39	; 0x27
 8002052:	193c      	adds	r4, r7, r4
 8002054:	687a      	ldr	r2, [r7, #4]
 8002056:	1979      	adds	r1, r7, r5
 8002058:	19bb      	adds	r3, r7, r6
 800205a:	7818      	ldrb	r0, [r3, #0]
 800205c:	0013      	movs	r3, r2
 800205e:	221a      	movs	r2, #26
 8002060:	f7fe fe22 	bl	8000ca8 <bme280_get_regs>
 8002064:	0003      	movs	r3, r0
 8002066:	7023      	strb	r3, [r4, #0]
 8002068:	2427      	movs	r4, #39	; 0x27
 800206a:	193b      	adds	r3, r7, r4
 800206c:	781b      	ldrb	r3, [r3, #0]
 800206e:	b25b      	sxtb	r3, r3
 8002070:	2b00      	cmp	r3, #0
 8002072:	d11f      	bne.n	80020b4 <get_calib_data+0x88>
 8002074:	687a      	ldr	r2, [r7, #4]
 8002076:	197b      	adds	r3, r7, r5
 8002078:	0011      	movs	r1, r2
 800207a:	0018      	movs	r0, r3
 800207c:	f000 f85a 	bl	8002134 <parse_temp_press_calib_data>
 8002080:	19bb      	adds	r3, r7, r6
 8002082:	22e1      	movs	r2, #225	; 0xe1
 8002084:	701a      	strb	r2, [r3, #0]
 8002086:	193c      	adds	r4, r7, r4
 8002088:	687a      	ldr	r2, [r7, #4]
 800208a:	1979      	adds	r1, r7, r5
 800208c:	19bb      	adds	r3, r7, r6
 800208e:	7818      	ldrb	r0, [r3, #0]
 8002090:	0013      	movs	r3, r2
 8002092:	2207      	movs	r2, #7
 8002094:	f7fe fe08 	bl	8000ca8 <bme280_get_regs>
 8002098:	0003      	movs	r3, r0
 800209a:	7023      	strb	r3, [r4, #0]
 800209c:	2427      	movs	r4, #39	; 0x27
 800209e:	193b      	adds	r3, r7, r4
 80020a0:	781b      	ldrb	r3, [r3, #0]
 80020a2:	b25b      	sxtb	r3, r3
 80020a4:	2b00      	cmp	r3, #0
 80020a6:	d105      	bne.n	80020b4 <get_calib_data+0x88>
 80020a8:	687a      	ldr	r2, [r7, #4]
 80020aa:	197b      	adds	r3, r7, r5
 80020ac:	0011      	movs	r1, r2
 80020ae:	0018      	movs	r0, r3
 80020b0:	f000 f8ed 	bl	800228e <parse_humidity_calib_data>
 80020b4:	2327      	movs	r3, #39	; 0x27
 80020b6:	18fb      	adds	r3, r7, r3
 80020b8:	781b      	ldrb	r3, [r3, #0]
 80020ba:	b25b      	sxtb	r3, r3
 80020bc:	0018      	movs	r0, r3
 80020be:	46bd      	mov	sp, r7
 80020c0:	b00b      	add	sp, #44	; 0x2c
 80020c2:	bdf0      	pop	{r4, r5, r6, r7, pc}

080020c4 <interleave_reg_addr>:
 80020c4:	b580      	push	{r7, lr}
 80020c6:	b086      	sub	sp, #24
 80020c8:	af00      	add	r7, sp, #0
 80020ca:	60f8      	str	r0, [r7, #12]
 80020cc:	60b9      	str	r1, [r7, #8]
 80020ce:	607a      	str	r2, [r7, #4]
 80020d0:	001a      	movs	r2, r3
 80020d2:	1cfb      	adds	r3, r7, #3
 80020d4:	701a      	strb	r2, [r3, #0]
 80020d6:	2317      	movs	r3, #23
 80020d8:	18fb      	adds	r3, r7, r3
 80020da:	2201      	movs	r2, #1
 80020dc:	701a      	strb	r2, [r3, #0]
 80020de:	e01d      	b.n	800211c <interleave_reg_addr+0x58>
 80020e0:	2017      	movs	r0, #23
 80020e2:	183b      	adds	r3, r7, r0
 80020e4:	781b      	ldrb	r3, [r3, #0]
 80020e6:	68fa      	ldr	r2, [r7, #12]
 80020e8:	18d2      	adds	r2, r2, r3
 80020ea:	183b      	adds	r3, r7, r0
 80020ec:	781b      	ldrb	r3, [r3, #0]
 80020ee:	005b      	lsls	r3, r3, #1
 80020f0:	3b01      	subs	r3, #1
 80020f2:	68b9      	ldr	r1, [r7, #8]
 80020f4:	18cb      	adds	r3, r1, r3
 80020f6:	7812      	ldrb	r2, [r2, #0]
 80020f8:	701a      	strb	r2, [r3, #0]
 80020fa:	183b      	adds	r3, r7, r0
 80020fc:	781b      	ldrb	r3, [r3, #0]
 80020fe:	687a      	ldr	r2, [r7, #4]
 8002100:	18d2      	adds	r2, r2, r3
 8002102:	183b      	adds	r3, r7, r0
 8002104:	781b      	ldrb	r3, [r3, #0]
 8002106:	005b      	lsls	r3, r3, #1
 8002108:	0019      	movs	r1, r3
 800210a:	68bb      	ldr	r3, [r7, #8]
 800210c:	185b      	adds	r3, r3, r1
 800210e:	7812      	ldrb	r2, [r2, #0]
 8002110:	701a      	strb	r2, [r3, #0]
 8002112:	183b      	adds	r3, r7, r0
 8002114:	781a      	ldrb	r2, [r3, #0]
 8002116:	183b      	adds	r3, r7, r0
 8002118:	3201      	adds	r2, #1
 800211a:	701a      	strb	r2, [r3, #0]
 800211c:	2317      	movs	r3, #23
 800211e:	18fa      	adds	r2, r7, r3
 8002120:	1cfb      	adds	r3, r7, #3
 8002122:	7812      	ldrb	r2, [r2, #0]
 8002124:	781b      	ldrb	r3, [r3, #0]
 8002126:	429a      	cmp	r2, r3
 8002128:	d3da      	bcc.n	80020e0 <interleave_reg_addr+0x1c>
 800212a:	46c0      	nop			; (mov r8, r8)
 800212c:	46c0      	nop			; (mov r8, r8)
 800212e:	46bd      	mov	sp, r7
 8002130:	b006      	add	sp, #24
 8002132:	bd80      	pop	{r7, pc}

08002134 <parse_temp_press_calib_data>:
 8002134:	b580      	push	{r7, lr}
 8002136:	b084      	sub	sp, #16
 8002138:	af00      	add	r7, sp, #0
 800213a:	6078      	str	r0, [r7, #4]
 800213c:	6039      	str	r1, [r7, #0]
 800213e:	683b      	ldr	r3, [r7, #0]
 8002140:	3310      	adds	r3, #16
 8002142:	60fb      	str	r3, [r7, #12]
 8002144:	687b      	ldr	r3, [r7, #4]
 8002146:	3301      	adds	r3, #1
 8002148:	781b      	ldrb	r3, [r3, #0]
 800214a:	021b      	lsls	r3, r3, #8
 800214c:	b21a      	sxth	r2, r3
 800214e:	687b      	ldr	r3, [r7, #4]
 8002150:	781b      	ldrb	r3, [r3, #0]
 8002152:	b21b      	sxth	r3, r3
 8002154:	4313      	orrs	r3, r2
 8002156:	b21b      	sxth	r3, r3
 8002158:	b29a      	uxth	r2, r3
 800215a:	68fb      	ldr	r3, [r7, #12]
 800215c:	801a      	strh	r2, [r3, #0]
 800215e:	687b      	ldr	r3, [r7, #4]
 8002160:	3303      	adds	r3, #3
 8002162:	781b      	ldrb	r3, [r3, #0]
 8002164:	021b      	lsls	r3, r3, #8
 8002166:	b21a      	sxth	r2, r3
 8002168:	687b      	ldr	r3, [r7, #4]
 800216a:	3302      	adds	r3, #2
 800216c:	781b      	ldrb	r3, [r3, #0]
 800216e:	b21b      	sxth	r3, r3
 8002170:	4313      	orrs	r3, r2
 8002172:	b21a      	sxth	r2, r3
 8002174:	68fb      	ldr	r3, [r7, #12]
 8002176:	805a      	strh	r2, [r3, #2]
 8002178:	687b      	ldr	r3, [r7, #4]
 800217a:	3305      	adds	r3, #5
 800217c:	781b      	ldrb	r3, [r3, #0]
 800217e:	021b      	lsls	r3, r3, #8
 8002180:	b21a      	sxth	r2, r3
 8002182:	687b      	ldr	r3, [r7, #4]
 8002184:	3304      	adds	r3, #4
 8002186:	781b      	ldrb	r3, [r3, #0]
 8002188:	b21b      	sxth	r3, r3
 800218a:	4313      	orrs	r3, r2
 800218c:	b21a      	sxth	r2, r3
 800218e:	68fb      	ldr	r3, [r7, #12]
 8002190:	809a      	strh	r2, [r3, #4]
 8002192:	687b      	ldr	r3, [r7, #4]
 8002194:	3307      	adds	r3, #7
 8002196:	781b      	ldrb	r3, [r3, #0]
 8002198:	021b      	lsls	r3, r3, #8
 800219a:	b21a      	sxth	r2, r3
 800219c:	687b      	ldr	r3, [r7, #4]
 800219e:	3306      	adds	r3, #6
 80021a0:	781b      	ldrb	r3, [r3, #0]
 80021a2:	b21b      	sxth	r3, r3
 80021a4:	4313      	orrs	r3, r2
 80021a6:	b21b      	sxth	r3, r3
 80021a8:	b29a      	uxth	r2, r3
 80021aa:	68fb      	ldr	r3, [r7, #12]
 80021ac:	80da      	strh	r2, [r3, #6]
 80021ae:	687b      	ldr	r3, [r7, #4]
 80021b0:	3309      	adds	r3, #9
 80021b2:	781b      	ldrb	r3, [r3, #0]
 80021b4:	021b      	lsls	r3, r3, #8
 80021b6:	b21a      	sxth	r2, r3
 80021b8:	687b      	ldr	r3, [r7, #4]
 80021ba:	3308      	adds	r3, #8
 80021bc:	781b      	ldrb	r3, [r3, #0]
 80021be:	b21b      	sxth	r3, r3
 80021c0:	4313      	orrs	r3, r2
 80021c2:	b21a      	sxth	r2, r3
 80021c4:	68fb      	ldr	r3, [r7, #12]
 80021c6:	811a      	strh	r2, [r3, #8]
 80021c8:	687b      	ldr	r3, [r7, #4]
 80021ca:	330b      	adds	r3, #11
 80021cc:	781b      	ldrb	r3, [r3, #0]
 80021ce:	021b      	lsls	r3, r3, #8
 80021d0:	b21a      	sxth	r2, r3
 80021d2:	687b      	ldr	r3, [r7, #4]
 80021d4:	330a      	adds	r3, #10
 80021d6:	781b      	ldrb	r3, [r3, #0]
 80021d8:	b21b      	sxth	r3, r3
 80021da:	4313      	orrs	r3, r2
 80021dc:	b21a      	sxth	r2, r3
 80021de:	68fb      	ldr	r3, [r7, #12]
 80021e0:	815a      	strh	r2, [r3, #10]
 80021e2:	687b      	ldr	r3, [r7, #4]
 80021e4:	330d      	adds	r3, #13
 80021e6:	781b      	ldrb	r3, [r3, #0]
 80021e8:	021b      	lsls	r3, r3, #8
 80021ea:	b21a      	sxth	r2, r3
 80021ec:	687b      	ldr	r3, [r7, #4]
 80021ee:	330c      	adds	r3, #12
 80021f0:	781b      	ldrb	r3, [r3, #0]
 80021f2:	b21b      	sxth	r3, r3
 80021f4:	4313      	orrs	r3, r2
 80021f6:	b21a      	sxth	r2, r3
 80021f8:	68fb      	ldr	r3, [r7, #12]
 80021fa:	819a      	strh	r2, [r3, #12]
 80021fc:	687b      	ldr	r3, [r7, #4]
 80021fe:	330f      	adds	r3, #15
 8002200:	781b      	ldrb	r3, [r3, #0]
 8002202:	021b      	lsls	r3, r3, #8
 8002204:	b21a      	sxth	r2, r3
 8002206:	687b      	ldr	r3, [r7, #4]
 8002208:	330e      	adds	r3, #14
 800220a:	781b      	ldrb	r3, [r3, #0]
 800220c:	b21b      	sxth	r3, r3
 800220e:	4313      	orrs	r3, r2
 8002210:	b21a      	sxth	r2, r3
 8002212:	68fb      	ldr	r3, [r7, #12]
 8002214:	81da      	strh	r2, [r3, #14]
 8002216:	687b      	ldr	r3, [r7, #4]
 8002218:	3311      	adds	r3, #17
 800221a:	781b      	ldrb	r3, [r3, #0]
 800221c:	021b      	lsls	r3, r3, #8
 800221e:	b21a      	sxth	r2, r3
 8002220:	687b      	ldr	r3, [r7, #4]
 8002222:	3310      	adds	r3, #16
 8002224:	781b      	ldrb	r3, [r3, #0]
 8002226:	b21b      	sxth	r3, r3
 8002228:	4313      	orrs	r3, r2
 800222a:	b21a      	sxth	r2, r3
 800222c:	68fb      	ldr	r3, [r7, #12]
 800222e:	821a      	strh	r2, [r3, #16]
 8002230:	687b      	ldr	r3, [r7, #4]
 8002232:	3313      	adds	r3, #19
 8002234:	781b      	ldrb	r3, [r3, #0]
 8002236:	021b      	lsls	r3, r3, #8
 8002238:	b21a      	sxth	r2, r3
 800223a:	687b      	ldr	r3, [r7, #4]
 800223c:	3312      	adds	r3, #18
 800223e:	781b      	ldrb	r3, [r3, #0]
 8002240:	b21b      	sxth	r3, r3
 8002242:	4313      	orrs	r3, r2
 8002244:	b21a      	sxth	r2, r3
 8002246:	68fb      	ldr	r3, [r7, #12]
 8002248:	825a      	strh	r2, [r3, #18]
 800224a:	687b      	ldr	r3, [r7, #4]
 800224c:	3315      	adds	r3, #21
 800224e:	781b      	ldrb	r3, [r3, #0]
 8002250:	021b      	lsls	r3, r3, #8
 8002252:	b21a      	sxth	r2, r3
 8002254:	687b      	ldr	r3, [r7, #4]
 8002256:	3314      	adds	r3, #20
 8002258:	781b      	ldrb	r3, [r3, #0]
 800225a:	b21b      	sxth	r3, r3
 800225c:	4313      	orrs	r3, r2
 800225e:	b21a      	sxth	r2, r3
 8002260:	68fb      	ldr	r3, [r7, #12]
 8002262:	829a      	strh	r2, [r3, #20]
 8002264:	687b      	ldr	r3, [r7, #4]
 8002266:	3317      	adds	r3, #23
 8002268:	781b      	ldrb	r3, [r3, #0]
 800226a:	021b      	lsls	r3, r3, #8
 800226c:	b21a      	sxth	r2, r3
 800226e:	687b      	ldr	r3, [r7, #4]
 8002270:	3316      	adds	r3, #22
 8002272:	781b      	ldrb	r3, [r3, #0]
 8002274:	b21b      	sxth	r3, r3
 8002276:	4313      	orrs	r3, r2
 8002278:	b21a      	sxth	r2, r3
 800227a:	68fb      	ldr	r3, [r7, #12]
 800227c:	82da      	strh	r2, [r3, #22]
 800227e:	687b      	ldr	r3, [r7, #4]
 8002280:	7e5a      	ldrb	r2, [r3, #25]
 8002282:	68fb      	ldr	r3, [r7, #12]
 8002284:	761a      	strb	r2, [r3, #24]
 8002286:	46c0      	nop			; (mov r8, r8)
 8002288:	46bd      	mov	sp, r7
 800228a:	b004      	add	sp, #16
 800228c:	bd80      	pop	{r7, pc}

0800228e <parse_humidity_calib_data>:
 800228e:	b590      	push	{r4, r7, lr}
 8002290:	b087      	sub	sp, #28
 8002292:	af00      	add	r7, sp, #0
 8002294:	6078      	str	r0, [r7, #4]
 8002296:	6039      	str	r1, [r7, #0]
 8002298:	683b      	ldr	r3, [r7, #0]
 800229a:	3310      	adds	r3, #16
 800229c:	617b      	str	r3, [r7, #20]
 800229e:	687b      	ldr	r3, [r7, #4]
 80022a0:	3301      	adds	r3, #1
 80022a2:	781b      	ldrb	r3, [r3, #0]
 80022a4:	021b      	lsls	r3, r3, #8
 80022a6:	b21a      	sxth	r2, r3
 80022a8:	687b      	ldr	r3, [r7, #4]
 80022aa:	781b      	ldrb	r3, [r3, #0]
 80022ac:	b21b      	sxth	r3, r3
 80022ae:	4313      	orrs	r3, r2
 80022b0:	b21a      	sxth	r2, r3
 80022b2:	697b      	ldr	r3, [r7, #20]
 80022b4:	835a      	strh	r2, [r3, #26]
 80022b6:	687b      	ldr	r3, [r7, #4]
 80022b8:	789a      	ldrb	r2, [r3, #2]
 80022ba:	697b      	ldr	r3, [r7, #20]
 80022bc:	771a      	strb	r2, [r3, #28]
 80022be:	687b      	ldr	r3, [r7, #4]
 80022c0:	3303      	adds	r3, #3
 80022c2:	781b      	ldrb	r3, [r3, #0]
 80022c4:	b25b      	sxtb	r3, r3
 80022c6:	b29b      	uxth	r3, r3
 80022c8:	011b      	lsls	r3, r3, #4
 80022ca:	b29a      	uxth	r2, r3
 80022cc:	2012      	movs	r0, #18
 80022ce:	183b      	adds	r3, r7, r0
 80022d0:	801a      	strh	r2, [r3, #0]
 80022d2:	687b      	ldr	r3, [r7, #4]
 80022d4:	3304      	adds	r3, #4
 80022d6:	781b      	ldrb	r3, [r3, #0]
 80022d8:	b21a      	sxth	r2, r3
 80022da:	2410      	movs	r4, #16
 80022dc:	193b      	adds	r3, r7, r4
 80022de:	210f      	movs	r1, #15
 80022e0:	400a      	ands	r2, r1
 80022e2:	801a      	strh	r2, [r3, #0]
 80022e4:	183a      	adds	r2, r7, r0
 80022e6:	193b      	adds	r3, r7, r4
 80022e8:	8812      	ldrh	r2, [r2, #0]
 80022ea:	881b      	ldrh	r3, [r3, #0]
 80022ec:	4313      	orrs	r3, r2
 80022ee:	b21a      	sxth	r2, r3
 80022f0:	697b      	ldr	r3, [r7, #20]
 80022f2:	83da      	strh	r2, [r3, #30]
 80022f4:	687b      	ldr	r3, [r7, #4]
 80022f6:	3305      	adds	r3, #5
 80022f8:	781b      	ldrb	r3, [r3, #0]
 80022fa:	b25b      	sxtb	r3, r3
 80022fc:	b29b      	uxth	r3, r3
 80022fe:	011b      	lsls	r3, r3, #4
 8002300:	b29a      	uxth	r2, r3
 8002302:	210e      	movs	r1, #14
 8002304:	187b      	adds	r3, r7, r1
 8002306:	801a      	strh	r2, [r3, #0]
 8002308:	687b      	ldr	r3, [r7, #4]
 800230a:	3304      	adds	r3, #4
 800230c:	781b      	ldrb	r3, [r3, #0]
 800230e:	091b      	lsrs	r3, r3, #4
 8002310:	b2da      	uxtb	r2, r3
 8002312:	200c      	movs	r0, #12
 8002314:	183b      	adds	r3, r7, r0
 8002316:	801a      	strh	r2, [r3, #0]
 8002318:	187a      	adds	r2, r7, r1
 800231a:	183b      	adds	r3, r7, r0
 800231c:	8812      	ldrh	r2, [r2, #0]
 800231e:	881b      	ldrh	r3, [r3, #0]
 8002320:	4313      	orrs	r3, r2
 8002322:	b21a      	sxth	r2, r3
 8002324:	697b      	ldr	r3, [r7, #20]
 8002326:	841a      	strh	r2, [r3, #32]
 8002328:	687b      	ldr	r3, [r7, #4]
 800232a:	3306      	adds	r3, #6
 800232c:	781b      	ldrb	r3, [r3, #0]
 800232e:	b259      	sxtb	r1, r3
 8002330:	697b      	ldr	r3, [r7, #20]
 8002332:	2222      	movs	r2, #34	; 0x22
 8002334:	5499      	strb	r1, [r3, r2]
 8002336:	46c0      	nop			; (mov r8, r8)
 8002338:	46bd      	mov	sp, r7
 800233a:	b007      	add	sp, #28
 800233c:	bd90      	pop	{r4, r7, pc}

0800233e <are_settings_changed>:
 800233e:	b580      	push	{r7, lr}
 8002340:	b084      	sub	sp, #16
 8002342:	af00      	add	r7, sp, #0
 8002344:	0002      	movs	r2, r0
 8002346:	1dfb      	adds	r3, r7, #7
 8002348:	701a      	strb	r2, [r3, #0]
 800234a:	1dbb      	adds	r3, r7, #6
 800234c:	1c0a      	adds	r2, r1, #0
 800234e:	701a      	strb	r2, [r3, #0]
 8002350:	210f      	movs	r1, #15
 8002352:	187b      	adds	r3, r7, r1
 8002354:	2200      	movs	r2, #0
 8002356:	701a      	strb	r2, [r3, #0]
 8002358:	1dfb      	adds	r3, r7, #7
 800235a:	1dba      	adds	r2, r7, #6
 800235c:	781b      	ldrb	r3, [r3, #0]
 800235e:	7812      	ldrb	r2, [r2, #0]
 8002360:	4013      	ands	r3, r2
 8002362:	b2db      	uxtb	r3, r3
 8002364:	2b00      	cmp	r3, #0
 8002366:	d003      	beq.n	8002370 <are_settings_changed+0x32>
 8002368:	187b      	adds	r3, r7, r1
 800236a:	2201      	movs	r2, #1
 800236c:	701a      	strb	r2, [r3, #0]
 800236e:	e003      	b.n	8002378 <are_settings_changed+0x3a>
 8002370:	230f      	movs	r3, #15
 8002372:	18fb      	adds	r3, r7, r3
 8002374:	2200      	movs	r2, #0
 8002376:	701a      	strb	r2, [r3, #0]
 8002378:	230f      	movs	r3, #15
 800237a:	18fb      	adds	r3, r7, r3
 800237c:	781b      	ldrb	r3, [r3, #0]
 800237e:	0018      	movs	r0, r3
 8002380:	46bd      	mov	sp, r7
 8002382:	b004      	add	sp, #16
 8002384:	bd80      	pop	{r7, pc}

08002386 <null_ptr_check>:
 8002386:	b580      	push	{r7, lr}
 8002388:	b084      	sub	sp, #16
 800238a:	af00      	add	r7, sp, #0
 800238c:	6078      	str	r0, [r7, #4]
 800238e:	687b      	ldr	r3, [r7, #4]
 8002390:	2b00      	cmp	r3, #0
 8002392:	d00b      	beq.n	80023ac <null_ptr_check+0x26>
 8002394:	687b      	ldr	r3, [r7, #4]
 8002396:	685b      	ldr	r3, [r3, #4]
 8002398:	2b00      	cmp	r3, #0
 800239a:	d007      	beq.n	80023ac <null_ptr_check+0x26>
 800239c:	687b      	ldr	r3, [r7, #4]
 800239e:	689b      	ldr	r3, [r3, #8]
 80023a0:	2b00      	cmp	r3, #0
 80023a2:	d003      	beq.n	80023ac <null_ptr_check+0x26>
 80023a4:	687b      	ldr	r3, [r7, #4]
 80023a6:	68db      	ldr	r3, [r3, #12]
 80023a8:	2b00      	cmp	r3, #0
 80023aa:	d104      	bne.n	80023b6 <null_ptr_check+0x30>
 80023ac:	230f      	movs	r3, #15
 80023ae:	18fb      	adds	r3, r7, r3
 80023b0:	22ff      	movs	r2, #255	; 0xff
 80023b2:	701a      	strb	r2, [r3, #0]
 80023b4:	e003      	b.n	80023be <null_ptr_check+0x38>
 80023b6:	230f      	movs	r3, #15
 80023b8:	18fb      	adds	r3, r7, r3
 80023ba:	2200      	movs	r2, #0
 80023bc:	701a      	strb	r2, [r3, #0]
 80023be:	230f      	movs	r3, #15
 80023c0:	18fb      	adds	r3, r7, r3
 80023c2:	781b      	ldrb	r3, [r3, #0]
 80023c4:	b25b      	sxtb	r3, r3
 80023c6:	0018      	movs	r0, r3
 80023c8:	46bd      	mov	sp, r7
 80023ca:	b004      	add	sp, #16
 80023cc:	bd80      	pop	{r7, pc}
	...

080023d0 <main>:
/**
  * @brief  The application entry point.
  * @retval int
  */
int main(void)
{
 80023d0:	b580      	push	{r7, lr}
 80023d2:	af00      	add	r7, sp, #0
  /* USER CODE END 1 */

  /* MCU Configuration--------------------------------------------------------*/

  /* Reset of all peripherals, Initializes the Flash interface and the Systick. */
  HAL_Init();
 80023d4:	f000 ff3a 	bl	800324c <HAL_Init>

  /* USER CODE BEGIN Init */
  //Reset sensor data.
  //memory allocation
  intTemp = (int*)calloc(10, sizeof(int));
 80023d8:	2104      	movs	r1, #4
 80023da:	200a      	movs	r0, #10
 80023dc:	f005 fdb6 	bl	8007f4c <calloc>
 80023e0:	0003      	movs	r3, r0
 80023e2:	001a      	movs	r2, r3
 80023e4:	4b20      	ldr	r3, [pc, #128]	; (8002468 <main+0x98>)
 80023e6:	601a      	str	r2, [r3, #0]
  intHum = (int*)calloc(10, sizeof(int));
 80023e8:	2104      	movs	r1, #4
 80023ea:	200a      	movs	r0, #10
 80023ec:	f005 fdae 	bl	8007f4c <calloc>
 80023f0:	0003      	movs	r3, r0
 80023f2:	001a      	movs	r2, r3
 80023f4:	4b1d      	ldr	r3, [pc, #116]	; (800246c <main+0x9c>)
 80023f6:	601a      	str	r2, [r3, #0]
  intPress = (int*)calloc(10, sizeof(int));
 80023f8:	2104      	movs	r1, #4
 80023fa:	200a      	movs	r0, #10
 80023fc:	f005 fda6 	bl	8007f4c <calloc>
 8002400:	0003      	movs	r3, r0
 8002402:	001a      	movs	r2, r3
 8002404:	4b1a      	ldr	r3, [pc, #104]	; (8002470 <main+0xa0>)
 8002406:	601a      	str	r2, [r3, #0]
  //senDT = calloc(10, sizeof(*senDT));
  intError = 0;
 8002408:	4b1a      	ldr	r3, [pc, #104]	; (8002474 <main+0xa4>)
 800240a:	2200      	movs	r2, #0
 800240c:	601a      	str	r2, [r3, #0]
   *
   */
  /* USER CODE END Init */

  /* Configure the system clock */
  SystemClock_Config();
 800240e:	f000 f845 	bl	800249c <SystemClock_Config>
  /* USER CODE BEGIN SysInit */

  /* USER CODE END SysInit */

  /* Initialize all configured peripherals */
  MX_GPIO_Init();
 8002412:	f000 f987 	bl	8002724 <MX_GPIO_Init>
  MX_USART2_UART_Init();
 8002416:	f000 f955 	bl	80026c4 <MX_USART2_UART_Init>
  MX_I2C1_Init();
 800241a:	f000 f8a3 	bl	8002564 <MX_I2C1_Init>
  MX_I2C2_Init();
 800241e:	f000 f8e1 	bl	80025e4 <MX_I2C2_Init>
  MX_USART1_UART_Init();
 8002422:	f000 f91f 	bl	8002664 <MX_USART1_UART_Init>
  /* USER CODE BEGIN 2 */

  /* USER CODE END 2 */

  /* Init scheduler */
  osKernelInitialize();
 8002426:	f003 fb75 	bl	8005b14 <osKernelInitialize>
  /* add queues, ... */
  /* USER CODE END RTOS_QUEUES */

  /* Create the thread(s) */
  /* creation of sendESPtask */
  sendESPtaskHandle = osThreadNew(sendESP, NULL, &sendESPtask_attributes);
 800242a:	4a13      	ldr	r2, [pc, #76]	; (8002478 <main+0xa8>)
 800242c:	4b13      	ldr	r3, [pc, #76]	; (800247c <main+0xac>)
 800242e:	2100      	movs	r1, #0
 8002430:	0018      	movs	r0, r3
 8002432:	f003 fbc9 	bl	8005bc8 <osThreadNew>
 8002436:	0002      	movs	r2, r0
 8002438:	4b11      	ldr	r3, [pc, #68]	; (8002480 <main+0xb0>)
 800243a:	601a      	str	r2, [r3, #0]

  /* creation of readDataTask */
  readDataTaskHandle = osThreadNew(readData, NULL, &readDataTask_attributes);
 800243c:	4a11      	ldr	r2, [pc, #68]	; (8002484 <main+0xb4>)
 800243e:	4b12      	ldr	r3, [pc, #72]	; (8002488 <main+0xb8>)
 8002440:	2100      	movs	r1, #0
 8002442:	0018      	movs	r0, r3
 8002444:	f003 fbc0 	bl	8005bc8 <osThreadNew>
 8002448:	0002      	movs	r2, r0
 800244a:	4b10      	ldr	r3, [pc, #64]	; (800248c <main+0xbc>)
 800244c:	601a      	str	r2, [r3, #0]

  /* creation of getESPtimeTask */
  getESPtimeTaskHandle = osThreadNew(getESPtime, NULL, &getESPtimeTask_attributes);
 800244e:	4a10      	ldr	r2, [pc, #64]	; (8002490 <main+0xc0>)
 8002450:	4b10      	ldr	r3, [pc, #64]	; (8002494 <main+0xc4>)
 8002452:	2100      	movs	r1, #0
 8002454:	0018      	movs	r0, r3
 8002456:	f003 fbb7 	bl	8005bc8 <osThreadNew>
 800245a:	0002      	movs	r2, r0
 800245c:	4b0e      	ldr	r3, [pc, #56]	; (8002498 <main+0xc8>)
 800245e:	601a      	str	r2, [r3, #0]
  /* USER CODE BEGIN RTOS_EVENTS */
  /* add events, ... */
  /* USER CODE END RTOS_EVENTS */

  /* Start scheduler */
  osKernelStart();
 8002460:	f003 fb84 	bl	8005b6c <osKernelStart>

  /* We should never get here as control is now taken by the scheduler */
  /* Infinite loop */
  /* USER CODE BEGIN WHILE */
  while (1)
 8002464:	e7fe      	b.n	8002464 <main+0x94>
 8002466:	46c0      	nop			; (mov r8, r8)
 8002468:	200015a0 	.word	0x200015a0
 800246c:	200014e0 	.word	0x200014e0
 8002470:	200013ac 	.word	0x200013ac
 8002474:	200014dc 	.word	0x200014dc
 8002478:	08008aa8 	.word	0x08008aa8
 800247c:	080028b5 	.word	0x080028b5
 8002480:	20001368 	.word	0x20001368
 8002484:	08008acc 	.word	0x08008acc
 8002488:	08002bc9 	.word	0x08002bc9
 800248c:	20001508 	.word	0x20001508
 8002490:	08008af0 	.word	0x08008af0
 8002494:	08002d0d 	.word	0x08002d0d
 8002498:	20001504 	.word	0x20001504

0800249c <SystemClock_Config>:
/**
  * @brief System Clock Configuration
  * @retval None
  */
void SystemClock_Config(void)
{
 800249c:	b590      	push	{r4, r7, lr}
 800249e:	b095      	sub	sp, #84	; 0x54
 80024a0:	af00      	add	r7, sp, #0
  RCC_OscInitTypeDef RCC_OscInitStruct = {0};
 80024a2:	2420      	movs	r4, #32
 80024a4:	193b      	adds	r3, r7, r4
 80024a6:	0018      	movs	r0, r3
 80024a8:	2330      	movs	r3, #48	; 0x30
 80024aa:	001a      	movs	r2, r3
 80024ac:	2100      	movs	r1, #0
 80024ae:	f005 fd9e 	bl	8007fee <memset>
  RCC_ClkInitTypeDef RCC_ClkInitStruct = {0};
 80024b2:	2310      	movs	r3, #16
 80024b4:	18fb      	adds	r3, r7, r3
 80024b6:	0018      	movs	r0, r3
 80024b8:	2310      	movs	r3, #16
 80024ba:	001a      	movs	r2, r3
 80024bc:	2100      	movs	r1, #0
 80024be:	f005 fd96 	bl	8007fee <memset>
  RCC_PeriphCLKInitTypeDef PeriphClkInit = {0};
 80024c2:	003b      	movs	r3, r7
 80024c4:	0018      	movs	r0, r3
 80024c6:	2310      	movs	r3, #16
 80024c8:	001a      	movs	r2, r3
 80024ca:	2100      	movs	r1, #0
 80024cc:	f005 fd8f 	bl	8007fee <memset>

  /** Initializes the RCC Oscillators according to the specified parameters
  * in the RCC_OscInitTypeDef structure.
  */
  RCC_OscInitStruct.OscillatorType = RCC_OSCILLATORTYPE_HSI;
 80024d0:	0021      	movs	r1, r4
 80024d2:	187b      	adds	r3, r7, r1
 80024d4:	2202      	movs	r2, #2
 80024d6:	601a      	str	r2, [r3, #0]
  RCC_OscInitStruct.HSIState = RCC_HSI_ON;
 80024d8:	187b      	adds	r3, r7, r1
 80024da:	2201      	movs	r2, #1
 80024dc:	60da      	str	r2, [r3, #12]
  RCC_OscInitStruct.HSICalibrationValue = RCC_HSICALIBRATION_DEFAULT;
 80024de:	187b      	adds	r3, r7, r1
 80024e0:	2210      	movs	r2, #16
 80024e2:	611a      	str	r2, [r3, #16]
  RCC_OscInitStruct.PLL.PLLState = RCC_PLL_ON;
 80024e4:	187b      	adds	r3, r7, r1
 80024e6:	2202      	movs	r2, #2
 80024e8:	621a      	str	r2, [r3, #32]
  RCC_OscInitStruct.PLL.PLLSource = RCC_PLLSOURCE_HSI;
 80024ea:	187b      	adds	r3, r7, r1
 80024ec:	2200      	movs	r2, #0
 80024ee:	625a      	str	r2, [r3, #36]	; 0x24
  RCC_OscInitStruct.PLL.PLLMUL = RCC_PLL_MUL12;
 80024f0:	187b      	adds	r3, r7, r1
 80024f2:	22a0      	movs	r2, #160	; 0xa0
 80024f4:	0392      	lsls	r2, r2, #14
 80024f6:	629a      	str	r2, [r3, #40]	; 0x28
  RCC_OscInitStruct.PLL.PREDIV = RCC_PREDIV_DIV1;
 80024f8:	187b      	adds	r3, r7, r1
 80024fa:	2200      	movs	r2, #0
 80024fc:	62da      	str	r2, [r3, #44]	; 0x2c
  if (HAL_RCC_OscConfig(&RCC_OscInitStruct) != HAL_OK)
 80024fe:	187b      	adds	r3, r7, r1
 8002500:	0018      	movs	r0, r3
 8002502:	f001 fe69 	bl	80041d8 <HAL_RCC_OscConfig>
 8002506:	1e03      	subs	r3, r0, #0
 8002508:	d001      	beq.n	800250e <SystemClock_Config+0x72>
  {
    Error_Handler();
 800250a:	f000 fc89 	bl	8002e20 <Error_Handler>
  }
  /** Initializes the CPU, AHB and APB buses clocks
  */
  RCC_ClkInitStruct.ClockType = RCC_CLOCKTYPE_HCLK|RCC_CLOCKTYPE_SYSCLK
 800250e:	2110      	movs	r1, #16
 8002510:	187b      	adds	r3, r7, r1
 8002512:	2207      	movs	r2, #7
 8002514:	601a      	str	r2, [r3, #0]
                              |RCC_CLOCKTYPE_PCLK1;
  RCC_ClkInitStruct.SYSCLKSource = RCC_SYSCLKSOURCE_PLLCLK;
 8002516:	187b      	adds	r3, r7, r1
 8002518:	2202      	movs	r2, #2
 800251a:	605a      	str	r2, [r3, #4]
  RCC_ClkInitStruct.AHBCLKDivider = RCC_SYSCLK_DIV1;
 800251c:	187b      	adds	r3, r7, r1
 800251e:	2200      	movs	r2, #0
 8002520:	609a      	str	r2, [r3, #8]
  RCC_ClkInitStruct.APB1CLKDivider = RCC_HCLK_DIV1;
 8002522:	187b      	adds	r3, r7, r1
 8002524:	2200      	movs	r2, #0
 8002526:	60da      	str	r2, [r3, #12]

  if (HAL_RCC_ClockConfig(&RCC_ClkInitStruct, FLASH_LATENCY_1) != HAL_OK)
 8002528:	187b      	adds	r3, r7, r1
 800252a:	2101      	movs	r1, #1
 800252c:	0018      	movs	r0, r3
 800252e:	f002 f96d 	bl	800480c <HAL_RCC_ClockConfig>
 8002532:	1e03      	subs	r3, r0, #0
 8002534:	d001      	beq.n	800253a <SystemClock_Config+0x9e>
  {
    Error_Handler();
 8002536:	f000 fc73 	bl	8002e20 <Error_Handler>
  }
  PeriphClkInit.PeriphClockSelection = RCC_PERIPHCLK_USART1|RCC_PERIPHCLK_I2C1;
 800253a:	003b      	movs	r3, r7
 800253c:	2221      	movs	r2, #33	; 0x21
 800253e:	601a      	str	r2, [r3, #0]
  PeriphClkInit.Usart1ClockSelection = RCC_USART1CLKSOURCE_PCLK1;
 8002540:	003b      	movs	r3, r7
 8002542:	2200      	movs	r2, #0
 8002544:	609a      	str	r2, [r3, #8]
  PeriphClkInit.I2c1ClockSelection = RCC_I2C1CLKSOURCE_HSI;
 8002546:	003b      	movs	r3, r7
 8002548:	2200      	movs	r2, #0
 800254a:	60da      	str	r2, [r3, #12]
  if (HAL_RCCEx_PeriphCLKConfig(&PeriphClkInit) != HAL_OK)
 800254c:	003b      	movs	r3, r7
 800254e:	0018      	movs	r0, r3
 8002550:	f002 fad8 	bl	8004b04 <HAL_RCCEx_PeriphCLKConfig>
 8002554:	1e03      	subs	r3, r0, #0
 8002556:	d001      	beq.n	800255c <SystemClock_Config+0xc0>
  {
    Error_Handler();
 8002558:	f000 fc62 	bl	8002e20 <Error_Handler>
  }
}
 800255c:	46c0      	nop			; (mov r8, r8)
 800255e:	46bd      	mov	sp, r7
 8002560:	b015      	add	sp, #84	; 0x54
 8002562:	bd90      	pop	{r4, r7, pc}

08002564 <MX_I2C1_Init>:
  * @brief I2C1 Initialization Function
  * @param None
  * @retval None
  */
static void MX_I2C1_Init(void)
{
 8002564:	b580      	push	{r7, lr}
 8002566:	af00      	add	r7, sp, #0
  /* USER CODE END I2C1_Init 0 */

  /* USER CODE BEGIN I2C1_Init 1 */

  /* USER CODE END I2C1_Init 1 */
  hi2c1.Instance = I2C1;
 8002568:	4b1b      	ldr	r3, [pc, #108]	; (80025d8 <MX_I2C1_Init+0x74>)
 800256a:	4a1c      	ldr	r2, [pc, #112]	; (80025dc <MX_I2C1_Init+0x78>)
 800256c:	601a      	str	r2, [r3, #0]
  hi2c1.Init.Timing = 0x2000090E;
 800256e:	4b1a      	ldr	r3, [pc, #104]	; (80025d8 <MX_I2C1_Init+0x74>)
 8002570:	4a1b      	ldr	r2, [pc, #108]	; (80025e0 <MX_I2C1_Init+0x7c>)
 8002572:	605a      	str	r2, [r3, #4]
  hi2c1.Init.OwnAddress1 = 0;
 8002574:	4b18      	ldr	r3, [pc, #96]	; (80025d8 <MX_I2C1_Init+0x74>)
 8002576:	2200      	movs	r2, #0
 8002578:	609a      	str	r2, [r3, #8]
  hi2c1.Init.AddressingMode = I2C_ADDRESSINGMODE_7BIT;
 800257a:	4b17      	ldr	r3, [pc, #92]	; (80025d8 <MX_I2C1_Init+0x74>)
 800257c:	2201      	movs	r2, #1
 800257e:	60da      	str	r2, [r3, #12]
  hi2c1.Init.DualAddressMode = I2C_DUALADDRESS_DISABLE;
 8002580:	4b15      	ldr	r3, [pc, #84]	; (80025d8 <MX_I2C1_Init+0x74>)
 8002582:	2200      	movs	r2, #0
 8002584:	611a      	str	r2, [r3, #16]
  hi2c1.Init.OwnAddress2 = 0;
 8002586:	4b14      	ldr	r3, [pc, #80]	; (80025d8 <MX_I2C1_Init+0x74>)
 8002588:	2200      	movs	r2, #0
 800258a:	615a      	str	r2, [r3, #20]
  hi2c1.Init.OwnAddress2Masks = I2C_OA2_NOMASK;
 800258c:	4b12      	ldr	r3, [pc, #72]	; (80025d8 <MX_I2C1_Init+0x74>)
 800258e:	2200      	movs	r2, #0
 8002590:	619a      	str	r2, [r3, #24]
  hi2c1.Init.GeneralCallMode = I2C_GENERALCALL_DISABLE;
 8002592:	4b11      	ldr	r3, [pc, #68]	; (80025d8 <MX_I2C1_Init+0x74>)
 8002594:	2200      	movs	r2, #0
 8002596:	61da      	str	r2, [r3, #28]
  hi2c1.Init.NoStretchMode = I2C_NOSTRETCH_DISABLE;
 8002598:	4b0f      	ldr	r3, [pc, #60]	; (80025d8 <MX_I2C1_Init+0x74>)
 800259a:	2200      	movs	r2, #0
 800259c:	621a      	str	r2, [r3, #32]
  if (HAL_I2C_Init(&hi2c1) != HAL_OK)
 800259e:	4b0e      	ldr	r3, [pc, #56]	; (80025d8 <MX_I2C1_Init+0x74>)
 80025a0:	0018      	movs	r0, r3
 80025a2:	f001 f8e3 	bl	800376c <HAL_I2C_Init>
 80025a6:	1e03      	subs	r3, r0, #0
 80025a8:	d001      	beq.n	80025ae <MX_I2C1_Init+0x4a>
  {
    Error_Handler();
 80025aa:	f000 fc39 	bl	8002e20 <Error_Handler>
  }
  /** Configure Analogue filter
  */
  if (HAL_I2CEx_ConfigAnalogFilter(&hi2c1, I2C_ANALOGFILTER_ENABLE) != HAL_OK)
 80025ae:	4b0a      	ldr	r3, [pc, #40]	; (80025d8 <MX_I2C1_Init+0x74>)
 80025b0:	2100      	movs	r1, #0
 80025b2:	0018      	movs	r0, r3
 80025b4:	f001 fd78 	bl	80040a8 <HAL_I2CEx_ConfigAnalogFilter>
 80025b8:	1e03      	subs	r3, r0, #0
 80025ba:	d001      	beq.n	80025c0 <MX_I2C1_Init+0x5c>
  {
    Error_Handler();
 80025bc:	f000 fc30 	bl	8002e20 <Error_Handler>
  }
  /** Configure Digital filter
  */
  if (HAL_I2CEx_ConfigDigitalFilter(&hi2c1, 0) != HAL_OK)
 80025c0:	4b05      	ldr	r3, [pc, #20]	; (80025d8 <MX_I2C1_Init+0x74>)
 80025c2:	2100      	movs	r1, #0
 80025c4:	0018      	movs	r0, r3
 80025c6:	f001 fdbb 	bl	8004140 <HAL_I2CEx_ConfigDigitalFilter>
 80025ca:	1e03      	subs	r3, r0, #0
 80025cc:	d001      	beq.n	80025d2 <MX_I2C1_Init+0x6e>
  {
    Error_Handler();
 80025ce:	f000 fc27 	bl	8002e20 <Error_Handler>
  }
  /* USER CODE BEGIN I2C1_Init 2 */

  /* USER CODE END I2C1_Init 2 */

}
 80025d2:	46c0      	nop			; (mov r8, r8)
 80025d4:	46bd      	mov	sp, r7
 80025d6:	bd80      	pop	{r7, pc}
 80025d8:	200013b4 	.word	0x200013b4
 80025dc:	40005400 	.word	0x40005400
 80025e0:	2000090e 	.word	0x2000090e

080025e4 <MX_I2C2_Init>:
  * @brief I2C2 Initialization Function
  * @param None
  * @retval None
  */
static void MX_I2C2_Init(void)
{
 80025e4:	b580      	push	{r7, lr}
 80025e6:	af00      	add	r7, sp, #0
  /* USER CODE END I2C2_Init 0 */

  /* USER CODE BEGIN I2C2_Init 1 */

  /* USER CODE END I2C2_Init 1 */
  hi2c2.Instance = I2C2;
 80025e8:	4b1b      	ldr	r3, [pc, #108]	; (8002658 <MX_I2C2_Init+0x74>)
 80025ea:	4a1c      	ldr	r2, [pc, #112]	; (800265c <MX_I2C2_Init+0x78>)
 80025ec:	601a      	str	r2, [r3, #0]
  hi2c2.Init.Timing = 0x20303E5D;
 80025ee:	4b1a      	ldr	r3, [pc, #104]	; (8002658 <MX_I2C2_Init+0x74>)
 80025f0:	4a1b      	ldr	r2, [pc, #108]	; (8002660 <MX_I2C2_Init+0x7c>)
 80025f2:	605a      	str	r2, [r3, #4]
  hi2c2.Init.OwnAddress1 = 0;
 80025f4:	4b18      	ldr	r3, [pc, #96]	; (8002658 <MX_I2C2_Init+0x74>)
 80025f6:	2200      	movs	r2, #0
 80025f8:	609a      	str	r2, [r3, #8]
  hi2c2.Init.AddressingMode = I2C_ADDRESSINGMODE_7BIT;
 80025fa:	4b17      	ldr	r3, [pc, #92]	; (8002658 <MX_I2C2_Init+0x74>)
 80025fc:	2201      	movs	r2, #1
 80025fe:	60da      	str	r2, [r3, #12]
  hi2c2.Init.DualAddressMode = I2C_DUALADDRESS_DISABLE;
 8002600:	4b15      	ldr	r3, [pc, #84]	; (8002658 <MX_I2C2_Init+0x74>)
 8002602:	2200      	movs	r2, #0
 8002604:	611a      	str	r2, [r3, #16]
  hi2c2.Init.OwnAddress2 = 0;
 8002606:	4b14      	ldr	r3, [pc, #80]	; (8002658 <MX_I2C2_Init+0x74>)
 8002608:	2200      	movs	r2, #0
 800260a:	615a      	str	r2, [r3, #20]
  hi2c2.Init.OwnAddress2Masks = I2C_OA2_NOMASK;
 800260c:	4b12      	ldr	r3, [pc, #72]	; (8002658 <MX_I2C2_Init+0x74>)
 800260e:	2200      	movs	r2, #0
 8002610:	619a      	str	r2, [r3, #24]
  hi2c2.Init.GeneralCallMode = I2C_GENERALCALL_DISABLE;
 8002612:	4b11      	ldr	r3, [pc, #68]	; (8002658 <MX_I2C2_Init+0x74>)
 8002614:	2200      	movs	r2, #0
 8002616:	61da      	str	r2, [r3, #28]
  hi2c2.Init.NoStretchMode = I2C_NOSTRETCH_DISABLE;
 8002618:	4b0f      	ldr	r3, [pc, #60]	; (8002658 <MX_I2C2_Init+0x74>)
 800261a:	2200      	movs	r2, #0
 800261c:	621a      	str	r2, [r3, #32]
  if (HAL_I2C_Init(&hi2c2) != HAL_OK)
 800261e:	4b0e      	ldr	r3, [pc, #56]	; (8002658 <MX_I2C2_Init+0x74>)
 8002620:	0018      	movs	r0, r3
 8002622:	f001 f8a3 	bl	800376c <HAL_I2C_Init>
 8002626:	1e03      	subs	r3, r0, #0
 8002628:	d001      	beq.n	800262e <MX_I2C2_Init+0x4a>
  {
    Error_Handler();
 800262a:	f000 fbf9 	bl	8002e20 <Error_Handler>
  }
  /** Configure Analogue filter
  */
  if (HAL_I2CEx_ConfigAnalogFilter(&hi2c2, I2C_ANALOGFILTER_ENABLE) != HAL_OK)
 800262e:	4b0a      	ldr	r3, [pc, #40]	; (8002658 <MX_I2C2_Init+0x74>)
 8002630:	2100      	movs	r1, #0
 8002632:	0018      	movs	r0, r3
 8002634:	f001 fd38 	bl	80040a8 <HAL_I2CEx_ConfigAnalogFilter>
 8002638:	1e03      	subs	r3, r0, #0
 800263a:	d001      	beq.n	8002640 <MX_I2C2_Init+0x5c>
  {
    Error_Handler();
 800263c:	f000 fbf0 	bl	8002e20 <Error_Handler>
  }
  /** Configure Digital filter
  */
  if (HAL_I2CEx_ConfigDigitalFilter(&hi2c2, 0) != HAL_OK)
 8002640:	4b05      	ldr	r3, [pc, #20]	; (8002658 <MX_I2C2_Init+0x74>)
 8002642:	2100      	movs	r1, #0
 8002644:	0018      	movs	r0, r3
 8002646:	f001 fd7b 	bl	8004140 <HAL_I2CEx_ConfigDigitalFilter>
 800264a:	1e03      	subs	r3, r0, #0
 800264c:	d001      	beq.n	8002652 <MX_I2C2_Init+0x6e>
  {
    Error_Handler();
 800264e:	f000 fbe7 	bl	8002e20 <Error_Handler>
  }
  /* USER CODE BEGIN I2C2_Init 2 */

  /* USER CODE END I2C2_Init 2 */

}
 8002652:	46c0      	nop			; (mov r8, r8)
 8002654:	46bd      	mov	sp, r7
 8002656:	bd80      	pop	{r7, pc}
 8002658:	2000140c 	.word	0x2000140c
 800265c:	40005800 	.word	0x40005800
 8002660:	20303e5d 	.word	0x20303e5d

08002664 <MX_USART1_UART_Init>:
  * @brief USART1 Initialization Function
  * @param None
  * @retval None
  */
static void MX_USART1_UART_Init(void)
{
 8002664:	b580      	push	{r7, lr}
 8002666:	af00      	add	r7, sp, #0
  /* USER CODE END USART1_Init 0 */

  /* USER CODE BEGIN USART1_Init 1 */

  /* USER CODE END USART1_Init 1 */
  huart1.Instance = USART1;
 8002668:	4b14      	ldr	r3, [pc, #80]	; (80026bc <MX_USART1_UART_Init+0x58>)
 800266a:	4a15      	ldr	r2, [pc, #84]	; (80026c0 <MX_USART1_UART_Init+0x5c>)
 800266c:	601a      	str	r2, [r3, #0]
  huart1.Init.BaudRate = 115200;
 800266e:	4b13      	ldr	r3, [pc, #76]	; (80026bc <MX_USART1_UART_Init+0x58>)
 8002670:	22e1      	movs	r2, #225	; 0xe1
 8002672:	0252      	lsls	r2, r2, #9
 8002674:	605a      	str	r2, [r3, #4]
  huart1.Init.WordLength = UART_WORDLENGTH_8B;
 8002676:	4b11      	ldr	r3, [pc, #68]	; (80026bc <MX_USART1_UART_Init+0x58>)
 8002678:	2200      	movs	r2, #0
 800267a:	609a      	str	r2, [r3, #8]
  huart1.Init.StopBits = UART_STOPBITS_1;
 800267c:	4b0f      	ldr	r3, [pc, #60]	; (80026bc <MX_USART1_UART_Init+0x58>)
 800267e:	2200      	movs	r2, #0
 8002680:	60da      	str	r2, [r3, #12]
  huart1.Init.Parity = UART_PARITY_NONE;
 8002682:	4b0e      	ldr	r3, [pc, #56]	; (80026bc <MX_USART1_UART_Init+0x58>)
 8002684:	2200      	movs	r2, #0
 8002686:	611a      	str	r2, [r3, #16]
  huart1.Init.Mode = UART_MODE_TX_RX;
 8002688:	4b0c      	ldr	r3, [pc, #48]	; (80026bc <MX_USART1_UART_Init+0x58>)
 800268a:	220c      	movs	r2, #12
 800268c:	615a      	str	r2, [r3, #20]
  huart1.Init.HwFlowCtl = UART_HWCONTROL_NONE;
 800268e:	4b0b      	ldr	r3, [pc, #44]	; (80026bc <MX_USART1_UART_Init+0x58>)
 8002690:	2200      	movs	r2, #0
 8002692:	619a      	str	r2, [r3, #24]
  huart1.Init.OverSampling = UART_OVERSAMPLING_16;
 8002694:	4b09      	ldr	r3, [pc, #36]	; (80026bc <MX_USART1_UART_Init+0x58>)
 8002696:	2200      	movs	r2, #0
 8002698:	61da      	str	r2, [r3, #28]
  huart1.Init.OneBitSampling = UART_ONE_BIT_SAMPLE_DISABLE;
 800269a:	4b08      	ldr	r3, [pc, #32]	; (80026bc <MX_USART1_UART_Init+0x58>)
 800269c:	2200      	movs	r2, #0
 800269e:	621a      	str	r2, [r3, #32]
  huart1.AdvancedInit.AdvFeatureInit = UART_ADVFEATURE_NO_INIT;
 80026a0:	4b06      	ldr	r3, [pc, #24]	; (80026bc <MX_USART1_UART_Init+0x58>)
 80026a2:	2200      	movs	r2, #0
 80026a4:	625a      	str	r2, [r3, #36]	; 0x24
  if (HAL_UART_Init(&huart1) != HAL_OK)
 80026a6:	4b05      	ldr	r3, [pc, #20]	; (80026bc <MX_USART1_UART_Init+0x58>)
 80026a8:	0018      	movs	r0, r3
 80026aa:	f002 fd59 	bl	8005160 <HAL_UART_Init>
 80026ae:	1e03      	subs	r3, r0, #0
 80026b0:	d001      	beq.n	80026b6 <MX_USART1_UART_Init+0x52>
  {
    Error_Handler();
 80026b2:	f000 fbb5 	bl	8002e20 <Error_Handler>
  }
  /* USER CODE BEGIN USART1_Init 2 */

  /* USER CODE END USART1_Init 2 */

}
 80026b6:	46c0      	nop			; (mov r8, r8)
 80026b8:	46bd      	mov	sp, r7
 80026ba:	bd80      	pop	{r7, pc}
 80026bc:	20001458 	.word	0x20001458
 80026c0:	40013800 	.word	0x40013800

080026c4 <MX_USART2_UART_Init>:
  * @brief USART2 Initialization Function
  * @param None
  * @retval None
  */
static void MX_USART2_UART_Init(void)
{
 80026c4:	b580      	push	{r7, lr}
 80026c6:	af00      	add	r7, sp, #0
  /* USER CODE END USART2_Init 0 */

  /* USER CODE BEGIN USART2_Init 1 */

  /* USER CODE END USART2_Init 1 */
  huart2.Instance = USART2;
 80026c8:	4b14      	ldr	r3, [pc, #80]	; (800271c <MX_USART2_UART_Init+0x58>)
 80026ca:	4a15      	ldr	r2, [pc, #84]	; (8002720 <MX_USART2_UART_Init+0x5c>)
 80026cc:	601a      	str	r2, [r3, #0]
  huart2.Init.BaudRate = 115200;
 80026ce:	4b13      	ldr	r3, [pc, #76]	; (800271c <MX_USART2_UART_Init+0x58>)
 80026d0:	22e1      	movs	r2, #225	; 0xe1
 80026d2:	0252      	lsls	r2, r2, #9
 80026d4:	605a      	str	r2, [r3, #4]
  huart2.Init.WordLength = UART_WORDLENGTH_8B;
 80026d6:	4b11      	ldr	r3, [pc, #68]	; (800271c <MX_USART2_UART_Init+0x58>)
 80026d8:	2200      	movs	r2, #0
 80026da:	609a      	str	r2, [r3, #8]
  huart2.Init.StopBits = UART_STOPBITS_1;
 80026dc:	4b0f      	ldr	r3, [pc, #60]	; (800271c <MX_USART2_UART_Init+0x58>)
 80026de:	2200      	movs	r2, #0
 80026e0:	60da      	str	r2, [r3, #12]
  huart2.Init.Parity = UART_PARITY_NONE;
 80026e2:	4b0e      	ldr	r3, [pc, #56]	; (800271c <MX_USART2_UART_Init+0x58>)
 80026e4:	2200      	movs	r2, #0
 80026e6:	611a      	str	r2, [r3, #16]
  huart2.Init.Mode = UART_MODE_TX_RX;
 80026e8:	4b0c      	ldr	r3, [pc, #48]	; (800271c <MX_USART2_UART_Init+0x58>)
 80026ea:	220c      	movs	r2, #12
 80026ec:	615a      	str	r2, [r3, #20]
  huart2.Init.HwFlowCtl = UART_HWCONTROL_NONE;
 80026ee:	4b0b      	ldr	r3, [pc, #44]	; (800271c <MX_USART2_UART_Init+0x58>)
 80026f0:	2200      	movs	r2, #0
 80026f2:	619a      	str	r2, [r3, #24]
  huart2.Init.OverSampling = UART_OVERSAMPLING_16;
 80026f4:	4b09      	ldr	r3, [pc, #36]	; (800271c <MX_USART2_UART_Init+0x58>)
 80026f6:	2200      	movs	r2, #0
 80026f8:	61da      	str	r2, [r3, #28]
  huart2.Init.OneBitSampling = UART_ONE_BIT_SAMPLE_DISABLE;
 80026fa:	4b08      	ldr	r3, [pc, #32]	; (800271c <MX_USART2_UART_Init+0x58>)
 80026fc:	2200      	movs	r2, #0
 80026fe:	621a      	str	r2, [r3, #32]
  huart2.AdvancedInit.AdvFeatureInit = UART_ADVFEATURE_NO_INIT;
 8002700:	4b06      	ldr	r3, [pc, #24]	; (800271c <MX_USART2_UART_Init+0x58>)
 8002702:	2200      	movs	r2, #0
 8002704:	625a      	str	r2, [r3, #36]	; 0x24
  if (HAL_UART_Init(&huart2) != HAL_OK)
 8002706:	4b05      	ldr	r3, [pc, #20]	; (800271c <MX_USART2_UART_Init+0x58>)
 8002708:	0018      	movs	r0, r3
 800270a:	f002 fd29 	bl	8005160 <HAL_UART_Init>
 800270e:	1e03      	subs	r3, r0, #0
 8002710:	d001      	beq.n	8002716 <MX_USART2_UART_Init+0x52>
  {
    Error_Handler();
 8002712:	f000 fb85 	bl	8002e20 <Error_Handler>
  }
  /* USER CODE BEGIN USART2_Init 2 */

  /* USER CODE END USART2_Init 2 */

}
 8002716:	46c0      	nop			; (mov r8, r8)
 8002718:	46bd      	mov	sp, r7
 800271a:	bd80      	pop	{r7, pc}
 800271c:	2000151c 	.word	0x2000151c
 8002720:	40004400 	.word	0x40004400

08002724 <MX_GPIO_Init>:
  * @brief GPIO Initialization Function
  * @param None
  * @retval None
  */
static void MX_GPIO_Init(void)
{
 8002724:	b590      	push	{r4, r7, lr}
 8002726:	b08b      	sub	sp, #44	; 0x2c
 8002728:	af00      	add	r7, sp, #0
  GPIO_InitTypeDef GPIO_InitStruct = {0};
 800272a:	2414      	movs	r4, #20
 800272c:	193b      	adds	r3, r7, r4
 800272e:	0018      	movs	r0, r3
 8002730:	2314      	movs	r3, #20
 8002732:	001a      	movs	r2, r3
 8002734:	2100      	movs	r1, #0
 8002736:	f005 fc5a 	bl	8007fee <memset>

  /* GPIO Ports Clock Enable */
  __HAL_RCC_GPIOC_CLK_ENABLE();
 800273a:	4b34      	ldr	r3, [pc, #208]	; (800280c <MX_GPIO_Init+0xe8>)
 800273c:	695a      	ldr	r2, [r3, #20]
 800273e:	4b33      	ldr	r3, [pc, #204]	; (800280c <MX_GPIO_Init+0xe8>)
 8002740:	2180      	movs	r1, #128	; 0x80
 8002742:	0309      	lsls	r1, r1, #12
 8002744:	430a      	orrs	r2, r1
 8002746:	615a      	str	r2, [r3, #20]
 8002748:	4b30      	ldr	r3, [pc, #192]	; (800280c <MX_GPIO_Init+0xe8>)
 800274a:	695a      	ldr	r2, [r3, #20]
 800274c:	2380      	movs	r3, #128	; 0x80
 800274e:	031b      	lsls	r3, r3, #12
 8002750:	4013      	ands	r3, r2
 8002752:	613b      	str	r3, [r7, #16]
 8002754:	693b      	ldr	r3, [r7, #16]
  __HAL_RCC_GPIOF_CLK_ENABLE();
 8002756:	4b2d      	ldr	r3, [pc, #180]	; (800280c <MX_GPIO_Init+0xe8>)
 8002758:	695a      	ldr	r2, [r3, #20]
 800275a:	4b2c      	ldr	r3, [pc, #176]	; (800280c <MX_GPIO_Init+0xe8>)
 800275c:	2180      	movs	r1, #128	; 0x80
 800275e:	03c9      	lsls	r1, r1, #15
 8002760:	430a      	orrs	r2, r1
 8002762:	615a      	str	r2, [r3, #20]
 8002764:	4b29      	ldr	r3, [pc, #164]	; (800280c <MX_GPIO_Init+0xe8>)
 8002766:	695a      	ldr	r2, [r3, #20]
 8002768:	2380      	movs	r3, #128	; 0x80
 800276a:	03db      	lsls	r3, r3, #15
 800276c:	4013      	ands	r3, r2
 800276e:	60fb      	str	r3, [r7, #12]
 8002770:	68fb      	ldr	r3, [r7, #12]
  __HAL_RCC_GPIOA_CLK_ENABLE();
 8002772:	4b26      	ldr	r3, [pc, #152]	; (800280c <MX_GPIO_Init+0xe8>)
 8002774:	695a      	ldr	r2, [r3, #20]
 8002776:	4b25      	ldr	r3, [pc, #148]	; (800280c <MX_GPIO_Init+0xe8>)
 8002778:	2180      	movs	r1, #128	; 0x80
 800277a:	0289      	lsls	r1, r1, #10
 800277c:	430a      	orrs	r2, r1
 800277e:	615a      	str	r2, [r3, #20]
 8002780:	4b22      	ldr	r3, [pc, #136]	; (800280c <MX_GPIO_Init+0xe8>)
 8002782:	695a      	ldr	r2, [r3, #20]
 8002784:	2380      	movs	r3, #128	; 0x80
 8002786:	029b      	lsls	r3, r3, #10
 8002788:	4013      	ands	r3, r2
 800278a:	60bb      	str	r3, [r7, #8]
 800278c:	68bb      	ldr	r3, [r7, #8]
  __HAL_RCC_GPIOB_CLK_ENABLE();
 800278e:	4b1f      	ldr	r3, [pc, #124]	; (800280c <MX_GPIO_Init+0xe8>)
 8002790:	695a      	ldr	r2, [r3, #20]
 8002792:	4b1e      	ldr	r3, [pc, #120]	; (800280c <MX_GPIO_Init+0xe8>)
 8002794:	2180      	movs	r1, #128	; 0x80
 8002796:	02c9      	lsls	r1, r1, #11
 8002798:	430a      	orrs	r2, r1
 800279a:	615a      	str	r2, [r3, #20]
 800279c:	4b1b      	ldr	r3, [pc, #108]	; (800280c <MX_GPIO_Init+0xe8>)
 800279e:	695a      	ldr	r2, [r3, #20]
 80027a0:	2380      	movs	r3, #128	; 0x80
 80027a2:	02db      	lsls	r3, r3, #11
 80027a4:	4013      	ands	r3, r2
 80027a6:	607b      	str	r3, [r7, #4]
 80027a8:	687b      	ldr	r3, [r7, #4]

  /*Configure GPIO pin Output Level */
  HAL_GPIO_WritePin(LD2_GPIO_Port, LD2_Pin, GPIO_PIN_RESET);
 80027aa:	2390      	movs	r3, #144	; 0x90
 80027ac:	05db      	lsls	r3, r3, #23
 80027ae:	2200      	movs	r2, #0
 80027b0:	2120      	movs	r1, #32
 80027b2:	0018      	movs	r0, r3
 80027b4:	f000 ffbc 	bl	8003730 <HAL_GPIO_WritePin>

  /*Configure GPIO pin : B1_Pin */
  GPIO_InitStruct.Pin = B1_Pin;
 80027b8:	193b      	adds	r3, r7, r4
 80027ba:	2280      	movs	r2, #128	; 0x80
 80027bc:	0192      	lsls	r2, r2, #6
 80027be:	601a      	str	r2, [r3, #0]
  GPIO_InitStruct.Mode = GPIO_MODE_IT_FALLING;
 80027c0:	193b      	adds	r3, r7, r4
 80027c2:	2284      	movs	r2, #132	; 0x84
 80027c4:	0392      	lsls	r2, r2, #14
 80027c6:	605a      	str	r2, [r3, #4]
  GPIO_InitStruct.Pull = GPIO_NOPULL;
 80027c8:	193b      	adds	r3, r7, r4
 80027ca:	2200      	movs	r2, #0
 80027cc:	609a      	str	r2, [r3, #8]
  HAL_GPIO_Init(B1_GPIO_Port, &GPIO_InitStruct);
 80027ce:	193b      	adds	r3, r7, r4
 80027d0:	4a0f      	ldr	r2, [pc, #60]	; (8002810 <MX_GPIO_Init+0xec>)
 80027d2:	0019      	movs	r1, r3
 80027d4:	0010      	movs	r0, r2
 80027d6:	f000 fe3b 	bl	8003450 <HAL_GPIO_Init>

  /*Configure GPIO pin : LD2_Pin */
  GPIO_InitStruct.Pin = LD2_Pin;
 80027da:	0021      	movs	r1, r4
 80027dc:	187b      	adds	r3, r7, r1
 80027de:	2220      	movs	r2, #32
 80027e0:	601a      	str	r2, [r3, #0]
  GPIO_InitStruct.Mode = GPIO_MODE_OUTPUT_PP;
 80027e2:	187b      	adds	r3, r7, r1
 80027e4:	2201      	movs	r2, #1
 80027e6:	605a      	str	r2, [r3, #4]
  GPIO_InitStruct.Pull = GPIO_NOPULL;
 80027e8:	187b      	adds	r3, r7, r1
 80027ea:	2200      	movs	r2, #0
 80027ec:	609a      	str	r2, [r3, #8]
  GPIO_InitStruct.Speed = GPIO_SPEED_FREQ_LOW;
 80027ee:	187b      	adds	r3, r7, r1
 80027f0:	2200      	movs	r2, #0
 80027f2:	60da      	str	r2, [r3, #12]
  HAL_GPIO_Init(LD2_GPIO_Port, &GPIO_InitStruct);
 80027f4:	187a      	adds	r2, r7, r1
 80027f6:	2390      	movs	r3, #144	; 0x90
 80027f8:	05db      	lsls	r3, r3, #23
 80027fa:	0011      	movs	r1, r2
 80027fc:	0018      	movs	r0, r3
 80027fe:	f000 fe27 	bl	8003450 <HAL_GPIO_Init>

}
 8002802:	46c0      	nop			; (mov r8, r8)
 8002804:	46bd      	mov	sp, r7
 8002806:	b00b      	add	sp, #44	; 0x2c
 8002808:	bd90      	pop	{r4, r7, pc}
 800280a:	46c0      	nop			; (mov r8, r8)
 800280c:	40021000 	.word	0x40021000
 8002810:	48000800 	.word	0x48000800

08002814 <debugPrintln>:
/* USER CODE BEGIN 4 */
void debugPrint(UART_HandleTypeDef *huart, char _out[]){
 HAL_UART_Transmit(huart, (uint8_t *) _out, strlen(_out), 10);
}

void debugPrintln(UART_HandleTypeDef *huart, char _out[]){
 8002814:	b580      	push	{r7, lr}
 8002816:	b084      	sub	sp, #16
 8002818:	af00      	add	r7, sp, #0
 800281a:	6078      	str	r0, [r7, #4]
 800281c:	6039      	str	r1, [r7, #0]
 HAL_UART_Transmit(huart, (uint8_t *) _out, strlen(_out), 10);
 800281e:	683b      	ldr	r3, [r7, #0]
 8002820:	0018      	movs	r0, r3
 8002822:	f7fd fc71 	bl	8000108 <strlen>
 8002826:	0003      	movs	r3, r0
 8002828:	b29a      	uxth	r2, r3
 800282a:	6839      	ldr	r1, [r7, #0]
 800282c:	6878      	ldr	r0, [r7, #4]
 800282e:	230a      	movs	r3, #10
 8002830:	f002 fcea 	bl	8005208 <HAL_UART_Transmit>
 char newline[2] = "\r\n";
 8002834:	210c      	movs	r1, #12
 8002836:	187b      	adds	r3, r7, r1
 8002838:	4a05      	ldr	r2, [pc, #20]	; (8002850 <debugPrintln+0x3c>)
 800283a:	801a      	strh	r2, [r3, #0]
 HAL_UART_Transmit(huart, (uint8_t *) newline, 2, 10);
 800283c:	1879      	adds	r1, r7, r1
 800283e:	6878      	ldr	r0, [r7, #4]
 8002840:	230a      	movs	r3, #10
 8002842:	2202      	movs	r2, #2
 8002844:	f002 fce0 	bl	8005208 <HAL_UART_Transmit>
}
 8002848:	46c0      	nop			; (mov r8, r8)
 800284a:	46bd      	mov	sp, r7
 800284c:	b004      	add	sp, #16
 800284e:	bd80      	pop	{r7, pc}
 8002850:	00000a0d 	.word	0x00000a0d

08002854 <sendToESP>:

char *sendToESP(char *data)
{
 8002854:	b590      	push	{r4, r7, lr}
 8002856:	b087      	sub	sp, #28
 8002858:	af00      	add	r7, sp, #0
 800285a:	6078      	str	r0, [r7, #4]
	char rxData[10]; //Containt data send from the ESP over UART1
	debugPrintln(&huart2, data); //Print end result AT-command for debugging
 800285c:	687a      	ldr	r2, [r7, #4]
 800285e:	4b13      	ldr	r3, [pc, #76]	; (80028ac <sendToESP+0x58>)
 8002860:	0011      	movs	r1, r2
 8002862:	0018      	movs	r0, r3
 8002864:	f7ff ffd6 	bl	8002814 <debugPrintln>
	HAL_UART_Transmit(&huart1, (uint8_t *) data, strlen(data), 100); //Send AT-command
 8002868:	687b      	ldr	r3, [r7, #4]
 800286a:	0018      	movs	r0, r3
 800286c:	f7fd fc4c 	bl	8000108 <strlen>
 8002870:	0003      	movs	r3, r0
 8002872:	b29a      	uxth	r2, r3
 8002874:	6879      	ldr	r1, [r7, #4]
 8002876:	480e      	ldr	r0, [pc, #56]	; (80028b0 <sendToESP+0x5c>)
 8002878:	2364      	movs	r3, #100	; 0x64
 800287a:	f002 fcc5 	bl	8005208 <HAL_UART_Transmit>
	HAL_UART_Receive(&huart1, (uint8_t *)rxData, 8, 100); //Get response (like OK or ERROR)
 800287e:	240c      	movs	r4, #12
 8002880:	1939      	adds	r1, r7, r4
 8002882:	480b      	ldr	r0, [pc, #44]	; (80028b0 <sendToESP+0x5c>)
 8002884:	2364      	movs	r3, #100	; 0x64
 8002886:	2208      	movs	r2, #8
 8002888:	f002 fd68 	bl	800535c <HAL_UART_Receive>
	HAL_UART_Transmit(&huart2, (uint8_t*)rxData, strlen(rxData) , 100); //Print response for debugging
 800288c:	193b      	adds	r3, r7, r4
 800288e:	0018      	movs	r0, r3
 8002890:	f7fd fc3a 	bl	8000108 <strlen>
 8002894:	0003      	movs	r3, r0
 8002896:	b29a      	uxth	r2, r3
 8002898:	1939      	adds	r1, r7, r4
 800289a:	4804      	ldr	r0, [pc, #16]	; (80028ac <sendToESP+0x58>)
 800289c:	2364      	movs	r3, #100	; 0x64
 800289e:	f002 fcb3 	bl	8005208 <HAL_UART_Transmit>
    return rxData;
 80028a2:	2300      	movs	r3, #0
}
 80028a4:	0018      	movs	r0, r3
 80028a6:	46bd      	mov	sp, r7
 80028a8:	b007      	add	sp, #28
 80028aa:	bd90      	pop	{r4, r7, pc}
 80028ac:	2000151c 	.word	0x2000151c
 80028b0:	20001458 	.word	0x20001458

080028b4 <sendESP>:
  * @param  argument: Not used
  * @retval None
  */
/* USER CODE END Header_sendESP */
void sendESP(void *argument)
{
 80028b4:	b5b0      	push	{r4, r5, r7, lr}
 80028b6:	b0bc      	sub	sp, #240	; 0xf0
 80028b8:	af02      	add	r7, sp, #8
 80028ba:	6078      	str	r0, [r7, #4]
  /* USER CODE BEGIN 5 */
  /* Infinite loop */
	//Local var. declaration.
	char response[10]; //Containt data send from the ESP over UART1
	char initCon[] = "AT+CIPSTART=\"TCP\",\"server03.hammer-tech.eu\",443";
 80028bc:	23a8      	movs	r3, #168	; 0xa8
 80028be:	18fb      	adds	r3, r7, r3
 80028c0:	4a6c      	ldr	r2, [pc, #432]	; (8002a74 <sendESP+0x1c0>)
 80028c2:	ca13      	ldmia	r2!, {r0, r1, r4}
 80028c4:	c313      	stmia	r3!, {r0, r1, r4}
 80028c6:	ca13      	ldmia	r2!, {r0, r1, r4}
 80028c8:	c313      	stmia	r3!, {r0, r1, r4}
 80028ca:	ca13      	ldmia	r2!, {r0, r1, r4}
 80028cc:	c313      	stmia	r3!, {r0, r1, r4}
 80028ce:	ca13      	ldmia	r2!, {r0, r1, r4}
 80028d0:	c313      	stmia	r3!, {r0, r1, r4}
	char initSize[] = "AT+CIPSEND=177";
 80028d2:	2398      	movs	r3, #152	; 0x98
 80028d4:	18fb      	adds	r3, r7, r3
 80028d6:	4a68      	ldr	r2, [pc, #416]	; (8002a78 <sendESP+0x1c4>)
 80028d8:	ca13      	ldmia	r2!, {r0, r1, r4}
 80028da:	c313      	stmia	r3!, {r0, r1, r4}
 80028dc:	8811      	ldrh	r1, [r2, #0]
 80028de:	8019      	strh	r1, [r3, #0]
 80028e0:	7892      	ldrb	r2, [r2, #2]
 80028e2:	709a      	strb	r2, [r3, #2]
	char data[] = "POST /weerstation/index.php HTTP/1.1r\nHost: server03.hammer-tech.eu\r\nContent-Type: application/x-www-form-urlencoded\r\nContent-Length: 37\r\n\n";
 80028e4:	230c      	movs	r3, #12
 80028e6:	18fa      	adds	r2, r7, r3
 80028e8:	4b64      	ldr	r3, [pc, #400]	; (8002a7c <sendESP+0x1c8>)
 80028ea:	0010      	movs	r0, r2
 80028ec:	0019      	movs	r1, r3
 80028ee:	238c      	movs	r3, #140	; 0x8c
 80028f0:	001a      	movs	r2, r3
 80028f2:	f005 fb73 	bl	8007fdc <memcpy>
  for(;;)
  {
	  int i;
	  for(i = 0;i != sizeof(intTemp);i++)
 80028f6:	2300      	movs	r3, #0
 80028f8:	22e4      	movs	r2, #228	; 0xe4
 80028fa:	18ba      	adds	r2, r7, r2
 80028fc:	6013      	str	r3, [r2, #0]
 80028fe:	e0af      	b.n	8002a60 <sendESP+0x1ac>
	  {
		if(intTemp[i] != 0 && intHum[i] != 0 && intPress[i] != 0 && time[i][0-15] != 0)
 8002900:	4b5f      	ldr	r3, [pc, #380]	; (8002a80 <sendESP+0x1cc>)
 8002902:	681a      	ldr	r2, [r3, #0]
 8002904:	21e4      	movs	r1, #228	; 0xe4
 8002906:	187b      	adds	r3, r7, r1
 8002908:	681b      	ldr	r3, [r3, #0]
 800290a:	009b      	lsls	r3, r3, #2
 800290c:	18d3      	adds	r3, r2, r3
 800290e:	681b      	ldr	r3, [r3, #0]
 8002910:	2b00      	cmp	r3, #0
 8002912:	d100      	bne.n	8002916 <sendESP+0x62>
 8002914:	e09a      	b.n	8002a4c <sendESP+0x198>
 8002916:	4b5b      	ldr	r3, [pc, #364]	; (8002a84 <sendESP+0x1d0>)
 8002918:	681a      	ldr	r2, [r3, #0]
 800291a:	187b      	adds	r3, r7, r1
 800291c:	681b      	ldr	r3, [r3, #0]
 800291e:	009b      	lsls	r3, r3, #2
 8002920:	18d3      	adds	r3, r2, r3
 8002922:	681b      	ldr	r3, [r3, #0]
 8002924:	2b00      	cmp	r3, #0
 8002926:	d100      	bne.n	800292a <sendESP+0x76>
 8002928:	e090      	b.n	8002a4c <sendESP+0x198>
 800292a:	4b57      	ldr	r3, [pc, #348]	; (8002a88 <sendESP+0x1d4>)
 800292c:	681a      	ldr	r2, [r3, #0]
 800292e:	187b      	adds	r3, r7, r1
 8002930:	681b      	ldr	r3, [r3, #0]
 8002932:	009b      	lsls	r3, r3, #2
 8002934:	18d3      	adds	r3, r2, r3
 8002936:	681b      	ldr	r3, [r3, #0]
 8002938:	2b00      	cmp	r3, #0
 800293a:	d100      	bne.n	800293e <sendESP+0x8a>
 800293c:	e086      	b.n	8002a4c <sendESP+0x198>
 800293e:	4a53      	ldr	r2, [pc, #332]	; (8002a8c <sendESP+0x1d8>)
 8002940:	187b      	adds	r3, r7, r1
 8002942:	681b      	ldr	r3, [r3, #0]
 8002944:	011b      	lsls	r3, r3, #4
 8002946:	18d3      	adds	r3, r2, r3
 8002948:	3b0f      	subs	r3, #15
 800294a:	781b      	ldrb	r3, [r3, #0]
 800294c:	2b00      	cmp	r3, #0
 800294e:	d100      	bne.n	8002952 <sendESP+0x9e>
 8002950:	e07c      	b.n	8002a4c <sendESP+0x198>
		{
			sprintf(data, "temperatuur=%d&vochtigheid=%d&luchtdruk=%dtime=%d\r\n", intTemp[i], intHum[i], intPress[i], time[i][0-15]);
 8002952:	4b4b      	ldr	r3, [pc, #300]	; (8002a80 <sendESP+0x1cc>)
 8002954:	681a      	ldr	r2, [r3, #0]
 8002956:	187b      	adds	r3, r7, r1
 8002958:	681b      	ldr	r3, [r3, #0]
 800295a:	009b      	lsls	r3, r3, #2
 800295c:	18d3      	adds	r3, r2, r3
 800295e:	681c      	ldr	r4, [r3, #0]
 8002960:	4b48      	ldr	r3, [pc, #288]	; (8002a84 <sendESP+0x1d0>)
 8002962:	681a      	ldr	r2, [r3, #0]
 8002964:	187b      	adds	r3, r7, r1
 8002966:	681b      	ldr	r3, [r3, #0]
 8002968:	009b      	lsls	r3, r3, #2
 800296a:	18d3      	adds	r3, r2, r3
 800296c:	681d      	ldr	r5, [r3, #0]
 800296e:	4b46      	ldr	r3, [pc, #280]	; (8002a88 <sendESP+0x1d4>)
 8002970:	681a      	ldr	r2, [r3, #0]
 8002972:	0008      	movs	r0, r1
 8002974:	187b      	adds	r3, r7, r1
 8002976:	681b      	ldr	r3, [r3, #0]
 8002978:	009b      	lsls	r3, r3, #2
 800297a:	18d3      	adds	r3, r2, r3
 800297c:	681b      	ldr	r3, [r3, #0]
 800297e:	4943      	ldr	r1, [pc, #268]	; (8002a8c <sendESP+0x1d8>)
 8002980:	183a      	adds	r2, r7, r0
 8002982:	6812      	ldr	r2, [r2, #0]
 8002984:	0112      	lsls	r2, r2, #4
 8002986:	188a      	adds	r2, r1, r2
 8002988:	3a0f      	subs	r2, #15
 800298a:	7812      	ldrb	r2, [r2, #0]
 800298c:	4940      	ldr	r1, [pc, #256]	; (8002a90 <sendESP+0x1dc>)
 800298e:	200c      	movs	r0, #12
 8002990:	1838      	adds	r0, r7, r0
 8002992:	9201      	str	r2, [sp, #4]
 8002994:	9300      	str	r3, [sp, #0]
 8002996:	002b      	movs	r3, r5
 8002998:	0022      	movs	r2, r4
 800299a:	f005 fbf9 	bl	8008190 <siprintf>
			strcpy(response, sendToESP(initCon));
 800299e:	23a8      	movs	r3, #168	; 0xa8
 80029a0:	18fb      	adds	r3, r7, r3
 80029a2:	0018      	movs	r0, r3
 80029a4:	f7ff ff56 	bl	8002854 <sendToESP>
 80029a8:	0002      	movs	r2, r0
 80029aa:	24d8      	movs	r4, #216	; 0xd8
 80029ac:	193b      	adds	r3, r7, r4
 80029ae:	0011      	movs	r1, r2
 80029b0:	0018      	movs	r0, r3
 80029b2:	f005 fc0d 	bl	80081d0 <strcpy>
			//Check if there was an error
			if (strstr(response, "ERROR") != NULL)
 80029b6:	4a37      	ldr	r2, [pc, #220]	; (8002a94 <sendESP+0x1e0>)
 80029b8:	193b      	adds	r3, r7, r4
 80029ba:	0011      	movs	r1, r2
 80029bc:	0018      	movs	r0, r3
 80029be:	f005 fc0f 	bl	80081e0 <strstr>
 80029c2:	1e03      	subs	r3, r0, #0
 80029c4:	d008      	beq.n	80029d8 <sendESP+0x124>
			{
				intError = 1; //change error code to '1' for ESP related error
 80029c6:	4b34      	ldr	r3, [pc, #208]	; (8002a98 <sendESP+0x1e4>)
 80029c8:	2201      	movs	r2, #1
 80029ca:	601a      	str	r2, [r3, #0]
				debugPrintln(&huart2, "ERROR1"); // Message for debugging
 80029cc:	4a33      	ldr	r2, [pc, #204]	; (8002a9c <sendESP+0x1e8>)
 80029ce:	4b34      	ldr	r3, [pc, #208]	; (8002aa0 <sendESP+0x1ec>)
 80029d0:	0011      	movs	r1, r2
 80029d2:	0018      	movs	r0, r3
 80029d4:	f7ff ff1e 	bl	8002814 <debugPrintln>
			}
			strcpy(response, sendToESP(initSize));
 80029d8:	2398      	movs	r3, #152	; 0x98
 80029da:	18fb      	adds	r3, r7, r3
 80029dc:	0018      	movs	r0, r3
 80029de:	f7ff ff39 	bl	8002854 <sendToESP>
 80029e2:	0002      	movs	r2, r0
 80029e4:	24d8      	movs	r4, #216	; 0xd8
 80029e6:	193b      	adds	r3, r7, r4
 80029e8:	0011      	movs	r1, r2
 80029ea:	0018      	movs	r0, r3
 80029ec:	f005 fbf0 	bl	80081d0 <strcpy>
			//Check if there was an error
			if (strstr(response, "ERROR") != NULL)
 80029f0:	4a28      	ldr	r2, [pc, #160]	; (8002a94 <sendESP+0x1e0>)
 80029f2:	193b      	adds	r3, r7, r4
 80029f4:	0011      	movs	r1, r2
 80029f6:	0018      	movs	r0, r3
 80029f8:	f005 fbf2 	bl	80081e0 <strstr>
 80029fc:	1e03      	subs	r3, r0, #0
 80029fe:	d008      	beq.n	8002a12 <sendESP+0x15e>
			{
				intError = 1; //change error code to '1' for ESP related error
 8002a00:	4b25      	ldr	r3, [pc, #148]	; (8002a98 <sendESP+0x1e4>)
 8002a02:	2201      	movs	r2, #1
 8002a04:	601a      	str	r2, [r3, #0]
				debugPrintln(&huart2, "ERROR1"); // Message for debugging
 8002a06:	4a25      	ldr	r2, [pc, #148]	; (8002a9c <sendESP+0x1e8>)
 8002a08:	4b25      	ldr	r3, [pc, #148]	; (8002aa0 <sendESP+0x1ec>)
 8002a0a:	0011      	movs	r1, r2
 8002a0c:	0018      	movs	r0, r3
 8002a0e:	f7ff ff01 	bl	8002814 <debugPrintln>
			}
			strcpy(response, sendToESP(data));
 8002a12:	230c      	movs	r3, #12
 8002a14:	18fb      	adds	r3, r7, r3
 8002a16:	0018      	movs	r0, r3
 8002a18:	f7ff ff1c 	bl	8002854 <sendToESP>
 8002a1c:	0002      	movs	r2, r0
 8002a1e:	24d8      	movs	r4, #216	; 0xd8
 8002a20:	193b      	adds	r3, r7, r4
 8002a22:	0011      	movs	r1, r2
 8002a24:	0018      	movs	r0, r3
 8002a26:	f005 fbd3 	bl	80081d0 <strcpy>
			//Check if there was an error
			if (strstr(response, "ERROR") != NULL)
 8002a2a:	4a1a      	ldr	r2, [pc, #104]	; (8002a94 <sendESP+0x1e0>)
 8002a2c:	193b      	adds	r3, r7, r4
 8002a2e:	0011      	movs	r1, r2
 8002a30:	0018      	movs	r0, r3
 8002a32:	f005 fbd5 	bl	80081e0 <strstr>
 8002a36:	1e03      	subs	r3, r0, #0
 8002a38:	d008      	beq.n	8002a4c <sendESP+0x198>
			{
				intError = 1; //change error code to '1' for ESP related error
 8002a3a:	4b17      	ldr	r3, [pc, #92]	; (8002a98 <sendESP+0x1e4>)
 8002a3c:	2201      	movs	r2, #1
 8002a3e:	601a      	str	r2, [r3, #0]
				debugPrintln(&huart2, "ERROR1"); // Message for debugging
 8002a40:	4a16      	ldr	r2, [pc, #88]	; (8002a9c <sendESP+0x1e8>)
 8002a42:	4b17      	ldr	r3, [pc, #92]	; (8002aa0 <sendESP+0x1ec>)
 8002a44:	0011      	movs	r1, r2
 8002a46:	0018      	movs	r0, r3
 8002a48:	f7ff fee4 	bl	8002814 <debugPrintln>
			}
		}
		osDelay(60000); //Delay for sending #1min
 8002a4c:	4b15      	ldr	r3, [pc, #84]	; (8002aa4 <sendESP+0x1f0>)
 8002a4e:	0018      	movs	r0, r3
 8002a50:	f003 f962 	bl	8005d18 <osDelay>
	  for(i = 0;i != sizeof(intTemp);i++)
 8002a54:	22e4      	movs	r2, #228	; 0xe4
 8002a56:	18bb      	adds	r3, r7, r2
 8002a58:	681b      	ldr	r3, [r3, #0]
 8002a5a:	3301      	adds	r3, #1
 8002a5c:	18ba      	adds	r2, r7, r2
 8002a5e:	6013      	str	r3, [r2, #0]
 8002a60:	22e4      	movs	r2, #228	; 0xe4
 8002a62:	18bb      	adds	r3, r7, r2
 8002a64:	681b      	ldr	r3, [r3, #0]
 8002a66:	2b04      	cmp	r3, #4
 8002a68:	d000      	beq.n	8002a6c <sendESP+0x1b8>
 8002a6a:	e749      	b.n	8002900 <sendESP+0x4c>
	  }
	  i = 0;
 8002a6c:	2300      	movs	r3, #0
 8002a6e:	18ba      	adds	r2, r7, r2
 8002a70:	6013      	str	r3, [r2, #0]
  {
 8002a72:	e740      	b.n	80028f6 <sendESP+0x42>
 8002a74:	08008918 	.word	0x08008918
 8002a78:	08008948 	.word	0x08008948
 8002a7c:	08008958 	.word	0x08008958
 8002a80:	200015a0 	.word	0x200015a0
 8002a84:	200014e0 	.word	0x200014e0
 8002a88:	200013ac 	.word	0x200013ac
 8002a8c:	2000008c 	.word	0x2000008c
 8002a90:	080088d4 	.word	0x080088d4
 8002a94:	08008908 	.word	0x08008908
 8002a98:	200014dc 	.word	0x200014dc
 8002a9c:	08008910 	.word	0x08008910
 8002aa0:	2000151c 	.word	0x2000151c
 8002aa4:	0000ea60 	.word	0x0000ea60

08002aa8 <user_i2c_read>:
char line1[16];
char line2[16];
char line3[16];

int8_t user_i2c_read(uint8_t id, uint8_t reg_addr, uint8_t *data, uint16_t len)
{
 8002aa8:	b590      	push	{r4, r7, lr}
 8002aaa:	b085      	sub	sp, #20
 8002aac:	af02      	add	r7, sp, #8
 8002aae:	0004      	movs	r4, r0
 8002ab0:	0008      	movs	r0, r1
 8002ab2:	603a      	str	r2, [r7, #0]
 8002ab4:	0019      	movs	r1, r3
 8002ab6:	1dfb      	adds	r3, r7, #7
 8002ab8:	1c22      	adds	r2, r4, #0
 8002aba:	701a      	strb	r2, [r3, #0]
 8002abc:	1dbb      	adds	r3, r7, #6
 8002abe:	1c02      	adds	r2, r0, #0
 8002ac0:	701a      	strb	r2, [r3, #0]
 8002ac2:	1d3b      	adds	r3, r7, #4
 8002ac4:	1c0a      	adds	r2, r1, #0
 8002ac6:	801a      	strh	r2, [r3, #0]
  if(HAL_I2C_Master_Transmit(&hi2c1, (id << 1), &reg_addr, 1, 10) != HAL_OK) return -1;
 8002ac8:	1dfb      	adds	r3, r7, #7
 8002aca:	781b      	ldrb	r3, [r3, #0]
 8002acc:	b29b      	uxth	r3, r3
 8002ace:	18db      	adds	r3, r3, r3
 8002ad0:	b299      	uxth	r1, r3
 8002ad2:	1dba      	adds	r2, r7, #6
 8002ad4:	4812      	ldr	r0, [pc, #72]	; (8002b20 <user_i2c_read+0x78>)
 8002ad6:	230a      	movs	r3, #10
 8002ad8:	9300      	str	r3, [sp, #0]
 8002ada:	2301      	movs	r3, #1
 8002adc:	f000 fedc 	bl	8003898 <HAL_I2C_Master_Transmit>
 8002ae0:	1e03      	subs	r3, r0, #0
 8002ae2:	d002      	beq.n	8002aea <user_i2c_read+0x42>
 8002ae4:	2301      	movs	r3, #1
 8002ae6:	425b      	negs	r3, r3
 8002ae8:	e015      	b.n	8002b16 <user_i2c_read+0x6e>
  if(HAL_I2C_Master_Receive(&hi2c1, (id << 1) | 0x01, data, len, 10) != HAL_OK) return -1;
 8002aea:	1dfb      	adds	r3, r7, #7
 8002aec:	781b      	ldrb	r3, [r3, #0]
 8002aee:	005b      	lsls	r3, r3, #1
 8002af0:	b21b      	sxth	r3, r3
 8002af2:	2201      	movs	r2, #1
 8002af4:	4313      	orrs	r3, r2
 8002af6:	b21b      	sxth	r3, r3
 8002af8:	b299      	uxth	r1, r3
 8002afa:	1d3b      	adds	r3, r7, #4
 8002afc:	881b      	ldrh	r3, [r3, #0]
 8002afe:	683a      	ldr	r2, [r7, #0]
 8002b00:	4807      	ldr	r0, [pc, #28]	; (8002b20 <user_i2c_read+0x78>)
 8002b02:	240a      	movs	r4, #10
 8002b04:	9400      	str	r4, [sp, #0]
 8002b06:	f000 ffcf 	bl	8003aa8 <HAL_I2C_Master_Receive>
 8002b0a:	1e03      	subs	r3, r0, #0
 8002b0c:	d002      	beq.n	8002b14 <user_i2c_read+0x6c>
 8002b0e:	2301      	movs	r3, #1
 8002b10:	425b      	negs	r3, r3
 8002b12:	e000      	b.n	8002b16 <user_i2c_read+0x6e>

  return 0;
 8002b14:	2300      	movs	r3, #0
}
 8002b16:	0018      	movs	r0, r3
 8002b18:	46bd      	mov	sp, r7
 8002b1a:	b003      	add	sp, #12
 8002b1c:	bd90      	pop	{r4, r7, pc}
 8002b1e:	46c0      	nop			; (mov r8, r8)
 8002b20:	200013b4 	.word	0x200013b4

08002b24 <user_delay_ms>:

void user_delay_ms(uint32_t period)
{
 8002b24:	b580      	push	{r7, lr}
 8002b26:	b082      	sub	sp, #8
 8002b28:	af00      	add	r7, sp, #0
 8002b2a:	6078      	str	r0, [r7, #4]
  HAL_Delay(period);
 8002b2c:	687b      	ldr	r3, [r7, #4]
 8002b2e:	0018      	movs	r0, r3
 8002b30:	f000 fbbc 	bl	80032ac <HAL_Delay>
}
 8002b34:	46c0      	nop			; (mov r8, r8)
 8002b36:	46bd      	mov	sp, r7
 8002b38:	b002      	add	sp, #8
 8002b3a:	bd80      	pop	{r7, pc}

08002b3c <user_i2c_write>:

int8_t user_i2c_write(uint8_t id, uint8_t reg_addr, uint8_t *data, uint16_t len)
{
 8002b3c:	b590      	push	{r4, r7, lr}
 8002b3e:	b087      	sub	sp, #28
 8002b40:	af02      	add	r7, sp, #8
 8002b42:	0004      	movs	r4, r0
 8002b44:	0008      	movs	r0, r1
 8002b46:	603a      	str	r2, [r7, #0]
 8002b48:	0019      	movs	r1, r3
 8002b4a:	1dfb      	adds	r3, r7, #7
 8002b4c:	1c22      	adds	r2, r4, #0
 8002b4e:	701a      	strb	r2, [r3, #0]
 8002b50:	1dbb      	adds	r3, r7, #6
 8002b52:	1c02      	adds	r2, r0, #0
 8002b54:	701a      	strb	r2, [r3, #0]
 8002b56:	1d3b      	adds	r3, r7, #4
 8002b58:	1c0a      	adds	r2, r1, #0
 8002b5a:	801a      	strh	r2, [r3, #0]
  int8_t *buf;
  buf = malloc(len +1);
 8002b5c:	1d3b      	adds	r3, r7, #4
 8002b5e:	881b      	ldrh	r3, [r3, #0]
 8002b60:	3301      	adds	r3, #1
 8002b62:	0018      	movs	r0, r3
 8002b64:	f005 fa26 	bl	8007fb4 <malloc>
 8002b68:	0003      	movs	r3, r0
 8002b6a:	60fb      	str	r3, [r7, #12]
  buf[0] = reg_addr;
 8002b6c:	1dbb      	adds	r3, r7, #6
 8002b6e:	2200      	movs	r2, #0
 8002b70:	569a      	ldrsb	r2, [r3, r2]
 8002b72:	68fb      	ldr	r3, [r7, #12]
 8002b74:	701a      	strb	r2, [r3, #0]
  memcpy(buf +1, data, len);
 8002b76:	68fb      	ldr	r3, [r7, #12]
 8002b78:	1c58      	adds	r0, r3, #1
 8002b7a:	1d3b      	adds	r3, r7, #4
 8002b7c:	881a      	ldrh	r2, [r3, #0]
 8002b7e:	683b      	ldr	r3, [r7, #0]
 8002b80:	0019      	movs	r1, r3
 8002b82:	f005 fa2b 	bl	8007fdc <memcpy>

  if(HAL_I2C_Master_Transmit(&hi2c1, (id << 1), (uint8_t*)buf, len + 1, HAL_MAX_DELAY) != HAL_OK) return -1;
 8002b86:	1dfb      	adds	r3, r7, #7
 8002b88:	781b      	ldrb	r3, [r3, #0]
 8002b8a:	b29b      	uxth	r3, r3
 8002b8c:	18db      	adds	r3, r3, r3
 8002b8e:	b299      	uxth	r1, r3
 8002b90:	1d3b      	adds	r3, r7, #4
 8002b92:	881b      	ldrh	r3, [r3, #0]
 8002b94:	3301      	adds	r3, #1
 8002b96:	b29c      	uxth	r4, r3
 8002b98:	68fa      	ldr	r2, [r7, #12]
 8002b9a:	480a      	ldr	r0, [pc, #40]	; (8002bc4 <user_i2c_write+0x88>)
 8002b9c:	2301      	movs	r3, #1
 8002b9e:	425b      	negs	r3, r3
 8002ba0:	9300      	str	r3, [sp, #0]
 8002ba2:	0023      	movs	r3, r4
 8002ba4:	f000 fe78 	bl	8003898 <HAL_I2C_Master_Transmit>
 8002ba8:	1e03      	subs	r3, r0, #0
 8002baa:	d002      	beq.n	8002bb2 <user_i2c_write+0x76>
 8002bac:	2301      	movs	r3, #1
 8002bae:	425b      	negs	r3, r3
 8002bb0:	e004      	b.n	8002bbc <user_i2c_write+0x80>

  free(buf);
 8002bb2:	68fb      	ldr	r3, [r7, #12]
 8002bb4:	0018      	movs	r0, r3
 8002bb6:	f005 fa07 	bl	8007fc8 <free>
  return 0;
 8002bba:	2300      	movs	r3, #0
}
 8002bbc:	0018      	movs	r0, r3
 8002bbe:	46bd      	mov	sp, r7
 8002bc0:	b005      	add	sp, #20
 8002bc2:	bd90      	pop	{r4, r7, pc}
 8002bc4:	200013b4 	.word	0x200013b4

08002bc8 <readData>:

/* USER CODE END Header_readData */
void readData(void *argument)
{
 8002bc8:	b590      	push	{r4, r7, lr}
 8002bca:	b083      	sub	sp, #12
 8002bcc:	af00      	add	r7, sp, #0
 8002bce:	6078      	str	r0, [r7, #4]
  /* USER CODE BEGIN readData */
	/* BME280  */
	  dev.dev_id = BME280_I2C_ADDR_SEC;
 8002bd0:	4b42      	ldr	r3, [pc, #264]	; (8002cdc <readData+0x114>)
 8002bd2:	2277      	movs	r2, #119	; 0x77
 8002bd4:	705a      	strb	r2, [r3, #1]
	  dev.intf = BME280_I2C_INTF;
 8002bd6:	4b41      	ldr	r3, [pc, #260]	; (8002cdc <readData+0x114>)
 8002bd8:	2201      	movs	r2, #1
 8002bda:	709a      	strb	r2, [r3, #2]
	  dev.read = user_i2c_read;
 8002bdc:	4b3f      	ldr	r3, [pc, #252]	; (8002cdc <readData+0x114>)
 8002bde:	4a40      	ldr	r2, [pc, #256]	; (8002ce0 <readData+0x118>)
 8002be0:	605a      	str	r2, [r3, #4]
	  dev.write = user_i2c_write;
 8002be2:	4b3e      	ldr	r3, [pc, #248]	; (8002cdc <readData+0x114>)
 8002be4:	4a3f      	ldr	r2, [pc, #252]	; (8002ce4 <readData+0x11c>)
 8002be6:	609a      	str	r2, [r3, #8]
	  dev.delay_ms = user_delay_ms;
 8002be8:	4b3c      	ldr	r3, [pc, #240]	; (8002cdc <readData+0x114>)
 8002bea:	4a3f      	ldr	r2, [pc, #252]	; (8002ce8 <readData+0x120>)
 8002bec:	60da      	str	r2, [r3, #12]

	  rslt = bme280_init(&dev);
 8002bee:	4b3b      	ldr	r3, [pc, #236]	; (8002cdc <readData+0x114>)
 8002bf0:	0018      	movs	r0, r3
 8002bf2:	f7fd ffef 	bl	8000bd4 <bme280_init>
 8002bf6:	0003      	movs	r3, r0
 8002bf8:	001a      	movs	r2, r3
 8002bfa:	4b3c      	ldr	r3, [pc, #240]	; (8002cec <readData+0x124>)
 8002bfc:	701a      	strb	r2, [r3, #0]

	  /* BME280  */
	  dev.settings.osr_h = BME280_OVERSAMPLING_1X;
 8002bfe:	4b37      	ldr	r3, [pc, #220]	; (8002cdc <readData+0x114>)
 8002c00:	223a      	movs	r2, #58	; 0x3a
 8002c02:	2101      	movs	r1, #1
 8002c04:	5499      	strb	r1, [r3, r2]
	  dev.settings.osr_p = BME280_OVERSAMPLING_16X;
 8002c06:	4b35      	ldr	r3, [pc, #212]	; (8002cdc <readData+0x114>)
 8002c08:	2238      	movs	r2, #56	; 0x38
 8002c0a:	2105      	movs	r1, #5
 8002c0c:	5499      	strb	r1, [r3, r2]
	  dev.settings.osr_t = BME280_OVERSAMPLING_2X;
 8002c0e:	4b33      	ldr	r3, [pc, #204]	; (8002cdc <readData+0x114>)
 8002c10:	2239      	movs	r2, #57	; 0x39
 8002c12:	2102      	movs	r1, #2
 8002c14:	5499      	strb	r1, [r3, r2]
	  dev.settings.filter = BME280_FILTER_COEFF_16;
 8002c16:	4b31      	ldr	r3, [pc, #196]	; (8002cdc <readData+0x114>)
 8002c18:	223b      	movs	r2, #59	; 0x3b
 8002c1a:	2104      	movs	r1, #4
 8002c1c:	5499      	strb	r1, [r3, r2]
	  rslt = bme280_set_sensor_settings(BME280_OSR_PRESS_SEL | BME280_OSR_TEMP_SEL | BME280_OSR_HUM_SEL | BME280_FILTER_SEL, &dev);
 8002c1e:	4b2f      	ldr	r3, [pc, #188]	; (8002cdc <readData+0x114>)
 8002c20:	0019      	movs	r1, r3
 8002c22:	200f      	movs	r0, #15
 8002c24:	f7fe f91d 	bl	8000e62 <bme280_set_sensor_settings>
 8002c28:	0003      	movs	r3, r0
 8002c2a:	001a      	movs	r2, r3
 8002c2c:	4b2f      	ldr	r3, [pc, #188]	; (8002cec <readData+0x124>)
 8002c2e:	701a      	strb	r2, [r3, #0]
  /* Infinite loop */
  for(;;)
  {
	  /* USER CODE BEGIN 3 */
	      /* FORCED  ,   SLEEP  ? */
	      rslt = bme280_set_sensor_mode(BME280_FORCED_MODE, &dev);
 8002c30:	4b2a      	ldr	r3, [pc, #168]	; (8002cdc <readData+0x114>)
 8002c32:	0019      	movs	r1, r3
 8002c34:	2001      	movs	r0, #1
 8002c36:	f7fe f97f 	bl	8000f38 <bme280_set_sensor_mode>
 8002c3a:	0003      	movs	r3, r0
 8002c3c:	001a      	movs	r2, r3
 8002c3e:	4b2b      	ldr	r3, [pc, #172]	; (8002cec <readData+0x124>)
 8002c40:	701a      	strb	r2, [r3, #0]
	      dev.delay_ms(40);
 8002c42:	4b26      	ldr	r3, [pc, #152]	; (8002cdc <readData+0x114>)
 8002c44:	68db      	ldr	r3, [r3, #12]
 8002c46:	2028      	movs	r0, #40	; 0x28
 8002c48:	4798      	blx	r3
	      /* ?? ? */
	      rslt = bme280_get_sensor_data(BME280_ALL, &comp_data, &dev);
 8002c4a:	4a24      	ldr	r2, [pc, #144]	; (8002cdc <readData+0x114>)
 8002c4c:	4b28      	ldr	r3, [pc, #160]	; (8002cf0 <readData+0x128>)
 8002c4e:	0019      	movs	r1, r3
 8002c50:	2007      	movs	r0, #7
 8002c52:	f7fe fa11 	bl	8001078 <bme280_get_sensor_data>
 8002c56:	0003      	movs	r3, r0
 8002c58:	001a      	movs	r2, r3
 8002c5a:	4b24      	ldr	r3, [pc, #144]	; (8002cec <readData+0x124>)
 8002c5c:	701a      	strb	r2, [r3, #0]
	      if(rslt == BME280_OK)
 8002c5e:	4b23      	ldr	r3, [pc, #140]	; (8002cec <readData+0x124>)
 8002c60:	781b      	ldrb	r3, [r3, #0]
 8002c62:	b25b      	sxtb	r3, r3
 8002c64:	2b00      	cmp	r3, #0
 8002c66:	d1e3      	bne.n	8002c30 <readData+0x68>
	      {
	    	*intTemp = comp_data.intTemp / 100.0;      /* C  */
 8002c68:	4b21      	ldr	r3, [pc, #132]	; (8002cf0 <readData+0x128>)
 8002c6a:	685b      	ldr	r3, [r3, #4]
 8002c6c:	0018      	movs	r0, r3
 8002c6e:	f7fd fe71 	bl	8000954 <__aeabi_i2d>
 8002c72:	2200      	movs	r2, #0
 8002c74:	4b1f      	ldr	r3, [pc, #124]	; (8002cf4 <readData+0x12c>)
 8002c76:	f7fd fb4f 	bl	8000318 <__aeabi_ddiv>
 8002c7a:	0002      	movs	r2, r0
 8002c7c:	000b      	movs	r3, r1
 8002c7e:	491e      	ldr	r1, [pc, #120]	; (8002cf8 <readData+0x130>)
 8002c80:	680c      	ldr	r4, [r1, #0]
 8002c82:	0010      	movs	r0, r2
 8002c84:	0019      	movs	r1, r3
 8002c86:	f7fd fe2f 	bl	80008e8 <__aeabi_d2iz>
 8002c8a:	0003      	movs	r3, r0
 8002c8c:	6023      	str	r3, [r4, #0]
	    	*intHum = comp_data.intHum / 1024.0;           /* %   */
 8002c8e:	4b18      	ldr	r3, [pc, #96]	; (8002cf0 <readData+0x128>)
 8002c90:	689b      	ldr	r3, [r3, #8]
 8002c92:	0018      	movs	r0, r3
 8002c94:	f7fd fe5e 	bl	8000954 <__aeabi_i2d>
 8002c98:	2200      	movs	r2, #0
 8002c9a:	4b18      	ldr	r3, [pc, #96]	; (8002cfc <readData+0x134>)
 8002c9c:	f7fd fb3c 	bl	8000318 <__aeabi_ddiv>
 8002ca0:	0002      	movs	r2, r0
 8002ca2:	000b      	movs	r3, r1
 8002ca4:	4916      	ldr	r1, [pc, #88]	; (8002d00 <readData+0x138>)
 8002ca6:	680c      	ldr	r4, [r1, #0]
 8002ca8:	0010      	movs	r0, r2
 8002caa:	0019      	movs	r1, r3
 8002cac:	f7fd fe1c 	bl	80008e8 <__aeabi_d2iz>
 8002cb0:	0003      	movs	r3, r0
 8002cb2:	6023      	str	r3, [r4, #0]
	    	*intPress = comp_data.intPress / 10000.0;          /* hPa */
 8002cb4:	4b0e      	ldr	r3, [pc, #56]	; (8002cf0 <readData+0x128>)
 8002cb6:	681b      	ldr	r3, [r3, #0]
 8002cb8:	0018      	movs	r0, r3
 8002cba:	f7fd fe4b 	bl	8000954 <__aeabi_i2d>
 8002cbe:	2200      	movs	r2, #0
 8002cc0:	4b10      	ldr	r3, [pc, #64]	; (8002d04 <readData+0x13c>)
 8002cc2:	f7fd fb29 	bl	8000318 <__aeabi_ddiv>
 8002cc6:	0002      	movs	r2, r0
 8002cc8:	000b      	movs	r3, r1
 8002cca:	490f      	ldr	r1, [pc, #60]	; (8002d08 <readData+0x140>)
 8002ccc:	680c      	ldr	r4, [r1, #0]
 8002cce:	0010      	movs	r0, r2
 8002cd0:	0019      	movs	r1, r3
 8002cd2:	f7fd fe09 	bl	80008e8 <__aeabi_d2iz>
 8002cd6:	0003      	movs	r3, r0
 8002cd8:	6023      	str	r3, [r4, #0]
	      rslt = bme280_set_sensor_mode(BME280_FORCED_MODE, &dev);
 8002cda:	e7a9      	b.n	8002c30 <readData+0x68>
 8002cdc:	2000136c 	.word	0x2000136c
 8002ce0:	08002aa9 	.word	0x08002aa9
 8002ce4:	08002b3d 	.word	0x08002b3d
 8002ce8:	08002b25 	.word	0x08002b25
 8002cec:	200013b0 	.word	0x200013b0
 8002cf0:	20001400 	.word	0x20001400
 8002cf4:	40590000 	.word	0x40590000
 8002cf8:	200015a0 	.word	0x200015a0
 8002cfc:	40900000 	.word	0x40900000
 8002d00:	200014e0 	.word	0x200014e0
 8002d04:	40c38800 	.word	0x40c38800
 8002d08:	200013ac 	.word	0x200013ac

08002d0c <getESPtime>:
* @param argument: Not used
* @retval None
*/
/* USER CODE END Header_getESPtime */
void getESPtime(void *argument)
{
 8002d0c:	b590      	push	{r4, r7, lr}
 8002d0e:	b09b      	sub	sp, #108	; 0x6c
 8002d10:	af00      	add	r7, sp, #0
 8002d12:	6078      	str	r0, [r7, #4]
  /* USER CODE BEGIN getESPtime */
  /* Infinite loop */
	//NTPdateTime

	char response[10]; //Containt data send from the ESP over UART1
	char setNTP[] = "AT+CIPSNTPCFG=1,2,\"0.nl.pool.ntp.org\",\"1.nl.pool.ntp.org\"";
 8002d14:	231c      	movs	r3, #28
 8002d16:	18fa      	adds	r2, r7, r3
 8002d18:	4b31      	ldr	r3, [pc, #196]	; (8002de0 <getESPtime+0xd4>)
 8002d1a:	0010      	movs	r0, r2
 8002d1c:	0019      	movs	r1, r3
 8002d1e:	233a      	movs	r3, #58	; 0x3a
 8002d20:	001a      	movs	r2, r3
 8002d22:	f005 f95b 	bl	8007fdc <memcpy>
	char getDT[] = "AT+CIPSNTPTIME?";
 8002d26:	230c      	movs	r3, #12
 8002d28:	18fb      	adds	r3, r7, r3
 8002d2a:	4a2e      	ldr	r2, [pc, #184]	; (8002de4 <getESPtime+0xd8>)
 8002d2c:	ca13      	ldmia	r2!, {r0, r1, r4}
 8002d2e:	c313      	stmia	r3!, {r0, r1, r4}
 8002d30:	6812      	ldr	r2, [r2, #0]
 8002d32:	601a      	str	r2, [r3, #0]
  for(;;)
  {
	//Check if there was an error
	strcpy(response, sendToESP(setNTP));
 8002d34:	231c      	movs	r3, #28
 8002d36:	18fb      	adds	r3, r7, r3
 8002d38:	0018      	movs	r0, r3
 8002d3a:	f7ff fd8b 	bl	8002854 <sendToESP>
 8002d3e:	0002      	movs	r2, r0
 8002d40:	2458      	movs	r4, #88	; 0x58
 8002d42:	193b      	adds	r3, r7, r4
 8002d44:	0011      	movs	r1, r2
 8002d46:	0018      	movs	r0, r3
 8002d48:	f005 fa42 	bl	80081d0 <strcpy>
	if (strstr(response, "ERROR") != NULL)
 8002d4c:	4a26      	ldr	r2, [pc, #152]	; (8002de8 <getESPtime+0xdc>)
 8002d4e:	193b      	adds	r3, r7, r4
 8002d50:	0011      	movs	r1, r2
 8002d52:	0018      	movs	r0, r3
 8002d54:	f005 fa44 	bl	80081e0 <strstr>
 8002d58:	1e03      	subs	r3, r0, #0
 8002d5a:	d008      	beq.n	8002d6e <getESPtime+0x62>
	{
		intError = 1; //change error code to '1' for ESP related error
 8002d5c:	4b23      	ldr	r3, [pc, #140]	; (8002dec <getESPtime+0xe0>)
 8002d5e:	2201      	movs	r2, #1
 8002d60:	601a      	str	r2, [r3, #0]
		debugPrintln(&huart2, "ERROR1"); // Message for debugging
 8002d62:	4a23      	ldr	r2, [pc, #140]	; (8002df0 <getESPtime+0xe4>)
 8002d64:	4b23      	ldr	r3, [pc, #140]	; (8002df4 <getESPtime+0xe8>)
 8002d66:	0011      	movs	r1, r2
 8002d68:	0018      	movs	r0, r3
 8002d6a:	f7ff fd53 	bl	8002814 <debugPrintln>
	}
	osDelay(100);
 8002d6e:	2064      	movs	r0, #100	; 0x64
 8002d70:	f002 ffd2 	bl	8005d18 <osDelay>
	//Check if there was an error
	strcpy(response, sendToESP(getDT));
 8002d74:	230c      	movs	r3, #12
 8002d76:	18fb      	adds	r3, r7, r3
 8002d78:	0018      	movs	r0, r3
 8002d7a:	f7ff fd6b 	bl	8002854 <sendToESP>
 8002d7e:	0002      	movs	r2, r0
 8002d80:	2458      	movs	r4, #88	; 0x58
 8002d82:	193b      	adds	r3, r7, r4
 8002d84:	0011      	movs	r1, r2
 8002d86:	0018      	movs	r0, r3
 8002d88:	f005 fa22 	bl	80081d0 <strcpy>
	if (strstr(response, "ERROR") != NULL)
 8002d8c:	4a16      	ldr	r2, [pc, #88]	; (8002de8 <getESPtime+0xdc>)
 8002d8e:	193b      	adds	r3, r7, r4
 8002d90:	0011      	movs	r1, r2
 8002d92:	0018      	movs	r0, r3
 8002d94:	f005 fa24 	bl	80081e0 <strstr>
 8002d98:	1e03      	subs	r3, r0, #0
 8002d9a:	d009      	beq.n	8002db0 <getESPtime+0xa4>
	{
		intError = 1; //change error code to '1' for ESP related error
 8002d9c:	4b13      	ldr	r3, [pc, #76]	; (8002dec <getESPtime+0xe0>)
 8002d9e:	2201      	movs	r2, #1
 8002da0:	601a      	str	r2, [r3, #0]
		debugPrintln(&huart2, "ERROR1"); // Message for debugging
 8002da2:	4a13      	ldr	r2, [pc, #76]	; (8002df0 <getESPtime+0xe4>)
 8002da4:	4b13      	ldr	r3, [pc, #76]	; (8002df4 <getESPtime+0xe8>)
 8002da6:	0011      	movs	r1, r2
 8002da8:	0018      	movs	r0, r3
 8002daa:	f7ff fd33 	bl	8002814 <debugPrintln>
 8002dae:	e011      	b.n	8002dd4 <getESPtime+0xc8>
	}else{
		debugPrintln(&huart2, response); // Message for debugging
 8002db0:	2458      	movs	r4, #88	; 0x58
 8002db2:	193a      	adds	r2, r7, r4
 8002db4:	4b0f      	ldr	r3, [pc, #60]	; (8002df4 <getESPtime+0xe8>)
 8002db6:	0011      	movs	r1, r2
 8002db8:	0018      	movs	r0, r3
 8002dba:	f7ff fd2b 	bl	8002814 <debugPrintln>
		//Remove date
		char *tmp = response;
 8002dbe:	193b      	adds	r3, r7, r4
 8002dc0:	667b      	str	r3, [r7, #100]	; 0x64
		tmp += 10;
 8002dc2:	6e7b      	ldr	r3, [r7, #100]	; 0x64
 8002dc4:	330a      	adds	r3, #10
 8002dc6:	667b      	str	r3, [r7, #100]	; 0x64
		debugPrintln(&huart2, tmp); // Message for debugging
 8002dc8:	6e7a      	ldr	r2, [r7, #100]	; 0x64
 8002dca:	4b0a      	ldr	r3, [pc, #40]	; (8002df4 <getESPtime+0xe8>)
 8002dcc:	0011      	movs	r1, r2
 8002dce:	0018      	movs	r0, r3
 8002dd0:	f7ff fd20 	bl	8002814 <debugPrintln>
	}
	osDelay(60000); //Delay for sending #1min
 8002dd4:	4b08      	ldr	r3, [pc, #32]	; (8002df8 <getESPtime+0xec>)
 8002dd6:	0018      	movs	r0, r3
 8002dd8:	f002 ff9e 	bl	8005d18 <osDelay>
	strcpy(response, sendToESP(setNTP));
 8002ddc:	e7aa      	b.n	8002d34 <getESPtime+0x28>
 8002dde:	46c0      	nop			; (mov r8, r8)
 8002de0:	080089e4 	.word	0x080089e4
 8002de4:	08008a20 	.word	0x08008a20
 8002de8:	08008908 	.word	0x08008908
 8002dec:	200014dc 	.word	0x200014dc
 8002df0:	08008910 	.word	0x08008910
 8002df4:	2000151c 	.word	0x2000151c
 8002df8:	0000ea60 	.word	0x0000ea60

08002dfc <HAL_TIM_PeriodElapsedCallback>:
  * a global variable "uwTick" used as application time base.
  * @param  htim : TIM handle
  * @retval None
  */
void HAL_TIM_PeriodElapsedCallback(TIM_HandleTypeDef *htim)
{
 8002dfc:	b580      	push	{r7, lr}
 8002dfe:	b082      	sub	sp, #8
 8002e00:	af00      	add	r7, sp, #0
 8002e02:	6078      	str	r0, [r7, #4]
  /* USER CODE BEGIN Callback 0 */

  /* USER CODE END Callback 0 */
  if (htim->Instance == TIM17) {
 8002e04:	687b      	ldr	r3, [r7, #4]
 8002e06:	681b      	ldr	r3, [r3, #0]
 8002e08:	4a04      	ldr	r2, [pc, #16]	; (8002e1c <HAL_TIM_PeriodElapsedCallback+0x20>)
 8002e0a:	4293      	cmp	r3, r2
 8002e0c:	d101      	bne.n	8002e12 <HAL_TIM_PeriodElapsedCallback+0x16>
    HAL_IncTick();
 8002e0e:	f000 fa31 	bl	8003274 <HAL_IncTick>
  }
  /* USER CODE BEGIN Callback 1 */

  /* USER CODE END Callback 1 */
}
 8002e12:	46c0      	nop			; (mov r8, r8)
 8002e14:	46bd      	mov	sp, r7
 8002e16:	b002      	add	sp, #8
 8002e18:	bd80      	pop	{r7, pc}
 8002e1a:	46c0      	nop			; (mov r8, r8)
 8002e1c:	40014800 	.word	0x40014800

08002e20 <Error_Handler>:
/**
  * @brief  This function is executed in case of error occurrence.
  * @retval None
  */
void Error_Handler(void)
{
 8002e20:	b580      	push	{r7, lr}
 8002e22:	af00      	add	r7, sp, #0
  \details Disables IRQ interrupts by setting the I-bit in the CPSR.
           Can only be executed in Privileged modes.
 */
__STATIC_FORCEINLINE void __disable_irq(void)
{
  __ASM volatile ("cpsid i" : : : "memory");
 8002e24:	b672      	cpsid	i
}
 8002e26:	46c0      	nop			; (mov r8, r8)
  /* USER CODE BEGIN Error_Handler_Debug */
  /* User can add his own implementation to report the HAL error return state */
  __disable_irq();
  while (1)
 8002e28:	e7fe      	b.n	8002e28 <Error_Handler+0x8>
	...

08002e2c <HAL_MspInit>:
 8002e2c:	b580      	push	{r7, lr}
 8002e2e:	b082      	sub	sp, #8
 8002e30:	af00      	add	r7, sp, #0
 8002e32:	4b12      	ldr	r3, [pc, #72]	; (8002e7c <HAL_MspInit+0x50>)
 8002e34:	699a      	ldr	r2, [r3, #24]
 8002e36:	4b11      	ldr	r3, [pc, #68]	; (8002e7c <HAL_MspInit+0x50>)
 8002e38:	2101      	movs	r1, #1
 8002e3a:	430a      	orrs	r2, r1
 8002e3c:	619a      	str	r2, [r3, #24]
 8002e3e:	4b0f      	ldr	r3, [pc, #60]	; (8002e7c <HAL_MspInit+0x50>)
 8002e40:	699b      	ldr	r3, [r3, #24]
 8002e42:	2201      	movs	r2, #1
 8002e44:	4013      	ands	r3, r2
 8002e46:	607b      	str	r3, [r7, #4]
 8002e48:	687b      	ldr	r3, [r7, #4]
 8002e4a:	4b0c      	ldr	r3, [pc, #48]	; (8002e7c <HAL_MspInit+0x50>)
 8002e4c:	69da      	ldr	r2, [r3, #28]
 8002e4e:	4b0b      	ldr	r3, [pc, #44]	; (8002e7c <HAL_MspInit+0x50>)
 8002e50:	2180      	movs	r1, #128	; 0x80
 8002e52:	0549      	lsls	r1, r1, #21
 8002e54:	430a      	orrs	r2, r1
 8002e56:	61da      	str	r2, [r3, #28]
 8002e58:	4b08      	ldr	r3, [pc, #32]	; (8002e7c <HAL_MspInit+0x50>)
 8002e5a:	69da      	ldr	r2, [r3, #28]
 8002e5c:	2380      	movs	r3, #128	; 0x80
 8002e5e:	055b      	lsls	r3, r3, #21
 8002e60:	4013      	ands	r3, r2
 8002e62:	603b      	str	r3, [r7, #0]
 8002e64:	683b      	ldr	r3, [r7, #0]
 8002e66:	2302      	movs	r3, #2
 8002e68:	425b      	negs	r3, r3
 8002e6a:	2200      	movs	r2, #0
 8002e6c:	2103      	movs	r1, #3
 8002e6e:	0018      	movs	r0, r3
 8002e70:	f000 fac8 	bl	8003404 <HAL_NVIC_SetPriority>
 8002e74:	46c0      	nop			; (mov r8, r8)
 8002e76:	46bd      	mov	sp, r7
 8002e78:	b002      	add	sp, #8
 8002e7a:	bd80      	pop	{r7, pc}
 8002e7c:	40021000 	.word	0x40021000

08002e80 <HAL_I2C_MspInit>:
 8002e80:	b590      	push	{r4, r7, lr}
 8002e82:	b08d      	sub	sp, #52	; 0x34
 8002e84:	af00      	add	r7, sp, #0
 8002e86:	6078      	str	r0, [r7, #4]
 8002e88:	241c      	movs	r4, #28
 8002e8a:	193b      	adds	r3, r7, r4
 8002e8c:	0018      	movs	r0, r3
 8002e8e:	2314      	movs	r3, #20
 8002e90:	001a      	movs	r2, r3
 8002e92:	2100      	movs	r1, #0
 8002e94:	f005 f8ab 	bl	8007fee <memset>
 8002e98:	687b      	ldr	r3, [r7, #4]
 8002e9a:	681b      	ldr	r3, [r3, #0]
 8002e9c:	4a38      	ldr	r2, [pc, #224]	; (8002f80 <HAL_I2C_MspInit+0x100>)
 8002e9e:	4293      	cmp	r3, r2
 8002ea0:	d132      	bne.n	8002f08 <HAL_I2C_MspInit+0x88>
 8002ea2:	4b38      	ldr	r3, [pc, #224]	; (8002f84 <HAL_I2C_MspInit+0x104>)
 8002ea4:	695a      	ldr	r2, [r3, #20]
 8002ea6:	4b37      	ldr	r3, [pc, #220]	; (8002f84 <HAL_I2C_MspInit+0x104>)
 8002ea8:	2180      	movs	r1, #128	; 0x80
 8002eaa:	02c9      	lsls	r1, r1, #11
 8002eac:	430a      	orrs	r2, r1
 8002eae:	615a      	str	r2, [r3, #20]
 8002eb0:	4b34      	ldr	r3, [pc, #208]	; (8002f84 <HAL_I2C_MspInit+0x104>)
 8002eb2:	695a      	ldr	r2, [r3, #20]
 8002eb4:	2380      	movs	r3, #128	; 0x80
 8002eb6:	02db      	lsls	r3, r3, #11
 8002eb8:	4013      	ands	r3, r2
 8002eba:	61bb      	str	r3, [r7, #24]
 8002ebc:	69bb      	ldr	r3, [r7, #24]
 8002ebe:	0021      	movs	r1, r4
 8002ec0:	187b      	adds	r3, r7, r1
 8002ec2:	22c0      	movs	r2, #192	; 0xc0
 8002ec4:	601a      	str	r2, [r3, #0]
 8002ec6:	187b      	adds	r3, r7, r1
 8002ec8:	2212      	movs	r2, #18
 8002eca:	605a      	str	r2, [r3, #4]
 8002ecc:	187b      	adds	r3, r7, r1
 8002ece:	2200      	movs	r2, #0
 8002ed0:	609a      	str	r2, [r3, #8]
 8002ed2:	187b      	adds	r3, r7, r1
 8002ed4:	2203      	movs	r2, #3
 8002ed6:	60da      	str	r2, [r3, #12]
 8002ed8:	187b      	adds	r3, r7, r1
 8002eda:	2201      	movs	r2, #1
 8002edc:	611a      	str	r2, [r3, #16]
 8002ede:	187b      	adds	r3, r7, r1
 8002ee0:	4a29      	ldr	r2, [pc, #164]	; (8002f88 <HAL_I2C_MspInit+0x108>)
 8002ee2:	0019      	movs	r1, r3
 8002ee4:	0010      	movs	r0, r2
 8002ee6:	f000 fab3 	bl	8003450 <HAL_GPIO_Init>
 8002eea:	4b26      	ldr	r3, [pc, #152]	; (8002f84 <HAL_I2C_MspInit+0x104>)
 8002eec:	69da      	ldr	r2, [r3, #28]
 8002eee:	4b25      	ldr	r3, [pc, #148]	; (8002f84 <HAL_I2C_MspInit+0x104>)
 8002ef0:	2180      	movs	r1, #128	; 0x80
 8002ef2:	0389      	lsls	r1, r1, #14
 8002ef4:	430a      	orrs	r2, r1
 8002ef6:	61da      	str	r2, [r3, #28]
 8002ef8:	4b22      	ldr	r3, [pc, #136]	; (8002f84 <HAL_I2C_MspInit+0x104>)
 8002efa:	69da      	ldr	r2, [r3, #28]
 8002efc:	2380      	movs	r3, #128	; 0x80
 8002efe:	039b      	lsls	r3, r3, #14
 8002f00:	4013      	ands	r3, r2
 8002f02:	617b      	str	r3, [r7, #20]
 8002f04:	697b      	ldr	r3, [r7, #20]
 8002f06:	e037      	b.n	8002f78 <HAL_I2C_MspInit+0xf8>
 8002f08:	687b      	ldr	r3, [r7, #4]
 8002f0a:	681b      	ldr	r3, [r3, #0]
 8002f0c:	4a1f      	ldr	r2, [pc, #124]	; (8002f8c <HAL_I2C_MspInit+0x10c>)
 8002f0e:	4293      	cmp	r3, r2
 8002f10:	d132      	bne.n	8002f78 <HAL_I2C_MspInit+0xf8>
 8002f12:	4b1c      	ldr	r3, [pc, #112]	; (8002f84 <HAL_I2C_MspInit+0x104>)
 8002f14:	695a      	ldr	r2, [r3, #20]
 8002f16:	4b1b      	ldr	r3, [pc, #108]	; (8002f84 <HAL_I2C_MspInit+0x104>)
 8002f18:	2180      	movs	r1, #128	; 0x80
 8002f1a:	02c9      	lsls	r1, r1, #11
 8002f1c:	430a      	orrs	r2, r1
 8002f1e:	615a      	str	r2, [r3, #20]
 8002f20:	4b18      	ldr	r3, [pc, #96]	; (8002f84 <HAL_I2C_MspInit+0x104>)
 8002f22:	695a      	ldr	r2, [r3, #20]
 8002f24:	2380      	movs	r3, #128	; 0x80
 8002f26:	02db      	lsls	r3, r3, #11
 8002f28:	4013      	ands	r3, r2
 8002f2a:	613b      	str	r3, [r7, #16]
 8002f2c:	693b      	ldr	r3, [r7, #16]
 8002f2e:	211c      	movs	r1, #28
 8002f30:	187b      	adds	r3, r7, r1
 8002f32:	22c0      	movs	r2, #192	; 0xc0
 8002f34:	0112      	lsls	r2, r2, #4
 8002f36:	601a      	str	r2, [r3, #0]
 8002f38:	187b      	adds	r3, r7, r1
 8002f3a:	2212      	movs	r2, #18
 8002f3c:	605a      	str	r2, [r3, #4]
 8002f3e:	187b      	adds	r3, r7, r1
 8002f40:	2200      	movs	r2, #0
 8002f42:	609a      	str	r2, [r3, #8]
 8002f44:	187b      	adds	r3, r7, r1
 8002f46:	2203      	movs	r2, #3
 8002f48:	60da      	str	r2, [r3, #12]
 8002f4a:	187b      	adds	r3, r7, r1
 8002f4c:	2201      	movs	r2, #1
 8002f4e:	611a      	str	r2, [r3, #16]
 8002f50:	187b      	adds	r3, r7, r1
 8002f52:	4a0d      	ldr	r2, [pc, #52]	; (8002f88 <HAL_I2C_MspInit+0x108>)
 8002f54:	0019      	movs	r1, r3
 8002f56:	0010      	movs	r0, r2
 8002f58:	f000 fa7a 	bl	8003450 <HAL_GPIO_Init>
 8002f5c:	4b09      	ldr	r3, [pc, #36]	; (8002f84 <HAL_I2C_MspInit+0x104>)
 8002f5e:	69da      	ldr	r2, [r3, #28]
 8002f60:	4b08      	ldr	r3, [pc, #32]	; (8002f84 <HAL_I2C_MspInit+0x104>)
 8002f62:	2180      	movs	r1, #128	; 0x80
 8002f64:	03c9      	lsls	r1, r1, #15
 8002f66:	430a      	orrs	r2, r1
 8002f68:	61da      	str	r2, [r3, #28]
 8002f6a:	4b06      	ldr	r3, [pc, #24]	; (8002f84 <HAL_I2C_MspInit+0x104>)
 8002f6c:	69da      	ldr	r2, [r3, #28]
 8002f6e:	2380      	movs	r3, #128	; 0x80
 8002f70:	03db      	lsls	r3, r3, #15
 8002f72:	4013      	ands	r3, r2
 8002f74:	60fb      	str	r3, [r7, #12]
 8002f76:	68fb      	ldr	r3, [r7, #12]
 8002f78:	46c0      	nop			; (mov r8, r8)
 8002f7a:	46bd      	mov	sp, r7
 8002f7c:	b00d      	add	sp, #52	; 0x34
 8002f7e:	bd90      	pop	{r4, r7, pc}
 8002f80:	40005400 	.word	0x40005400
 8002f84:	40021000 	.word	0x40021000
 8002f88:	48000400 	.word	0x48000400
 8002f8c:	40005800 	.word	0x40005800

08002f90 <HAL_UART_MspInit>:
 8002f90:	b590      	push	{r4, r7, lr}
 8002f92:	b08d      	sub	sp, #52	; 0x34
 8002f94:	af00      	add	r7, sp, #0
 8002f96:	6078      	str	r0, [r7, #4]
 8002f98:	241c      	movs	r4, #28
 8002f9a:	193b      	adds	r3, r7, r4
 8002f9c:	0018      	movs	r0, r3
 8002f9e:	2314      	movs	r3, #20
 8002fa0:	001a      	movs	r2, r3
 8002fa2:	2100      	movs	r1, #0
 8002fa4:	f005 f823 	bl	8007fee <memset>
 8002fa8:	687b      	ldr	r3, [r7, #4]
 8002faa:	681b      	ldr	r3, [r3, #0]
 8002fac:	4a39      	ldr	r2, [pc, #228]	; (8003094 <HAL_UART_MspInit+0x104>)
 8002fae:	4293      	cmp	r3, r2
 8002fb0:	d134      	bne.n	800301c <HAL_UART_MspInit+0x8c>
 8002fb2:	4b39      	ldr	r3, [pc, #228]	; (8003098 <HAL_UART_MspInit+0x108>)
 8002fb4:	699a      	ldr	r2, [r3, #24]
 8002fb6:	4b38      	ldr	r3, [pc, #224]	; (8003098 <HAL_UART_MspInit+0x108>)
 8002fb8:	2180      	movs	r1, #128	; 0x80
 8002fba:	01c9      	lsls	r1, r1, #7
 8002fbc:	430a      	orrs	r2, r1
 8002fbe:	619a      	str	r2, [r3, #24]
 8002fc0:	4b35      	ldr	r3, [pc, #212]	; (8003098 <HAL_UART_MspInit+0x108>)
 8002fc2:	699a      	ldr	r2, [r3, #24]
 8002fc4:	2380      	movs	r3, #128	; 0x80
 8002fc6:	01db      	lsls	r3, r3, #7
 8002fc8:	4013      	ands	r3, r2
 8002fca:	61bb      	str	r3, [r7, #24]
 8002fcc:	69bb      	ldr	r3, [r7, #24]
 8002fce:	4b32      	ldr	r3, [pc, #200]	; (8003098 <HAL_UART_MspInit+0x108>)
 8002fd0:	695a      	ldr	r2, [r3, #20]
 8002fd2:	4b31      	ldr	r3, [pc, #196]	; (8003098 <HAL_UART_MspInit+0x108>)
 8002fd4:	2180      	movs	r1, #128	; 0x80
 8002fd6:	0289      	lsls	r1, r1, #10
 8002fd8:	430a      	orrs	r2, r1
 8002fda:	615a      	str	r2, [r3, #20]
 8002fdc:	4b2e      	ldr	r3, [pc, #184]	; (8003098 <HAL_UART_MspInit+0x108>)
 8002fde:	695a      	ldr	r2, [r3, #20]
 8002fe0:	2380      	movs	r3, #128	; 0x80
 8002fe2:	029b      	lsls	r3, r3, #10
 8002fe4:	4013      	ands	r3, r2
 8002fe6:	617b      	str	r3, [r7, #20]
 8002fe8:	697b      	ldr	r3, [r7, #20]
 8002fea:	193b      	adds	r3, r7, r4
 8002fec:	22c0      	movs	r2, #192	; 0xc0
 8002fee:	00d2      	lsls	r2, r2, #3
 8002ff0:	601a      	str	r2, [r3, #0]
 8002ff2:	0021      	movs	r1, r4
 8002ff4:	187b      	adds	r3, r7, r1
 8002ff6:	2202      	movs	r2, #2
 8002ff8:	605a      	str	r2, [r3, #4]
 8002ffa:	187b      	adds	r3, r7, r1
 8002ffc:	2200      	movs	r2, #0
 8002ffe:	609a      	str	r2, [r3, #8]
 8003000:	187b      	adds	r3, r7, r1
 8003002:	2203      	movs	r2, #3
 8003004:	60da      	str	r2, [r3, #12]
 8003006:	187b      	adds	r3, r7, r1
 8003008:	2201      	movs	r2, #1
 800300a:	611a      	str	r2, [r3, #16]
 800300c:	187a      	adds	r2, r7, r1
 800300e:	2390      	movs	r3, #144	; 0x90
 8003010:	05db      	lsls	r3, r3, #23
 8003012:	0011      	movs	r1, r2
 8003014:	0018      	movs	r0, r3
 8003016:	f000 fa1b 	bl	8003450 <HAL_GPIO_Init>
 800301a:	e037      	b.n	800308c <HAL_UART_MspInit+0xfc>
 800301c:	687b      	ldr	r3, [r7, #4]
 800301e:	681b      	ldr	r3, [r3, #0]
 8003020:	4a1e      	ldr	r2, [pc, #120]	; (800309c <HAL_UART_MspInit+0x10c>)
 8003022:	4293      	cmp	r3, r2
 8003024:	d132      	bne.n	800308c <HAL_UART_MspInit+0xfc>
 8003026:	4b1c      	ldr	r3, [pc, #112]	; (8003098 <HAL_UART_MspInit+0x108>)
 8003028:	69da      	ldr	r2, [r3, #28]
 800302a:	4b1b      	ldr	r3, [pc, #108]	; (8003098 <HAL_UART_MspInit+0x108>)
 800302c:	2180      	movs	r1, #128	; 0x80
 800302e:	0289      	lsls	r1, r1, #10
 8003030:	430a      	orrs	r2, r1
 8003032:	61da      	str	r2, [r3, #28]
 8003034:	4b18      	ldr	r3, [pc, #96]	; (8003098 <HAL_UART_MspInit+0x108>)
 8003036:	69da      	ldr	r2, [r3, #28]
 8003038:	2380      	movs	r3, #128	; 0x80
 800303a:	029b      	lsls	r3, r3, #10
 800303c:	4013      	ands	r3, r2
 800303e:	613b      	str	r3, [r7, #16]
 8003040:	693b      	ldr	r3, [r7, #16]
 8003042:	4b15      	ldr	r3, [pc, #84]	; (8003098 <HAL_UART_MspInit+0x108>)
 8003044:	695a      	ldr	r2, [r3, #20]
 8003046:	4b14      	ldr	r3, [pc, #80]	; (8003098 <HAL_UART_MspInit+0x108>)
 8003048:	2180      	movs	r1, #128	; 0x80
 800304a:	0289      	lsls	r1, r1, #10
 800304c:	430a      	orrs	r2, r1
 800304e:	615a      	str	r2, [r3, #20]
 8003050:	4b11      	ldr	r3, [pc, #68]	; (8003098 <HAL_UART_MspInit+0x108>)
 8003052:	695a      	ldr	r2, [r3, #20]
 8003054:	2380      	movs	r3, #128	; 0x80
 8003056:	029b      	lsls	r3, r3, #10
 8003058:	4013      	ands	r3, r2
 800305a:	60fb      	str	r3, [r7, #12]
 800305c:	68fb      	ldr	r3, [r7, #12]
 800305e:	211c      	movs	r1, #28
 8003060:	187b      	adds	r3, r7, r1
 8003062:	220c      	movs	r2, #12
 8003064:	601a      	str	r2, [r3, #0]
 8003066:	187b      	adds	r3, r7, r1
 8003068:	2202      	movs	r2, #2
 800306a:	605a      	str	r2, [r3, #4]
 800306c:	187b      	adds	r3, r7, r1
 800306e:	2200      	movs	r2, #0
 8003070:	609a      	str	r2, [r3, #8]
 8003072:	187b      	adds	r3, r7, r1
 8003074:	2200      	movs	r2, #0
 8003076:	60da      	str	r2, [r3, #12]
 8003078:	187b      	adds	r3, r7, r1
 800307a:	2201      	movs	r2, #1
 800307c:	611a      	str	r2, [r3, #16]
 800307e:	187a      	adds	r2, r7, r1
 8003080:	2390      	movs	r3, #144	; 0x90
 8003082:	05db      	lsls	r3, r3, #23
 8003084:	0011      	movs	r1, r2
 8003086:	0018      	movs	r0, r3
 8003088:	f000 f9e2 	bl	8003450 <HAL_GPIO_Init>
 800308c:	46c0      	nop			; (mov r8, r8)
 800308e:	46bd      	mov	sp, r7
 8003090:	b00d      	add	sp, #52	; 0x34
 8003092:	bd90      	pop	{r4, r7, pc}
 8003094:	40013800 	.word	0x40013800
 8003098:	40021000 	.word	0x40021000
 800309c:	40004400 	.word	0x40004400

080030a0 <HAL_InitTick>:
 80030a0:	b580      	push	{r7, lr}
 80030a2:	b08a      	sub	sp, #40	; 0x28
 80030a4:	af00      	add	r7, sp, #0
 80030a6:	6078      	str	r0, [r7, #4]
 80030a8:	2300      	movs	r3, #0
 80030aa:	627b      	str	r3, [r7, #36]	; 0x24
 80030ac:	2300      	movs	r3, #0
 80030ae:	623b      	str	r3, [r7, #32]
 80030b0:	687b      	ldr	r3, [r7, #4]
 80030b2:	2200      	movs	r2, #0
 80030b4:	0019      	movs	r1, r3
 80030b6:	2016      	movs	r0, #22
 80030b8:	f000 f9a4 	bl	8003404 <HAL_NVIC_SetPriority>
 80030bc:	2016      	movs	r0, #22
 80030be:	f000 f9b6 	bl	800342e <HAL_NVIC_EnableIRQ>
 80030c2:	4b21      	ldr	r3, [pc, #132]	; (8003148 <HAL_InitTick+0xa8>)
 80030c4:	699a      	ldr	r2, [r3, #24]
 80030c6:	4b20      	ldr	r3, [pc, #128]	; (8003148 <HAL_InitTick+0xa8>)
 80030c8:	2180      	movs	r1, #128	; 0x80
 80030ca:	02c9      	lsls	r1, r1, #11
 80030cc:	430a      	orrs	r2, r1
 80030ce:	619a      	str	r2, [r3, #24]
 80030d0:	4b1d      	ldr	r3, [pc, #116]	; (8003148 <HAL_InitTick+0xa8>)
 80030d2:	699a      	ldr	r2, [r3, #24]
 80030d4:	2380      	movs	r3, #128	; 0x80
 80030d6:	02db      	lsls	r3, r3, #11
 80030d8:	4013      	ands	r3, r2
 80030da:	60bb      	str	r3, [r7, #8]
 80030dc:	68bb      	ldr	r3, [r7, #8]
 80030de:	230c      	movs	r3, #12
 80030e0:	18fa      	adds	r2, r7, r3
 80030e2:	2310      	movs	r3, #16
 80030e4:	18fb      	adds	r3, r7, r3
 80030e6:	0011      	movs	r1, r2
 80030e8:	0018      	movs	r0, r3
 80030ea:	f001 fce1 	bl	8004ab0 <HAL_RCC_GetClockConfig>
 80030ee:	f001 fcc9 	bl	8004a84 <HAL_RCC_GetPCLK1Freq>
 80030f2:	0003      	movs	r3, r0
 80030f4:	627b      	str	r3, [r7, #36]	; 0x24
 80030f6:	6a7b      	ldr	r3, [r7, #36]	; 0x24
 80030f8:	4914      	ldr	r1, [pc, #80]	; (800314c <HAL_InitTick+0xac>)
 80030fa:	0018      	movs	r0, r3
 80030fc:	f7fd f816 	bl	800012c <__udivsi3>
 8003100:	0003      	movs	r3, r0
 8003102:	3b01      	subs	r3, #1
 8003104:	623b      	str	r3, [r7, #32]
 8003106:	4b12      	ldr	r3, [pc, #72]	; (8003150 <HAL_InitTick+0xb0>)
 8003108:	4a12      	ldr	r2, [pc, #72]	; (8003154 <HAL_InitTick+0xb4>)
 800310a:	601a      	str	r2, [r3, #0]
 800310c:	4b10      	ldr	r3, [pc, #64]	; (8003150 <HAL_InitTick+0xb0>)
 800310e:	4a12      	ldr	r2, [pc, #72]	; (8003158 <HAL_InitTick+0xb8>)
 8003110:	60da      	str	r2, [r3, #12]
 8003112:	4b0f      	ldr	r3, [pc, #60]	; (8003150 <HAL_InitTick+0xb0>)
 8003114:	6a3a      	ldr	r2, [r7, #32]
 8003116:	605a      	str	r2, [r3, #4]
 8003118:	4b0d      	ldr	r3, [pc, #52]	; (8003150 <HAL_InitTick+0xb0>)
 800311a:	2200      	movs	r2, #0
 800311c:	611a      	str	r2, [r3, #16]
 800311e:	4b0c      	ldr	r3, [pc, #48]	; (8003150 <HAL_InitTick+0xb0>)
 8003120:	2200      	movs	r2, #0
 8003122:	609a      	str	r2, [r3, #8]
 8003124:	4b0a      	ldr	r3, [pc, #40]	; (8003150 <HAL_InitTick+0xb0>)
 8003126:	0018      	movs	r0, r3
 8003128:	f001 fdba 	bl	8004ca0 <HAL_TIM_Base_Init>
 800312c:	1e03      	subs	r3, r0, #0
 800312e:	d105      	bne.n	800313c <HAL_InitTick+0x9c>
 8003130:	4b07      	ldr	r3, [pc, #28]	; (8003150 <HAL_InitTick+0xb0>)
 8003132:	0018      	movs	r0, r3
 8003134:	f001 fe0c 	bl	8004d50 <HAL_TIM_Base_Start_IT>
 8003138:	0003      	movs	r3, r0
 800313a:	e000      	b.n	800313e <HAL_InitTick+0x9e>
 800313c:	2301      	movs	r3, #1
 800313e:	0018      	movs	r0, r3
 8003140:	46bd      	mov	sp, r7
 8003142:	b00a      	add	sp, #40	; 0x28
 8003144:	bd80      	pop	{r7, pc}
 8003146:	46c0      	nop			; (mov r8, r8)
 8003148:	40021000 	.word	0x40021000
 800314c:	000f4240 	.word	0x000f4240
 8003150:	200015a4 	.word	0x200015a4
 8003154:	40014800 	.word	0x40014800
 8003158:	000003e7 	.word	0x000003e7

0800315c <NMI_Handler>:
 800315c:	b580      	push	{r7, lr}
 800315e:	af00      	add	r7, sp, #0
 8003160:	e7fe      	b.n	8003160 <NMI_Handler+0x4>

08003162 <HardFault_Handler>:
 8003162:	b580      	push	{r7, lr}
 8003164:	af00      	add	r7, sp, #0
 8003166:	e7fe      	b.n	8003166 <HardFault_Handler+0x4>

08003168 <TIM17_IRQHandler>:
 8003168:	b580      	push	{r7, lr}
 800316a:	af00      	add	r7, sp, #0
 800316c:	4b03      	ldr	r3, [pc, #12]	; (800317c <TIM17_IRQHandler+0x14>)
 800316e:	0018      	movs	r0, r3
 8003170:	f001 fe3a 	bl	8004de8 <HAL_TIM_IRQHandler>
 8003174:	46c0      	nop			; (mov r8, r8)
 8003176:	46bd      	mov	sp, r7
 8003178:	bd80      	pop	{r7, pc}
 800317a:	46c0      	nop			; (mov r8, r8)
 800317c:	200015a4 	.word	0x200015a4

08003180 <_sbrk>:
 8003180:	b580      	push	{r7, lr}
 8003182:	b086      	sub	sp, #24
 8003184:	af00      	add	r7, sp, #0
 8003186:	6078      	str	r0, [r7, #4]
 8003188:	4a14      	ldr	r2, [pc, #80]	; (80031dc <_sbrk+0x5c>)
 800318a:	4b15      	ldr	r3, [pc, #84]	; (80031e0 <_sbrk+0x60>)
 800318c:	1ad3      	subs	r3, r2, r3
 800318e:	617b      	str	r3, [r7, #20]
 8003190:	697b      	ldr	r3, [r7, #20]
 8003192:	613b      	str	r3, [r7, #16]
 8003194:	4b13      	ldr	r3, [pc, #76]	; (80031e4 <_sbrk+0x64>)
 8003196:	681b      	ldr	r3, [r3, #0]
 8003198:	2b00      	cmp	r3, #0
 800319a:	d102      	bne.n	80031a2 <_sbrk+0x22>
 800319c:	4b11      	ldr	r3, [pc, #68]	; (80031e4 <_sbrk+0x64>)
 800319e:	4a12      	ldr	r2, [pc, #72]	; (80031e8 <_sbrk+0x68>)
 80031a0:	601a      	str	r2, [r3, #0]
 80031a2:	4b10      	ldr	r3, [pc, #64]	; (80031e4 <_sbrk+0x64>)
 80031a4:	681a      	ldr	r2, [r3, #0]
 80031a6:	687b      	ldr	r3, [r7, #4]
 80031a8:	18d3      	adds	r3, r2, r3
 80031aa:	693a      	ldr	r2, [r7, #16]
 80031ac:	429a      	cmp	r2, r3
 80031ae:	d207      	bcs.n	80031c0 <_sbrk+0x40>
 80031b0:	f004 fed6 	bl	8007f60 <__errno>
 80031b4:	0003      	movs	r3, r0
 80031b6:	220c      	movs	r2, #12
 80031b8:	601a      	str	r2, [r3, #0]
 80031ba:	2301      	movs	r3, #1
 80031bc:	425b      	negs	r3, r3
 80031be:	e009      	b.n	80031d4 <_sbrk+0x54>
 80031c0:	4b08      	ldr	r3, [pc, #32]	; (80031e4 <_sbrk+0x64>)
 80031c2:	681b      	ldr	r3, [r3, #0]
 80031c4:	60fb      	str	r3, [r7, #12]
 80031c6:	4b07      	ldr	r3, [pc, #28]	; (80031e4 <_sbrk+0x64>)
 80031c8:	681a      	ldr	r2, [r3, #0]
 80031ca:	687b      	ldr	r3, [r7, #4]
 80031cc:	18d2      	adds	r2, r2, r3
 80031ce:	4b05      	ldr	r3, [pc, #20]	; (80031e4 <_sbrk+0x64>)
 80031d0:	601a      	str	r2, [r3, #0]
 80031d2:	68fb      	ldr	r3, [r7, #12]
 80031d4:	0018      	movs	r0, r3
 80031d6:	46bd      	mov	sp, r7
 80031d8:	b006      	add	sp, #24
 80031da:	bd80      	pop	{r7, pc}
 80031dc:	20002000 	.word	0x20002000
 80031e0:	00000400 	.word	0x00000400
 80031e4:	2000012c 	.word	0x2000012c
 80031e8:	20001640 	.word	0x20001640

080031ec <SystemInit>:
 80031ec:	b580      	push	{r7, lr}
 80031ee:	af00      	add	r7, sp, #0
 80031f0:	46c0      	nop			; (mov r8, r8)
 80031f2:	46bd      	mov	sp, r7
 80031f4:	bd80      	pop	{r7, pc}
	...

080031f8 <Reset_Handler>:
 80031f8:	480d      	ldr	r0, [pc, #52]	; (8003230 <LoopForever+0x2>)
 80031fa:	4685      	mov	sp, r0
 80031fc:	480d      	ldr	r0, [pc, #52]	; (8003234 <LoopForever+0x6>)
 80031fe:	490e      	ldr	r1, [pc, #56]	; (8003238 <LoopForever+0xa>)
 8003200:	4a0e      	ldr	r2, [pc, #56]	; (800323c <LoopForever+0xe>)
 8003202:	2300      	movs	r3, #0
 8003204:	e002      	b.n	800320c <LoopCopyDataInit>

08003206 <CopyDataInit>:
 8003206:	58d4      	ldr	r4, [r2, r3]
 8003208:	50c4      	str	r4, [r0, r3]
 800320a:	3304      	adds	r3, #4

0800320c <LoopCopyDataInit>:
 800320c:	18c4      	adds	r4, r0, r3
 800320e:	428c      	cmp	r4, r1
 8003210:	d3f9      	bcc.n	8003206 <CopyDataInit>
 8003212:	4a0b      	ldr	r2, [pc, #44]	; (8003240 <LoopForever+0x12>)
 8003214:	4c0b      	ldr	r4, [pc, #44]	; (8003244 <LoopForever+0x16>)
 8003216:	2300      	movs	r3, #0
 8003218:	e001      	b.n	800321e <LoopFillZerobss>

0800321a <FillZerobss>:
 800321a:	6013      	str	r3, [r2, #0]
 800321c:	3204      	adds	r2, #4

0800321e <LoopFillZerobss>:
 800321e:	42a2      	cmp	r2, r4
 8003220:	d3fb      	bcc.n	800321a <FillZerobss>
 8003222:	f7ff ffe3 	bl	80031ec <SystemInit>
 8003226:	f004 fea1 	bl	8007f6c <__libc_init_array>
 800322a:	f7ff f8d1 	bl	80023d0 <main>

0800322e <LoopForever>:
 800322e:	e7fe      	b.n	800322e <LoopForever>
 8003230:	20002000 	.word	0x20002000
 8003234:	20000000 	.word	0x20000000
 8003238:	20000070 	.word	0x20000070
 800323c:	08008b98 	.word	0x08008b98
 8003240:	20000070 	.word	0x20000070
 8003244:	20001640 	.word	0x20001640

08003248 <ADC1_IRQHandler>:
 8003248:	e7fe      	b.n	8003248 <ADC1_IRQHandler>
	...

0800324c <HAL_Init>:
 800324c:	b580      	push	{r7, lr}
 800324e:	af00      	add	r7, sp, #0
 8003250:	4b07      	ldr	r3, [pc, #28]	; (8003270 <HAL_Init+0x24>)
 8003252:	681a      	ldr	r2, [r3, #0]
 8003254:	4b06      	ldr	r3, [pc, #24]	; (8003270 <HAL_Init+0x24>)
 8003256:	2110      	movs	r1, #16
 8003258:	430a      	orrs	r2, r1
 800325a:	601a      	str	r2, [r3, #0]
 800325c:	2003      	movs	r0, #3
 800325e:	f7ff ff1f 	bl	80030a0 <HAL_InitTick>
 8003262:	f7ff fde3 	bl	8002e2c <HAL_MspInit>
 8003266:	2300      	movs	r3, #0
 8003268:	0018      	movs	r0, r3
 800326a:	46bd      	mov	sp, r7
 800326c:	bd80      	pop	{r7, pc}
 800326e:	46c0      	nop			; (mov r8, r8)
 8003270:	40022000 	.word	0x40022000

08003274 <HAL_IncTick>:
 8003274:	b580      	push	{r7, lr}
 8003276:	af00      	add	r7, sp, #0
 8003278:	4b05      	ldr	r3, [pc, #20]	; (8003290 <HAL_IncTick+0x1c>)
 800327a:	781b      	ldrb	r3, [r3, #0]
 800327c:	001a      	movs	r2, r3
 800327e:	4b05      	ldr	r3, [pc, #20]	; (8003294 <HAL_IncTick+0x20>)
 8003280:	681b      	ldr	r3, [r3, #0]
 8003282:	18d2      	adds	r2, r2, r3
 8003284:	4b03      	ldr	r3, [pc, #12]	; (8003294 <HAL_IncTick+0x20>)
 8003286:	601a      	str	r2, [r3, #0]
 8003288:	46c0      	nop			; (mov r8, r8)
 800328a:	46bd      	mov	sp, r7
 800328c:	bd80      	pop	{r7, pc}
 800328e:	46c0      	nop			; (mov r8, r8)
 8003290:	20000004 	.word	0x20000004
 8003294:	200015ec 	.word	0x200015ec

08003298 <HAL_GetTick>:
 8003298:	b580      	push	{r7, lr}
 800329a:	af00      	add	r7, sp, #0
 800329c:	4b02      	ldr	r3, [pc, #8]	; (80032a8 <HAL_GetTick+0x10>)
 800329e:	681b      	ldr	r3, [r3, #0]
 80032a0:	0018      	movs	r0, r3
 80032a2:	46bd      	mov	sp, r7
 80032a4:	bd80      	pop	{r7, pc}
 80032a6:	46c0      	nop			; (mov r8, r8)
 80032a8:	200015ec 	.word	0x200015ec

080032ac <HAL_Delay>:
 80032ac:	b580      	push	{r7, lr}
 80032ae:	b084      	sub	sp, #16
 80032b0:	af00      	add	r7, sp, #0
 80032b2:	6078      	str	r0, [r7, #4]
 80032b4:	f7ff fff0 	bl	8003298 <HAL_GetTick>
 80032b8:	0003      	movs	r3, r0
 80032ba:	60bb      	str	r3, [r7, #8]
 80032bc:	687b      	ldr	r3, [r7, #4]
 80032be:	60fb      	str	r3, [r7, #12]
 80032c0:	68fb      	ldr	r3, [r7, #12]
 80032c2:	3301      	adds	r3, #1
 80032c4:	d005      	beq.n	80032d2 <HAL_Delay+0x26>
 80032c6:	4b0a      	ldr	r3, [pc, #40]	; (80032f0 <HAL_Delay+0x44>)
 80032c8:	781b      	ldrb	r3, [r3, #0]
 80032ca:	001a      	movs	r2, r3
 80032cc:	68fb      	ldr	r3, [r7, #12]
 80032ce:	189b      	adds	r3, r3, r2
 80032d0:	60fb      	str	r3, [r7, #12]
 80032d2:	46c0      	nop			; (mov r8, r8)
 80032d4:	f7ff ffe0 	bl	8003298 <HAL_GetTick>
 80032d8:	0002      	movs	r2, r0
 80032da:	68bb      	ldr	r3, [r7, #8]
 80032dc:	1ad3      	subs	r3, r2, r3
 80032de:	68fa      	ldr	r2, [r7, #12]
 80032e0:	429a      	cmp	r2, r3
 80032e2:	d8f7      	bhi.n	80032d4 <HAL_Delay+0x28>
 80032e4:	46c0      	nop			; (mov r8, r8)
 80032e6:	46c0      	nop			; (mov r8, r8)
 80032e8:	46bd      	mov	sp, r7
 80032ea:	b004      	add	sp, #16
 80032ec:	bd80      	pop	{r7, pc}
 80032ee:	46c0      	nop			; (mov r8, r8)
 80032f0:	20000004 	.word	0x20000004

080032f4 <__NVIC_EnableIRQ>:
 80032f4:	b580      	push	{r7, lr}
 80032f6:	b082      	sub	sp, #8
 80032f8:	af00      	add	r7, sp, #0
 80032fa:	0002      	movs	r2, r0
 80032fc:	1dfb      	adds	r3, r7, #7
 80032fe:	701a      	strb	r2, [r3, #0]
 8003300:	1dfb      	adds	r3, r7, #7
 8003302:	781b      	ldrb	r3, [r3, #0]
 8003304:	2b7f      	cmp	r3, #127	; 0x7f
 8003306:	d809      	bhi.n	800331c <__NVIC_EnableIRQ+0x28>
 8003308:	1dfb      	adds	r3, r7, #7
 800330a:	781b      	ldrb	r3, [r3, #0]
 800330c:	001a      	movs	r2, r3
 800330e:	231f      	movs	r3, #31
 8003310:	401a      	ands	r2, r3
 8003312:	4b04      	ldr	r3, [pc, #16]	; (8003324 <__NVIC_EnableIRQ+0x30>)
 8003314:	2101      	movs	r1, #1
 8003316:	4091      	lsls	r1, r2
 8003318:	000a      	movs	r2, r1
 800331a:	601a      	str	r2, [r3, #0]
 800331c:	46c0      	nop			; (mov r8, r8)
 800331e:	46bd      	mov	sp, r7
 8003320:	b002      	add	sp, #8
 8003322:	bd80      	pop	{r7, pc}
 8003324:	e000e100 	.word	0xe000e100

08003328 <__NVIC_SetPriority>:
 8003328:	b590      	push	{r4, r7, lr}
 800332a:	b083      	sub	sp, #12
 800332c:	af00      	add	r7, sp, #0
 800332e:	0002      	movs	r2, r0
 8003330:	6039      	str	r1, [r7, #0]
 8003332:	1dfb      	adds	r3, r7, #7
 8003334:	701a      	strb	r2, [r3, #0]
 8003336:	1dfb      	adds	r3, r7, #7
 8003338:	781b      	ldrb	r3, [r3, #0]
 800333a:	2b7f      	cmp	r3, #127	; 0x7f
 800333c:	d828      	bhi.n	8003390 <__NVIC_SetPriority+0x68>
 800333e:	4a2f      	ldr	r2, [pc, #188]	; (80033fc <__NVIC_SetPriority+0xd4>)
 8003340:	1dfb      	adds	r3, r7, #7
 8003342:	781b      	ldrb	r3, [r3, #0]
 8003344:	b25b      	sxtb	r3, r3
 8003346:	089b      	lsrs	r3, r3, #2
 8003348:	33c0      	adds	r3, #192	; 0xc0
 800334a:	009b      	lsls	r3, r3, #2
 800334c:	589b      	ldr	r3, [r3, r2]
 800334e:	1dfa      	adds	r2, r7, #7
 8003350:	7812      	ldrb	r2, [r2, #0]
 8003352:	0011      	movs	r1, r2
 8003354:	2203      	movs	r2, #3
 8003356:	400a      	ands	r2, r1
 8003358:	00d2      	lsls	r2, r2, #3
 800335a:	21ff      	movs	r1, #255	; 0xff
 800335c:	4091      	lsls	r1, r2
 800335e:	000a      	movs	r2, r1
 8003360:	43d2      	mvns	r2, r2
 8003362:	401a      	ands	r2, r3
 8003364:	0011      	movs	r1, r2
 8003366:	683b      	ldr	r3, [r7, #0]
 8003368:	019b      	lsls	r3, r3, #6
 800336a:	22ff      	movs	r2, #255	; 0xff
 800336c:	401a      	ands	r2, r3
 800336e:	1dfb      	adds	r3, r7, #7
 8003370:	781b      	ldrb	r3, [r3, #0]
 8003372:	0018      	movs	r0, r3
 8003374:	2303      	movs	r3, #3
 8003376:	4003      	ands	r3, r0
 8003378:	00db      	lsls	r3, r3, #3
 800337a:	409a      	lsls	r2, r3
 800337c:	481f      	ldr	r0, [pc, #124]	; (80033fc <__NVIC_SetPriority+0xd4>)
 800337e:	1dfb      	adds	r3, r7, #7
 8003380:	781b      	ldrb	r3, [r3, #0]
 8003382:	b25b      	sxtb	r3, r3
 8003384:	089b      	lsrs	r3, r3, #2
 8003386:	430a      	orrs	r2, r1
 8003388:	33c0      	adds	r3, #192	; 0xc0
 800338a:	009b      	lsls	r3, r3, #2
 800338c:	501a      	str	r2, [r3, r0]
 800338e:	e031      	b.n	80033f4 <__NVIC_SetPriority+0xcc>
 8003390:	4a1b      	ldr	r2, [pc, #108]	; (8003400 <__NVIC_SetPriority+0xd8>)
 8003392:	1dfb      	adds	r3, r7, #7
 8003394:	781b      	ldrb	r3, [r3, #0]
 8003396:	0019      	movs	r1, r3
 8003398:	230f      	movs	r3, #15
 800339a:	400b      	ands	r3, r1
 800339c:	3b08      	subs	r3, #8
 800339e:	089b      	lsrs	r3, r3, #2
 80033a0:	3306      	adds	r3, #6
 80033a2:	009b      	lsls	r3, r3, #2
 80033a4:	18d3      	adds	r3, r2, r3
 80033a6:	3304      	adds	r3, #4
 80033a8:	681b      	ldr	r3, [r3, #0]
 80033aa:	1dfa      	adds	r2, r7, #7
 80033ac:	7812      	ldrb	r2, [r2, #0]
 80033ae:	0011      	movs	r1, r2
 80033b0:	2203      	movs	r2, #3
 80033b2:	400a      	ands	r2, r1
 80033b4:	00d2      	lsls	r2, r2, #3
 80033b6:	21ff      	movs	r1, #255	; 0xff
 80033b8:	4091      	lsls	r1, r2
 80033ba:	000a      	movs	r2, r1
 80033bc:	43d2      	mvns	r2, r2
 80033be:	401a      	ands	r2, r3
 80033c0:	0011      	movs	r1, r2
 80033c2:	683b      	ldr	r3, [r7, #0]
 80033c4:	019b      	lsls	r3, r3, #6
 80033c6:	22ff      	movs	r2, #255	; 0xff
 80033c8:	401a      	ands	r2, r3
 80033ca:	1dfb      	adds	r3, r7, #7
 80033cc:	781b      	ldrb	r3, [r3, #0]
 80033ce:	0018      	movs	r0, r3
 80033d0:	2303      	movs	r3, #3
 80033d2:	4003      	ands	r3, r0
 80033d4:	00db      	lsls	r3, r3, #3
 80033d6:	409a      	lsls	r2, r3
 80033d8:	4809      	ldr	r0, [pc, #36]	; (8003400 <__NVIC_SetPriority+0xd8>)
 80033da:	1dfb      	adds	r3, r7, #7
 80033dc:	781b      	ldrb	r3, [r3, #0]
 80033de:	001c      	movs	r4, r3
 80033e0:	230f      	movs	r3, #15
 80033e2:	4023      	ands	r3, r4
 80033e4:	3b08      	subs	r3, #8
 80033e6:	089b      	lsrs	r3, r3, #2
 80033e8:	430a      	orrs	r2, r1
 80033ea:	3306      	adds	r3, #6
 80033ec:	009b      	lsls	r3, r3, #2
 80033ee:	18c3      	adds	r3, r0, r3
 80033f0:	3304      	adds	r3, #4
 80033f2:	601a      	str	r2, [r3, #0]
 80033f4:	46c0      	nop			; (mov r8, r8)
 80033f6:	46bd      	mov	sp, r7
 80033f8:	b003      	add	sp, #12
 80033fa:	bd90      	pop	{r4, r7, pc}
 80033fc:	e000e100 	.word	0xe000e100
 8003400:	e000ed00 	.word	0xe000ed00

08003404 <HAL_NVIC_SetPriority>:
 8003404:	b580      	push	{r7, lr}
 8003406:	b084      	sub	sp, #16
 8003408:	af00      	add	r7, sp, #0
 800340a:	60b9      	str	r1, [r7, #8]
 800340c:	607a      	str	r2, [r7, #4]
 800340e:	210f      	movs	r1, #15
 8003410:	187b      	adds	r3, r7, r1
 8003412:	1c02      	adds	r2, r0, #0
 8003414:	701a      	strb	r2, [r3, #0]
 8003416:	68ba      	ldr	r2, [r7, #8]
 8003418:	187b      	adds	r3, r7, r1
 800341a:	781b      	ldrb	r3, [r3, #0]
 800341c:	b25b      	sxtb	r3, r3
 800341e:	0011      	movs	r1, r2
 8003420:	0018      	movs	r0, r3
 8003422:	f7ff ff81 	bl	8003328 <__NVIC_SetPriority>
 8003426:	46c0      	nop			; (mov r8, r8)
 8003428:	46bd      	mov	sp, r7
 800342a:	b004      	add	sp, #16
 800342c:	bd80      	pop	{r7, pc}

0800342e <HAL_NVIC_EnableIRQ>:
 800342e:	b580      	push	{r7, lr}
 8003430:	b082      	sub	sp, #8
 8003432:	af00      	add	r7, sp, #0
 8003434:	0002      	movs	r2, r0
 8003436:	1dfb      	adds	r3, r7, #7
 8003438:	701a      	strb	r2, [r3, #0]
 800343a:	1dfb      	adds	r3, r7, #7
 800343c:	781b      	ldrb	r3, [r3, #0]
 800343e:	b25b      	sxtb	r3, r3
 8003440:	0018      	movs	r0, r3
 8003442:	f7ff ff57 	bl	80032f4 <__NVIC_EnableIRQ>
 8003446:	46c0      	nop			; (mov r8, r8)
 8003448:	46bd      	mov	sp, r7
 800344a:	b002      	add	sp, #8
 800344c:	bd80      	pop	{r7, pc}
	...

08003450 <HAL_GPIO_Init>:
 8003450:	b580      	push	{r7, lr}
 8003452:	b086      	sub	sp, #24
 8003454:	af00      	add	r7, sp, #0
 8003456:	6078      	str	r0, [r7, #4]
 8003458:	6039      	str	r1, [r7, #0]
 800345a:	2300      	movs	r3, #0
 800345c:	617b      	str	r3, [r7, #20]
 800345e:	e14f      	b.n	8003700 <HAL_GPIO_Init+0x2b0>
 8003460:	683b      	ldr	r3, [r7, #0]
 8003462:	681b      	ldr	r3, [r3, #0]
 8003464:	2101      	movs	r1, #1
 8003466:	697a      	ldr	r2, [r7, #20]
 8003468:	4091      	lsls	r1, r2
 800346a:	000a      	movs	r2, r1
 800346c:	4013      	ands	r3, r2
 800346e:	60fb      	str	r3, [r7, #12]
 8003470:	68fb      	ldr	r3, [r7, #12]
 8003472:	2b00      	cmp	r3, #0
 8003474:	d100      	bne.n	8003478 <HAL_GPIO_Init+0x28>
 8003476:	e140      	b.n	80036fa <HAL_GPIO_Init+0x2aa>
 8003478:	683b      	ldr	r3, [r7, #0]
 800347a:	685b      	ldr	r3, [r3, #4]
 800347c:	2203      	movs	r2, #3
 800347e:	4013      	ands	r3, r2
 8003480:	2b01      	cmp	r3, #1
 8003482:	d005      	beq.n	8003490 <HAL_GPIO_Init+0x40>
 8003484:	683b      	ldr	r3, [r7, #0]
 8003486:	685b      	ldr	r3, [r3, #4]
 8003488:	2203      	movs	r2, #3
 800348a:	4013      	ands	r3, r2
 800348c:	2b02      	cmp	r3, #2
 800348e:	d130      	bne.n	80034f2 <HAL_GPIO_Init+0xa2>
 8003490:	687b      	ldr	r3, [r7, #4]
 8003492:	689b      	ldr	r3, [r3, #8]
 8003494:	613b      	str	r3, [r7, #16]
 8003496:	697b      	ldr	r3, [r7, #20]
 8003498:	005b      	lsls	r3, r3, #1
 800349a:	2203      	movs	r2, #3
 800349c:	409a      	lsls	r2, r3
 800349e:	0013      	movs	r3, r2
 80034a0:	43da      	mvns	r2, r3
 80034a2:	693b      	ldr	r3, [r7, #16]
 80034a4:	4013      	ands	r3, r2
 80034a6:	613b      	str	r3, [r7, #16]
 80034a8:	683b      	ldr	r3, [r7, #0]
 80034aa:	68da      	ldr	r2, [r3, #12]
 80034ac:	697b      	ldr	r3, [r7, #20]
 80034ae:	005b      	lsls	r3, r3, #1
 80034b0:	409a      	lsls	r2, r3
 80034b2:	0013      	movs	r3, r2
 80034b4:	693a      	ldr	r2, [r7, #16]
 80034b6:	4313      	orrs	r3, r2
 80034b8:	613b      	str	r3, [r7, #16]
 80034ba:	687b      	ldr	r3, [r7, #4]
 80034bc:	693a      	ldr	r2, [r7, #16]
 80034be:	609a      	str	r2, [r3, #8]
 80034c0:	687b      	ldr	r3, [r7, #4]
 80034c2:	685b      	ldr	r3, [r3, #4]
 80034c4:	613b      	str	r3, [r7, #16]
 80034c6:	2201      	movs	r2, #1
 80034c8:	697b      	ldr	r3, [r7, #20]
 80034ca:	409a      	lsls	r2, r3
 80034cc:	0013      	movs	r3, r2
 80034ce:	43da      	mvns	r2, r3
 80034d0:	693b      	ldr	r3, [r7, #16]
 80034d2:	4013      	ands	r3, r2
 80034d4:	613b      	str	r3, [r7, #16]
 80034d6:	683b      	ldr	r3, [r7, #0]
 80034d8:	685b      	ldr	r3, [r3, #4]
 80034da:	091b      	lsrs	r3, r3, #4
 80034dc:	2201      	movs	r2, #1
 80034de:	401a      	ands	r2, r3
 80034e0:	697b      	ldr	r3, [r7, #20]
 80034e2:	409a      	lsls	r2, r3
 80034e4:	0013      	movs	r3, r2
 80034e6:	693a      	ldr	r2, [r7, #16]
 80034e8:	4313      	orrs	r3, r2
 80034ea:	613b      	str	r3, [r7, #16]
 80034ec:	687b      	ldr	r3, [r7, #4]
 80034ee:	693a      	ldr	r2, [r7, #16]
 80034f0:	605a      	str	r2, [r3, #4]
 80034f2:	683b      	ldr	r3, [r7, #0]
 80034f4:	685b      	ldr	r3, [r3, #4]
 80034f6:	2203      	movs	r2, #3
 80034f8:	4013      	ands	r3, r2
 80034fa:	2b03      	cmp	r3, #3
 80034fc:	d017      	beq.n	800352e <HAL_GPIO_Init+0xde>
 80034fe:	687b      	ldr	r3, [r7, #4]
 8003500:	68db      	ldr	r3, [r3, #12]
 8003502:	613b      	str	r3, [r7, #16]
 8003504:	697b      	ldr	r3, [r7, #20]
 8003506:	005b      	lsls	r3, r3, #1
 8003508:	2203      	movs	r2, #3
 800350a:	409a      	lsls	r2, r3
 800350c:	0013      	movs	r3, r2
 800350e:	43da      	mvns	r2, r3
 8003510:	693b      	ldr	r3, [r7, #16]
 8003512:	4013      	ands	r3, r2
 8003514:	613b      	str	r3, [r7, #16]
 8003516:	683b      	ldr	r3, [r7, #0]
 8003518:	689a      	ldr	r2, [r3, #8]
 800351a:	697b      	ldr	r3, [r7, #20]
 800351c:	005b      	lsls	r3, r3, #1
 800351e:	409a      	lsls	r2, r3
 8003520:	0013      	movs	r3, r2
 8003522:	693a      	ldr	r2, [r7, #16]
 8003524:	4313      	orrs	r3, r2
 8003526:	613b      	str	r3, [r7, #16]
 8003528:	687b      	ldr	r3, [r7, #4]
 800352a:	693a      	ldr	r2, [r7, #16]
 800352c:	60da      	str	r2, [r3, #12]
 800352e:	683b      	ldr	r3, [r7, #0]
 8003530:	685b      	ldr	r3, [r3, #4]
 8003532:	2203      	movs	r2, #3
 8003534:	4013      	ands	r3, r2
 8003536:	2b02      	cmp	r3, #2
 8003538:	d123      	bne.n	8003582 <HAL_GPIO_Init+0x132>
 800353a:	697b      	ldr	r3, [r7, #20]
 800353c:	08da      	lsrs	r2, r3, #3
 800353e:	687b      	ldr	r3, [r7, #4]
 8003540:	3208      	adds	r2, #8
 8003542:	0092      	lsls	r2, r2, #2
 8003544:	58d3      	ldr	r3, [r2, r3]
 8003546:	613b      	str	r3, [r7, #16]
 8003548:	697b      	ldr	r3, [r7, #20]
 800354a:	2207      	movs	r2, #7
 800354c:	4013      	ands	r3, r2
 800354e:	009b      	lsls	r3, r3, #2
 8003550:	220f      	movs	r2, #15
 8003552:	409a      	lsls	r2, r3
 8003554:	0013      	movs	r3, r2
 8003556:	43da      	mvns	r2, r3
 8003558:	693b      	ldr	r3, [r7, #16]
 800355a:	4013      	ands	r3, r2
 800355c:	613b      	str	r3, [r7, #16]
 800355e:	683b      	ldr	r3, [r7, #0]
 8003560:	691a      	ldr	r2, [r3, #16]
 8003562:	697b      	ldr	r3, [r7, #20]
 8003564:	2107      	movs	r1, #7
 8003566:	400b      	ands	r3, r1
 8003568:	009b      	lsls	r3, r3, #2
 800356a:	409a      	lsls	r2, r3
 800356c:	0013      	movs	r3, r2
 800356e:	693a      	ldr	r2, [r7, #16]
 8003570:	4313      	orrs	r3, r2
 8003572:	613b      	str	r3, [r7, #16]
 8003574:	697b      	ldr	r3, [r7, #20]
 8003576:	08da      	lsrs	r2, r3, #3
 8003578:	687b      	ldr	r3, [r7, #4]
 800357a:	3208      	adds	r2, #8
 800357c:	0092      	lsls	r2, r2, #2
 800357e:	6939      	ldr	r1, [r7, #16]
 8003580:	50d1      	str	r1, [r2, r3]
 8003582:	687b      	ldr	r3, [r7, #4]
 8003584:	681b      	ldr	r3, [r3, #0]
 8003586:	613b      	str	r3, [r7, #16]
 8003588:	697b      	ldr	r3, [r7, #20]
 800358a:	005b      	lsls	r3, r3, #1
 800358c:	2203      	movs	r2, #3
 800358e:	409a      	lsls	r2, r3
 8003590:	0013      	movs	r3, r2
 8003592:	43da      	mvns	r2, r3
 8003594:	693b      	ldr	r3, [r7, #16]
 8003596:	4013      	ands	r3, r2
 8003598:	613b      	str	r3, [r7, #16]
 800359a:	683b      	ldr	r3, [r7, #0]
 800359c:	685b      	ldr	r3, [r3, #4]
 800359e:	2203      	movs	r2, #3
 80035a0:	401a      	ands	r2, r3
 80035a2:	697b      	ldr	r3, [r7, #20]
 80035a4:	005b      	lsls	r3, r3, #1
 80035a6:	409a      	lsls	r2, r3
 80035a8:	0013      	movs	r3, r2
 80035aa:	693a      	ldr	r2, [r7, #16]
 80035ac:	4313      	orrs	r3, r2
 80035ae:	613b      	str	r3, [r7, #16]
 80035b0:	687b      	ldr	r3, [r7, #4]
 80035b2:	693a      	ldr	r2, [r7, #16]
 80035b4:	601a      	str	r2, [r3, #0]
 80035b6:	683b      	ldr	r3, [r7, #0]
 80035b8:	685a      	ldr	r2, [r3, #4]
 80035ba:	23c0      	movs	r3, #192	; 0xc0
 80035bc:	029b      	lsls	r3, r3, #10
 80035be:	4013      	ands	r3, r2
 80035c0:	d100      	bne.n	80035c4 <HAL_GPIO_Init+0x174>
 80035c2:	e09a      	b.n	80036fa <HAL_GPIO_Init+0x2aa>
 80035c4:	4b54      	ldr	r3, [pc, #336]	; (8003718 <HAL_GPIO_Init+0x2c8>)
 80035c6:	699a      	ldr	r2, [r3, #24]
 80035c8:	4b53      	ldr	r3, [pc, #332]	; (8003718 <HAL_GPIO_Init+0x2c8>)
 80035ca:	2101      	movs	r1, #1
 80035cc:	430a      	orrs	r2, r1
 80035ce:	619a      	str	r2, [r3, #24]
 80035d0:	4b51      	ldr	r3, [pc, #324]	; (8003718 <HAL_GPIO_Init+0x2c8>)
 80035d2:	699b      	ldr	r3, [r3, #24]
 80035d4:	2201      	movs	r2, #1
 80035d6:	4013      	ands	r3, r2
 80035d8:	60bb      	str	r3, [r7, #8]
 80035da:	68bb      	ldr	r3, [r7, #8]
 80035dc:	4a4f      	ldr	r2, [pc, #316]	; (800371c <HAL_GPIO_Init+0x2cc>)
 80035de:	697b      	ldr	r3, [r7, #20]
 80035e0:	089b      	lsrs	r3, r3, #2
 80035e2:	3302      	adds	r3, #2
 80035e4:	009b      	lsls	r3, r3, #2
 80035e6:	589b      	ldr	r3, [r3, r2]
 80035e8:	613b      	str	r3, [r7, #16]
 80035ea:	697b      	ldr	r3, [r7, #20]
 80035ec:	2203      	movs	r2, #3
 80035ee:	4013      	ands	r3, r2
 80035f0:	009b      	lsls	r3, r3, #2
 80035f2:	220f      	movs	r2, #15
 80035f4:	409a      	lsls	r2, r3
 80035f6:	0013      	movs	r3, r2
 80035f8:	43da      	mvns	r2, r3
 80035fa:	693b      	ldr	r3, [r7, #16]
 80035fc:	4013      	ands	r3, r2
 80035fe:	613b      	str	r3, [r7, #16]
 8003600:	687a      	ldr	r2, [r7, #4]
 8003602:	2390      	movs	r3, #144	; 0x90
 8003604:	05db      	lsls	r3, r3, #23
 8003606:	429a      	cmp	r2, r3
 8003608:	d013      	beq.n	8003632 <HAL_GPIO_Init+0x1e2>
 800360a:	687b      	ldr	r3, [r7, #4]
 800360c:	4a44      	ldr	r2, [pc, #272]	; (8003720 <HAL_GPIO_Init+0x2d0>)
 800360e:	4293      	cmp	r3, r2
 8003610:	d00d      	beq.n	800362e <HAL_GPIO_Init+0x1de>
 8003612:	687b      	ldr	r3, [r7, #4]
 8003614:	4a43      	ldr	r2, [pc, #268]	; (8003724 <HAL_GPIO_Init+0x2d4>)
 8003616:	4293      	cmp	r3, r2
 8003618:	d007      	beq.n	800362a <HAL_GPIO_Init+0x1da>
 800361a:	687b      	ldr	r3, [r7, #4]
 800361c:	4a42      	ldr	r2, [pc, #264]	; (8003728 <HAL_GPIO_Init+0x2d8>)
 800361e:	4293      	cmp	r3, r2
 8003620:	d101      	bne.n	8003626 <HAL_GPIO_Init+0x1d6>
 8003622:	2303      	movs	r3, #3
 8003624:	e006      	b.n	8003634 <HAL_GPIO_Init+0x1e4>
 8003626:	2305      	movs	r3, #5
 8003628:	e004      	b.n	8003634 <HAL_GPIO_Init+0x1e4>
 800362a:	2302      	movs	r3, #2
 800362c:	e002      	b.n	8003634 <HAL_GPIO_Init+0x1e4>
 800362e:	2301      	movs	r3, #1
 8003630:	e000      	b.n	8003634 <HAL_GPIO_Init+0x1e4>
 8003632:	2300      	movs	r3, #0
 8003634:	697a      	ldr	r2, [r7, #20]
 8003636:	2103      	movs	r1, #3
 8003638:	400a      	ands	r2, r1
 800363a:	0092      	lsls	r2, r2, #2
 800363c:	4093      	lsls	r3, r2
 800363e:	693a      	ldr	r2, [r7, #16]
 8003640:	4313      	orrs	r3, r2
 8003642:	613b      	str	r3, [r7, #16]
 8003644:	4935      	ldr	r1, [pc, #212]	; (800371c <HAL_GPIO_Init+0x2cc>)
 8003646:	697b      	ldr	r3, [r7, #20]
 8003648:	089b      	lsrs	r3, r3, #2
 800364a:	3302      	adds	r3, #2
 800364c:	009b      	lsls	r3, r3, #2
 800364e:	693a      	ldr	r2, [r7, #16]
 8003650:	505a      	str	r2, [r3, r1]
 8003652:	4b36      	ldr	r3, [pc, #216]	; (800372c <HAL_GPIO_Init+0x2dc>)
 8003654:	681b      	ldr	r3, [r3, #0]
 8003656:	613b      	str	r3, [r7, #16]
 8003658:	68fb      	ldr	r3, [r7, #12]
 800365a:	43da      	mvns	r2, r3
 800365c:	693b      	ldr	r3, [r7, #16]
 800365e:	4013      	ands	r3, r2
 8003660:	613b      	str	r3, [r7, #16]
 8003662:	683b      	ldr	r3, [r7, #0]
 8003664:	685a      	ldr	r2, [r3, #4]
 8003666:	2380      	movs	r3, #128	; 0x80
 8003668:	025b      	lsls	r3, r3, #9
 800366a:	4013      	ands	r3, r2
 800366c:	d003      	beq.n	8003676 <HAL_GPIO_Init+0x226>
 800366e:	693a      	ldr	r2, [r7, #16]
 8003670:	68fb      	ldr	r3, [r7, #12]
 8003672:	4313      	orrs	r3, r2
 8003674:	613b      	str	r3, [r7, #16]
 8003676:	4b2d      	ldr	r3, [pc, #180]	; (800372c <HAL_GPIO_Init+0x2dc>)
 8003678:	693a      	ldr	r2, [r7, #16]
 800367a:	601a      	str	r2, [r3, #0]
 800367c:	4b2b      	ldr	r3, [pc, #172]	; (800372c <HAL_GPIO_Init+0x2dc>)
 800367e:	685b      	ldr	r3, [r3, #4]
 8003680:	613b      	str	r3, [r7, #16]
 8003682:	68fb      	ldr	r3, [r7, #12]
 8003684:	43da      	mvns	r2, r3
 8003686:	693b      	ldr	r3, [r7, #16]
 8003688:	4013      	ands	r3, r2
 800368a:	613b      	str	r3, [r7, #16]
 800368c:	683b      	ldr	r3, [r7, #0]
 800368e:	685a      	ldr	r2, [r3, #4]
 8003690:	2380      	movs	r3, #128	; 0x80
 8003692:	029b      	lsls	r3, r3, #10
 8003694:	4013      	ands	r3, r2
 8003696:	d003      	beq.n	80036a0 <HAL_GPIO_Init+0x250>
 8003698:	693a      	ldr	r2, [r7, #16]
 800369a:	68fb      	ldr	r3, [r7, #12]
 800369c:	4313      	orrs	r3, r2
 800369e:	613b      	str	r3, [r7, #16]
 80036a0:	4b22      	ldr	r3, [pc, #136]	; (800372c <HAL_GPIO_Init+0x2dc>)
 80036a2:	693a      	ldr	r2, [r7, #16]
 80036a4:	605a      	str	r2, [r3, #4]
 80036a6:	4b21      	ldr	r3, [pc, #132]	; (800372c <HAL_GPIO_Init+0x2dc>)
 80036a8:	689b      	ldr	r3, [r3, #8]
 80036aa:	613b      	str	r3, [r7, #16]
 80036ac:	68fb      	ldr	r3, [r7, #12]
 80036ae:	43da      	mvns	r2, r3
 80036b0:	693b      	ldr	r3, [r7, #16]
 80036b2:	4013      	ands	r3, r2
 80036b4:	613b      	str	r3, [r7, #16]
 80036b6:	683b      	ldr	r3, [r7, #0]
 80036b8:	685a      	ldr	r2, [r3, #4]
 80036ba:	2380      	movs	r3, #128	; 0x80
 80036bc:	035b      	lsls	r3, r3, #13
 80036be:	4013      	ands	r3, r2
 80036c0:	d003      	beq.n	80036ca <HAL_GPIO_Init+0x27a>
 80036c2:	693a      	ldr	r2, [r7, #16]
 80036c4:	68fb      	ldr	r3, [r7, #12]
 80036c6:	4313      	orrs	r3, r2
 80036c8:	613b      	str	r3, [r7, #16]
 80036ca:	4b18      	ldr	r3, [pc, #96]	; (800372c <HAL_GPIO_Init+0x2dc>)
 80036cc:	693a      	ldr	r2, [r7, #16]
 80036ce:	609a      	str	r2, [r3, #8]
 80036d0:	4b16      	ldr	r3, [pc, #88]	; (800372c <HAL_GPIO_Init+0x2dc>)
 80036d2:	68db      	ldr	r3, [r3, #12]
 80036d4:	613b      	str	r3, [r7, #16]
 80036d6:	68fb      	ldr	r3, [r7, #12]
 80036d8:	43da      	mvns	r2, r3
 80036da:	693b      	ldr	r3, [r7, #16]
 80036dc:	4013      	ands	r3, r2
 80036de:	613b      	str	r3, [r7, #16]
 80036e0:	683b      	ldr	r3, [r7, #0]
 80036e2:	685a      	ldr	r2, [r3, #4]
 80036e4:	2380      	movs	r3, #128	; 0x80
 80036e6:	039b      	lsls	r3, r3, #14
 80036e8:	4013      	ands	r3, r2
 80036ea:	d003      	beq.n	80036f4 <HAL_GPIO_Init+0x2a4>
 80036ec:	693a      	ldr	r2, [r7, #16]
 80036ee:	68fb      	ldr	r3, [r7, #12]
 80036f0:	4313      	orrs	r3, r2
 80036f2:	613b      	str	r3, [r7, #16]
 80036f4:	4b0d      	ldr	r3, [pc, #52]	; (800372c <HAL_GPIO_Init+0x2dc>)
 80036f6:	693a      	ldr	r2, [r7, #16]
 80036f8:	60da      	str	r2, [r3, #12]
 80036fa:	697b      	ldr	r3, [r7, #20]
 80036fc:	3301      	adds	r3, #1
 80036fe:	617b      	str	r3, [r7, #20]
 8003700:	683b      	ldr	r3, [r7, #0]
 8003702:	681a      	ldr	r2, [r3, #0]
 8003704:	697b      	ldr	r3, [r7, #20]
 8003706:	40da      	lsrs	r2, r3
 8003708:	1e13      	subs	r3, r2, #0
 800370a:	d000      	beq.n	800370e <HAL_GPIO_Init+0x2be>
 800370c:	e6a8      	b.n	8003460 <HAL_GPIO_Init+0x10>
 800370e:	46c0      	nop			; (mov r8, r8)
 8003710:	46c0      	nop			; (mov r8, r8)
 8003712:	46bd      	mov	sp, r7
 8003714:	b006      	add	sp, #24
 8003716:	bd80      	pop	{r7, pc}
 8003718:	40021000 	.word	0x40021000
 800371c:	40010000 	.word	0x40010000
 8003720:	48000400 	.word	0x48000400
 8003724:	48000800 	.word	0x48000800
 8003728:	48000c00 	.word	0x48000c00
 800372c:	40010400 	.word	0x40010400

08003730 <HAL_GPIO_WritePin>:
 8003730:	b580      	push	{r7, lr}
 8003732:	b082      	sub	sp, #8
 8003734:	af00      	add	r7, sp, #0
 8003736:	6078      	str	r0, [r7, #4]
 8003738:	0008      	movs	r0, r1
 800373a:	0011      	movs	r1, r2
 800373c:	1cbb      	adds	r3, r7, #2
 800373e:	1c02      	adds	r2, r0, #0
 8003740:	801a      	strh	r2, [r3, #0]
 8003742:	1c7b      	adds	r3, r7, #1
 8003744:	1c0a      	adds	r2, r1, #0
 8003746:	701a      	strb	r2, [r3, #0]
 8003748:	1c7b      	adds	r3, r7, #1
 800374a:	781b      	ldrb	r3, [r3, #0]
 800374c:	2b00      	cmp	r3, #0
 800374e:	d004      	beq.n	800375a <HAL_GPIO_WritePin+0x2a>
 8003750:	1cbb      	adds	r3, r7, #2
 8003752:	881a      	ldrh	r2, [r3, #0]
 8003754:	687b      	ldr	r3, [r7, #4]
 8003756:	619a      	str	r2, [r3, #24]
 8003758:	e003      	b.n	8003762 <HAL_GPIO_WritePin+0x32>
 800375a:	1cbb      	adds	r3, r7, #2
 800375c:	881a      	ldrh	r2, [r3, #0]
 800375e:	687b      	ldr	r3, [r7, #4]
 8003760:	629a      	str	r2, [r3, #40]	; 0x28
 8003762:	46c0      	nop			; (mov r8, r8)
 8003764:	46bd      	mov	sp, r7
 8003766:	b002      	add	sp, #8
 8003768:	bd80      	pop	{r7, pc}
	...

0800376c <HAL_I2C_Init>:
 800376c:	b580      	push	{r7, lr}
 800376e:	b082      	sub	sp, #8
 8003770:	af00      	add	r7, sp, #0
 8003772:	6078      	str	r0, [r7, #4]
 8003774:	687b      	ldr	r3, [r7, #4]
 8003776:	2b00      	cmp	r3, #0
 8003778:	d101      	bne.n	800377e <HAL_I2C_Init+0x12>
 800377a:	2301      	movs	r3, #1
 800377c:	e082      	b.n	8003884 <HAL_I2C_Init+0x118>
 800377e:	687b      	ldr	r3, [r7, #4]
 8003780:	2241      	movs	r2, #65	; 0x41
 8003782:	5c9b      	ldrb	r3, [r3, r2]
 8003784:	b2db      	uxtb	r3, r3
 8003786:	2b00      	cmp	r3, #0
 8003788:	d107      	bne.n	800379a <HAL_I2C_Init+0x2e>
 800378a:	687b      	ldr	r3, [r7, #4]
 800378c:	2240      	movs	r2, #64	; 0x40
 800378e:	2100      	movs	r1, #0
 8003790:	5499      	strb	r1, [r3, r2]
 8003792:	687b      	ldr	r3, [r7, #4]
 8003794:	0018      	movs	r0, r3
 8003796:	f7ff fb73 	bl	8002e80 <HAL_I2C_MspInit>
 800379a:	687b      	ldr	r3, [r7, #4]
 800379c:	2241      	movs	r2, #65	; 0x41
 800379e:	2124      	movs	r1, #36	; 0x24
 80037a0:	5499      	strb	r1, [r3, r2]
 80037a2:	687b      	ldr	r3, [r7, #4]
 80037a4:	681b      	ldr	r3, [r3, #0]
 80037a6:	681a      	ldr	r2, [r3, #0]
 80037a8:	687b      	ldr	r3, [r7, #4]
 80037aa:	681b      	ldr	r3, [r3, #0]
 80037ac:	2101      	movs	r1, #1
 80037ae:	438a      	bics	r2, r1
 80037b0:	601a      	str	r2, [r3, #0]
 80037b2:	687b      	ldr	r3, [r7, #4]
 80037b4:	685a      	ldr	r2, [r3, #4]
 80037b6:	687b      	ldr	r3, [r7, #4]
 80037b8:	681b      	ldr	r3, [r3, #0]
 80037ba:	4934      	ldr	r1, [pc, #208]	; (800388c <HAL_I2C_Init+0x120>)
 80037bc:	400a      	ands	r2, r1
 80037be:	611a      	str	r2, [r3, #16]
 80037c0:	687b      	ldr	r3, [r7, #4]
 80037c2:	681b      	ldr	r3, [r3, #0]
 80037c4:	689a      	ldr	r2, [r3, #8]
 80037c6:	687b      	ldr	r3, [r7, #4]
 80037c8:	681b      	ldr	r3, [r3, #0]
 80037ca:	4931      	ldr	r1, [pc, #196]	; (8003890 <HAL_I2C_Init+0x124>)
 80037cc:	400a      	ands	r2, r1
 80037ce:	609a      	str	r2, [r3, #8]
 80037d0:	687b      	ldr	r3, [r7, #4]
 80037d2:	68db      	ldr	r3, [r3, #12]
 80037d4:	2b01      	cmp	r3, #1
 80037d6:	d108      	bne.n	80037ea <HAL_I2C_Init+0x7e>
 80037d8:	687b      	ldr	r3, [r7, #4]
 80037da:	689a      	ldr	r2, [r3, #8]
 80037dc:	687b      	ldr	r3, [r7, #4]
 80037de:	681b      	ldr	r3, [r3, #0]
 80037e0:	2180      	movs	r1, #128	; 0x80
 80037e2:	0209      	lsls	r1, r1, #8
 80037e4:	430a      	orrs	r2, r1
 80037e6:	609a      	str	r2, [r3, #8]
 80037e8:	e007      	b.n	80037fa <HAL_I2C_Init+0x8e>
 80037ea:	687b      	ldr	r3, [r7, #4]
 80037ec:	689a      	ldr	r2, [r3, #8]
 80037ee:	687b      	ldr	r3, [r7, #4]
 80037f0:	681b      	ldr	r3, [r3, #0]
 80037f2:	2184      	movs	r1, #132	; 0x84
 80037f4:	0209      	lsls	r1, r1, #8
 80037f6:	430a      	orrs	r2, r1
 80037f8:	609a      	str	r2, [r3, #8]
 80037fa:	687b      	ldr	r3, [r7, #4]
 80037fc:	68db      	ldr	r3, [r3, #12]
 80037fe:	2b02      	cmp	r3, #2
 8003800:	d104      	bne.n	800380c <HAL_I2C_Init+0xa0>
 8003802:	687b      	ldr	r3, [r7, #4]
 8003804:	681b      	ldr	r3, [r3, #0]
 8003806:	2280      	movs	r2, #128	; 0x80
 8003808:	0112      	lsls	r2, r2, #4
 800380a:	605a      	str	r2, [r3, #4]
 800380c:	687b      	ldr	r3, [r7, #4]
 800380e:	681b      	ldr	r3, [r3, #0]
 8003810:	685a      	ldr	r2, [r3, #4]
 8003812:	687b      	ldr	r3, [r7, #4]
 8003814:	681b      	ldr	r3, [r3, #0]
 8003816:	491f      	ldr	r1, [pc, #124]	; (8003894 <HAL_I2C_Init+0x128>)
 8003818:	430a      	orrs	r2, r1
 800381a:	605a      	str	r2, [r3, #4]
 800381c:	687b      	ldr	r3, [r7, #4]
 800381e:	681b      	ldr	r3, [r3, #0]
 8003820:	68da      	ldr	r2, [r3, #12]
 8003822:	687b      	ldr	r3, [r7, #4]
 8003824:	681b      	ldr	r3, [r3, #0]
 8003826:	491a      	ldr	r1, [pc, #104]	; (8003890 <HAL_I2C_Init+0x124>)
 8003828:	400a      	ands	r2, r1
 800382a:	60da      	str	r2, [r3, #12]
 800382c:	687b      	ldr	r3, [r7, #4]
 800382e:	691a      	ldr	r2, [r3, #16]
 8003830:	687b      	ldr	r3, [r7, #4]
 8003832:	695b      	ldr	r3, [r3, #20]
 8003834:	431a      	orrs	r2, r3
 8003836:	0011      	movs	r1, r2
 8003838:	687b      	ldr	r3, [r7, #4]
 800383a:	699b      	ldr	r3, [r3, #24]
 800383c:	021a      	lsls	r2, r3, #8
 800383e:	687b      	ldr	r3, [r7, #4]
 8003840:	681b      	ldr	r3, [r3, #0]
 8003842:	430a      	orrs	r2, r1
 8003844:	60da      	str	r2, [r3, #12]
 8003846:	687b      	ldr	r3, [r7, #4]
 8003848:	69d9      	ldr	r1, [r3, #28]
 800384a:	687b      	ldr	r3, [r7, #4]
 800384c:	6a1a      	ldr	r2, [r3, #32]
 800384e:	687b      	ldr	r3, [r7, #4]
 8003850:	681b      	ldr	r3, [r3, #0]
 8003852:	430a      	orrs	r2, r1
 8003854:	601a      	str	r2, [r3, #0]
 8003856:	687b      	ldr	r3, [r7, #4]
 8003858:	681b      	ldr	r3, [r3, #0]
 800385a:	681a      	ldr	r2, [r3, #0]
 800385c:	687b      	ldr	r3, [r7, #4]
 800385e:	681b      	ldr	r3, [r3, #0]
 8003860:	2101      	movs	r1, #1
 8003862:	430a      	orrs	r2, r1
 8003864:	601a      	str	r2, [r3, #0]
 8003866:	687b      	ldr	r3, [r7, #4]
 8003868:	2200      	movs	r2, #0
 800386a:	645a      	str	r2, [r3, #68]	; 0x44
 800386c:	687b      	ldr	r3, [r7, #4]
 800386e:	2241      	movs	r2, #65	; 0x41
 8003870:	2120      	movs	r1, #32
 8003872:	5499      	strb	r1, [r3, r2]
 8003874:	687b      	ldr	r3, [r7, #4]
 8003876:	2200      	movs	r2, #0
 8003878:	631a      	str	r2, [r3, #48]	; 0x30
 800387a:	687b      	ldr	r3, [r7, #4]
 800387c:	2242      	movs	r2, #66	; 0x42
 800387e:	2100      	movs	r1, #0
 8003880:	5499      	strb	r1, [r3, r2]
 8003882:	2300      	movs	r3, #0
 8003884:	0018      	movs	r0, r3
 8003886:	46bd      	mov	sp, r7
 8003888:	b002      	add	sp, #8
 800388a:	bd80      	pop	{r7, pc}
 800388c:	f0ffffff 	.word	0xf0ffffff
 8003890:	ffff7fff 	.word	0xffff7fff
 8003894:	02008000 	.word	0x02008000

08003898 <HAL_I2C_Master_Transmit>:
 8003898:	b590      	push	{r4, r7, lr}
 800389a:	b089      	sub	sp, #36	; 0x24
 800389c:	af02      	add	r7, sp, #8
 800389e:	60f8      	str	r0, [r7, #12]
 80038a0:	0008      	movs	r0, r1
 80038a2:	607a      	str	r2, [r7, #4]
 80038a4:	0019      	movs	r1, r3
 80038a6:	230a      	movs	r3, #10
 80038a8:	18fb      	adds	r3, r7, r3
 80038aa:	1c02      	adds	r2, r0, #0
 80038ac:	801a      	strh	r2, [r3, #0]
 80038ae:	2308      	movs	r3, #8
 80038b0:	18fb      	adds	r3, r7, r3
 80038b2:	1c0a      	adds	r2, r1, #0
 80038b4:	801a      	strh	r2, [r3, #0]
 80038b6:	68fb      	ldr	r3, [r7, #12]
 80038b8:	2241      	movs	r2, #65	; 0x41
 80038ba:	5c9b      	ldrb	r3, [r3, r2]
 80038bc:	b2db      	uxtb	r3, r3
 80038be:	2b20      	cmp	r3, #32
 80038c0:	d000      	beq.n	80038c4 <HAL_I2C_Master_Transmit+0x2c>
 80038c2:	e0e7      	b.n	8003a94 <HAL_I2C_Master_Transmit+0x1fc>
 80038c4:	68fb      	ldr	r3, [r7, #12]
 80038c6:	2240      	movs	r2, #64	; 0x40
 80038c8:	5c9b      	ldrb	r3, [r3, r2]
 80038ca:	2b01      	cmp	r3, #1
 80038cc:	d101      	bne.n	80038d2 <HAL_I2C_Master_Transmit+0x3a>
 80038ce:	2302      	movs	r3, #2
 80038d0:	e0e1      	b.n	8003a96 <HAL_I2C_Master_Transmit+0x1fe>
 80038d2:	68fb      	ldr	r3, [r7, #12]
 80038d4:	2240      	movs	r2, #64	; 0x40
 80038d6:	2101      	movs	r1, #1
 80038d8:	5499      	strb	r1, [r3, r2]
 80038da:	f7ff fcdd 	bl	8003298 <HAL_GetTick>
 80038de:	0003      	movs	r3, r0
 80038e0:	617b      	str	r3, [r7, #20]
 80038e2:	2380      	movs	r3, #128	; 0x80
 80038e4:	0219      	lsls	r1, r3, #8
 80038e6:	68f8      	ldr	r0, [r7, #12]
 80038e8:	697b      	ldr	r3, [r7, #20]
 80038ea:	9300      	str	r3, [sp, #0]
 80038ec:	2319      	movs	r3, #25
 80038ee:	2201      	movs	r2, #1
 80038f0:	f000 fa04 	bl	8003cfc <I2C_WaitOnFlagUntilTimeout>
 80038f4:	1e03      	subs	r3, r0, #0
 80038f6:	d001      	beq.n	80038fc <HAL_I2C_Master_Transmit+0x64>
 80038f8:	2301      	movs	r3, #1
 80038fa:	e0cc      	b.n	8003a96 <HAL_I2C_Master_Transmit+0x1fe>
 80038fc:	68fb      	ldr	r3, [r7, #12]
 80038fe:	2241      	movs	r2, #65	; 0x41
 8003900:	2121      	movs	r1, #33	; 0x21
 8003902:	5499      	strb	r1, [r3, r2]
 8003904:	68fb      	ldr	r3, [r7, #12]
 8003906:	2242      	movs	r2, #66	; 0x42
 8003908:	2110      	movs	r1, #16
 800390a:	5499      	strb	r1, [r3, r2]
 800390c:	68fb      	ldr	r3, [r7, #12]
 800390e:	2200      	movs	r2, #0
 8003910:	645a      	str	r2, [r3, #68]	; 0x44
 8003912:	68fb      	ldr	r3, [r7, #12]
 8003914:	687a      	ldr	r2, [r7, #4]
 8003916:	625a      	str	r2, [r3, #36]	; 0x24
 8003918:	68fb      	ldr	r3, [r7, #12]
 800391a:	2208      	movs	r2, #8
 800391c:	18ba      	adds	r2, r7, r2
 800391e:	8812      	ldrh	r2, [r2, #0]
 8003920:	855a      	strh	r2, [r3, #42]	; 0x2a
 8003922:	68fb      	ldr	r3, [r7, #12]
 8003924:	2200      	movs	r2, #0
 8003926:	635a      	str	r2, [r3, #52]	; 0x34
 8003928:	68fb      	ldr	r3, [r7, #12]
 800392a:	8d5b      	ldrh	r3, [r3, #42]	; 0x2a
 800392c:	b29b      	uxth	r3, r3
 800392e:	2bff      	cmp	r3, #255	; 0xff
 8003930:	d911      	bls.n	8003956 <HAL_I2C_Master_Transmit+0xbe>
 8003932:	68fb      	ldr	r3, [r7, #12]
 8003934:	22ff      	movs	r2, #255	; 0xff
 8003936:	851a      	strh	r2, [r3, #40]	; 0x28
 8003938:	68fb      	ldr	r3, [r7, #12]
 800393a:	8d1b      	ldrh	r3, [r3, #40]	; 0x28
 800393c:	b2da      	uxtb	r2, r3
 800393e:	2380      	movs	r3, #128	; 0x80
 8003940:	045c      	lsls	r4, r3, #17
 8003942:	230a      	movs	r3, #10
 8003944:	18fb      	adds	r3, r7, r3
 8003946:	8819      	ldrh	r1, [r3, #0]
 8003948:	68f8      	ldr	r0, [r7, #12]
 800394a:	4b55      	ldr	r3, [pc, #340]	; (8003aa0 <HAL_I2C_Master_Transmit+0x208>)
 800394c:	9300      	str	r3, [sp, #0]
 800394e:	0023      	movs	r3, r4
 8003950:	f000 fb74 	bl	800403c <I2C_TransferConfig>
 8003954:	e075      	b.n	8003a42 <HAL_I2C_Master_Transmit+0x1aa>
 8003956:	68fb      	ldr	r3, [r7, #12]
 8003958:	8d5b      	ldrh	r3, [r3, #42]	; 0x2a
 800395a:	b29a      	uxth	r2, r3
 800395c:	68fb      	ldr	r3, [r7, #12]
 800395e:	851a      	strh	r2, [r3, #40]	; 0x28
 8003960:	68fb      	ldr	r3, [r7, #12]
 8003962:	8d1b      	ldrh	r3, [r3, #40]	; 0x28
 8003964:	b2da      	uxtb	r2, r3
 8003966:	2380      	movs	r3, #128	; 0x80
 8003968:	049c      	lsls	r4, r3, #18
 800396a:	230a      	movs	r3, #10
 800396c:	18fb      	adds	r3, r7, r3
 800396e:	8819      	ldrh	r1, [r3, #0]
 8003970:	68f8      	ldr	r0, [r7, #12]
 8003972:	4b4b      	ldr	r3, [pc, #300]	; (8003aa0 <HAL_I2C_Master_Transmit+0x208>)
 8003974:	9300      	str	r3, [sp, #0]
 8003976:	0023      	movs	r3, r4
 8003978:	f000 fb60 	bl	800403c <I2C_TransferConfig>
 800397c:	e061      	b.n	8003a42 <HAL_I2C_Master_Transmit+0x1aa>
 800397e:	697a      	ldr	r2, [r7, #20]
 8003980:	6ab9      	ldr	r1, [r7, #40]	; 0x28
 8003982:	68fb      	ldr	r3, [r7, #12]
 8003984:	0018      	movs	r0, r3
 8003986:	f000 f9f8 	bl	8003d7a <I2C_WaitOnTXISFlagUntilTimeout>
 800398a:	1e03      	subs	r3, r0, #0
 800398c:	d001      	beq.n	8003992 <HAL_I2C_Master_Transmit+0xfa>
 800398e:	2301      	movs	r3, #1
 8003990:	e081      	b.n	8003a96 <HAL_I2C_Master_Transmit+0x1fe>
 8003992:	68fb      	ldr	r3, [r7, #12]
 8003994:	6a5b      	ldr	r3, [r3, #36]	; 0x24
 8003996:	781a      	ldrb	r2, [r3, #0]
 8003998:	68fb      	ldr	r3, [r7, #12]
 800399a:	681b      	ldr	r3, [r3, #0]
 800399c:	629a      	str	r2, [r3, #40]	; 0x28
 800399e:	68fb      	ldr	r3, [r7, #12]
 80039a0:	6a5b      	ldr	r3, [r3, #36]	; 0x24
 80039a2:	1c5a      	adds	r2, r3, #1
 80039a4:	68fb      	ldr	r3, [r7, #12]
 80039a6:	625a      	str	r2, [r3, #36]	; 0x24
 80039a8:	68fb      	ldr	r3, [r7, #12]
 80039aa:	8d5b      	ldrh	r3, [r3, #42]	; 0x2a
 80039ac:	b29b      	uxth	r3, r3
 80039ae:	3b01      	subs	r3, #1
 80039b0:	b29a      	uxth	r2, r3
 80039b2:	68fb      	ldr	r3, [r7, #12]
 80039b4:	855a      	strh	r2, [r3, #42]	; 0x2a
 80039b6:	68fb      	ldr	r3, [r7, #12]
 80039b8:	8d1b      	ldrh	r3, [r3, #40]	; 0x28
 80039ba:	3b01      	subs	r3, #1
 80039bc:	b29a      	uxth	r2, r3
 80039be:	68fb      	ldr	r3, [r7, #12]
 80039c0:	851a      	strh	r2, [r3, #40]	; 0x28
 80039c2:	68fb      	ldr	r3, [r7, #12]
 80039c4:	8d5b      	ldrh	r3, [r3, #42]	; 0x2a
 80039c6:	b29b      	uxth	r3, r3
 80039c8:	2b00      	cmp	r3, #0
 80039ca:	d03a      	beq.n	8003a42 <HAL_I2C_Master_Transmit+0x1aa>
 80039cc:	68fb      	ldr	r3, [r7, #12]
 80039ce:	8d1b      	ldrh	r3, [r3, #40]	; 0x28
 80039d0:	2b00      	cmp	r3, #0
 80039d2:	d136      	bne.n	8003a42 <HAL_I2C_Master_Transmit+0x1aa>
 80039d4:	6aba      	ldr	r2, [r7, #40]	; 0x28
 80039d6:	68f8      	ldr	r0, [r7, #12]
 80039d8:	697b      	ldr	r3, [r7, #20]
 80039da:	9300      	str	r3, [sp, #0]
 80039dc:	0013      	movs	r3, r2
 80039de:	2200      	movs	r2, #0
 80039e0:	2180      	movs	r1, #128	; 0x80
 80039e2:	f000 f98b 	bl	8003cfc <I2C_WaitOnFlagUntilTimeout>
 80039e6:	1e03      	subs	r3, r0, #0
 80039e8:	d001      	beq.n	80039ee <HAL_I2C_Master_Transmit+0x156>
 80039ea:	2301      	movs	r3, #1
 80039ec:	e053      	b.n	8003a96 <HAL_I2C_Master_Transmit+0x1fe>
 80039ee:	68fb      	ldr	r3, [r7, #12]
 80039f0:	8d5b      	ldrh	r3, [r3, #42]	; 0x2a
 80039f2:	b29b      	uxth	r3, r3
 80039f4:	2bff      	cmp	r3, #255	; 0xff
 80039f6:	d911      	bls.n	8003a1c <HAL_I2C_Master_Transmit+0x184>
 80039f8:	68fb      	ldr	r3, [r7, #12]
 80039fa:	22ff      	movs	r2, #255	; 0xff
 80039fc:	851a      	strh	r2, [r3, #40]	; 0x28
 80039fe:	68fb      	ldr	r3, [r7, #12]
 8003a00:	8d1b      	ldrh	r3, [r3, #40]	; 0x28
 8003a02:	b2da      	uxtb	r2, r3
 8003a04:	2380      	movs	r3, #128	; 0x80
 8003a06:	045c      	lsls	r4, r3, #17
 8003a08:	230a      	movs	r3, #10
 8003a0a:	18fb      	adds	r3, r7, r3
 8003a0c:	8819      	ldrh	r1, [r3, #0]
 8003a0e:	68f8      	ldr	r0, [r7, #12]
 8003a10:	2300      	movs	r3, #0
 8003a12:	9300      	str	r3, [sp, #0]
 8003a14:	0023      	movs	r3, r4
 8003a16:	f000 fb11 	bl	800403c <I2C_TransferConfig>
 8003a1a:	e012      	b.n	8003a42 <HAL_I2C_Master_Transmit+0x1aa>
 8003a1c:	68fb      	ldr	r3, [r7, #12]
 8003a1e:	8d5b      	ldrh	r3, [r3, #42]	; 0x2a
 8003a20:	b29a      	uxth	r2, r3
 8003a22:	68fb      	ldr	r3, [r7, #12]
 8003a24:	851a      	strh	r2, [r3, #40]	; 0x28
 8003a26:	68fb      	ldr	r3, [r7, #12]
 8003a28:	8d1b      	ldrh	r3, [r3, #40]	; 0x28
 8003a2a:	b2da      	uxtb	r2, r3
 8003a2c:	2380      	movs	r3, #128	; 0x80
 8003a2e:	049c      	lsls	r4, r3, #18
 8003a30:	230a      	movs	r3, #10
 8003a32:	18fb      	adds	r3, r7, r3
 8003a34:	8819      	ldrh	r1, [r3, #0]
 8003a36:	68f8      	ldr	r0, [r7, #12]
 8003a38:	2300      	movs	r3, #0
 8003a3a:	9300      	str	r3, [sp, #0]
 8003a3c:	0023      	movs	r3, r4
 8003a3e:	f000 fafd 	bl	800403c <I2C_TransferConfig>
 8003a42:	68fb      	ldr	r3, [r7, #12]
 8003a44:	8d5b      	ldrh	r3, [r3, #42]	; 0x2a
 8003a46:	b29b      	uxth	r3, r3
 8003a48:	2b00      	cmp	r3, #0
 8003a4a:	d198      	bne.n	800397e <HAL_I2C_Master_Transmit+0xe6>
 8003a4c:	697a      	ldr	r2, [r7, #20]
 8003a4e:	6ab9      	ldr	r1, [r7, #40]	; 0x28
 8003a50:	68fb      	ldr	r3, [r7, #12]
 8003a52:	0018      	movs	r0, r3
 8003a54:	f000 f9d0 	bl	8003df8 <I2C_WaitOnSTOPFlagUntilTimeout>
 8003a58:	1e03      	subs	r3, r0, #0
 8003a5a:	d001      	beq.n	8003a60 <HAL_I2C_Master_Transmit+0x1c8>
 8003a5c:	2301      	movs	r3, #1
 8003a5e:	e01a      	b.n	8003a96 <HAL_I2C_Master_Transmit+0x1fe>
 8003a60:	68fb      	ldr	r3, [r7, #12]
 8003a62:	681b      	ldr	r3, [r3, #0]
 8003a64:	2220      	movs	r2, #32
 8003a66:	61da      	str	r2, [r3, #28]
 8003a68:	68fb      	ldr	r3, [r7, #12]
 8003a6a:	681b      	ldr	r3, [r3, #0]
 8003a6c:	685a      	ldr	r2, [r3, #4]
 8003a6e:	68fb      	ldr	r3, [r7, #12]
 8003a70:	681b      	ldr	r3, [r3, #0]
 8003a72:	490c      	ldr	r1, [pc, #48]	; (8003aa4 <HAL_I2C_Master_Transmit+0x20c>)
 8003a74:	400a      	ands	r2, r1
 8003a76:	605a      	str	r2, [r3, #4]
 8003a78:	68fb      	ldr	r3, [r7, #12]
 8003a7a:	2241      	movs	r2, #65	; 0x41
 8003a7c:	2120      	movs	r1, #32
 8003a7e:	5499      	strb	r1, [r3, r2]
 8003a80:	68fb      	ldr	r3, [r7, #12]
 8003a82:	2242      	movs	r2, #66	; 0x42
 8003a84:	2100      	movs	r1, #0
 8003a86:	5499      	strb	r1, [r3, r2]
 8003a88:	68fb      	ldr	r3, [r7, #12]
 8003a8a:	2240      	movs	r2, #64	; 0x40
 8003a8c:	2100      	movs	r1, #0
 8003a8e:	5499      	strb	r1, [r3, r2]
 8003a90:	2300      	movs	r3, #0
 8003a92:	e000      	b.n	8003a96 <HAL_I2C_Master_Transmit+0x1fe>
 8003a94:	2302      	movs	r3, #2
 8003a96:	0018      	movs	r0, r3
 8003a98:	46bd      	mov	sp, r7
 8003a9a:	b007      	add	sp, #28
 8003a9c:	bd90      	pop	{r4, r7, pc}
 8003a9e:	46c0      	nop			; (mov r8, r8)
 8003aa0:	80002000 	.word	0x80002000
 8003aa4:	fe00e800 	.word	0xfe00e800

08003aa8 <HAL_I2C_Master_Receive>:
 8003aa8:	b590      	push	{r4, r7, lr}
 8003aaa:	b089      	sub	sp, #36	; 0x24
 8003aac:	af02      	add	r7, sp, #8
 8003aae:	60f8      	str	r0, [r7, #12]
 8003ab0:	0008      	movs	r0, r1
 8003ab2:	607a      	str	r2, [r7, #4]
 8003ab4:	0019      	movs	r1, r3
 8003ab6:	230a      	movs	r3, #10
 8003ab8:	18fb      	adds	r3, r7, r3
 8003aba:	1c02      	adds	r2, r0, #0
 8003abc:	801a      	strh	r2, [r3, #0]
 8003abe:	2308      	movs	r3, #8
 8003ac0:	18fb      	adds	r3, r7, r3
 8003ac2:	1c0a      	adds	r2, r1, #0
 8003ac4:	801a      	strh	r2, [r3, #0]
 8003ac6:	68fb      	ldr	r3, [r7, #12]
 8003ac8:	2241      	movs	r2, #65	; 0x41
 8003aca:	5c9b      	ldrb	r3, [r3, r2]
 8003acc:	b2db      	uxtb	r3, r3
 8003ace:	2b20      	cmp	r3, #32
 8003ad0:	d000      	beq.n	8003ad4 <HAL_I2C_Master_Receive+0x2c>
 8003ad2:	e0e8      	b.n	8003ca6 <HAL_I2C_Master_Receive+0x1fe>
 8003ad4:	68fb      	ldr	r3, [r7, #12]
 8003ad6:	2240      	movs	r2, #64	; 0x40
 8003ad8:	5c9b      	ldrb	r3, [r3, r2]
 8003ada:	2b01      	cmp	r3, #1
 8003adc:	d101      	bne.n	8003ae2 <HAL_I2C_Master_Receive+0x3a>
 8003ade:	2302      	movs	r3, #2
 8003ae0:	e0e2      	b.n	8003ca8 <HAL_I2C_Master_Receive+0x200>
 8003ae2:	68fb      	ldr	r3, [r7, #12]
 8003ae4:	2240      	movs	r2, #64	; 0x40
 8003ae6:	2101      	movs	r1, #1
 8003ae8:	5499      	strb	r1, [r3, r2]
 8003aea:	f7ff fbd5 	bl	8003298 <HAL_GetTick>
 8003aee:	0003      	movs	r3, r0
 8003af0:	617b      	str	r3, [r7, #20]
 8003af2:	2380      	movs	r3, #128	; 0x80
 8003af4:	0219      	lsls	r1, r3, #8
 8003af6:	68f8      	ldr	r0, [r7, #12]
 8003af8:	697b      	ldr	r3, [r7, #20]
 8003afa:	9300      	str	r3, [sp, #0]
 8003afc:	2319      	movs	r3, #25
 8003afe:	2201      	movs	r2, #1
 8003b00:	f000 f8fc 	bl	8003cfc <I2C_WaitOnFlagUntilTimeout>
 8003b04:	1e03      	subs	r3, r0, #0
 8003b06:	d001      	beq.n	8003b0c <HAL_I2C_Master_Receive+0x64>
 8003b08:	2301      	movs	r3, #1
 8003b0a:	e0cd      	b.n	8003ca8 <HAL_I2C_Master_Receive+0x200>
 8003b0c:	68fb      	ldr	r3, [r7, #12]
 8003b0e:	2241      	movs	r2, #65	; 0x41
 8003b10:	2122      	movs	r1, #34	; 0x22
 8003b12:	5499      	strb	r1, [r3, r2]
 8003b14:	68fb      	ldr	r3, [r7, #12]
 8003b16:	2242      	movs	r2, #66	; 0x42
 8003b18:	2110      	movs	r1, #16
 8003b1a:	5499      	strb	r1, [r3, r2]
 8003b1c:	68fb      	ldr	r3, [r7, #12]
 8003b1e:	2200      	movs	r2, #0
 8003b20:	645a      	str	r2, [r3, #68]	; 0x44
 8003b22:	68fb      	ldr	r3, [r7, #12]
 8003b24:	687a      	ldr	r2, [r7, #4]
 8003b26:	625a      	str	r2, [r3, #36]	; 0x24
 8003b28:	68fb      	ldr	r3, [r7, #12]
 8003b2a:	2208      	movs	r2, #8
 8003b2c:	18ba      	adds	r2, r7, r2
 8003b2e:	8812      	ldrh	r2, [r2, #0]
 8003b30:	855a      	strh	r2, [r3, #42]	; 0x2a
 8003b32:	68fb      	ldr	r3, [r7, #12]
 8003b34:	2200      	movs	r2, #0
 8003b36:	635a      	str	r2, [r3, #52]	; 0x34
 8003b38:	68fb      	ldr	r3, [r7, #12]
 8003b3a:	8d5b      	ldrh	r3, [r3, #42]	; 0x2a
 8003b3c:	b29b      	uxth	r3, r3
 8003b3e:	2bff      	cmp	r3, #255	; 0xff
 8003b40:	d911      	bls.n	8003b66 <HAL_I2C_Master_Receive+0xbe>
 8003b42:	68fb      	ldr	r3, [r7, #12]
 8003b44:	22ff      	movs	r2, #255	; 0xff
 8003b46:	851a      	strh	r2, [r3, #40]	; 0x28
 8003b48:	68fb      	ldr	r3, [r7, #12]
 8003b4a:	8d1b      	ldrh	r3, [r3, #40]	; 0x28
 8003b4c:	b2da      	uxtb	r2, r3
 8003b4e:	2380      	movs	r3, #128	; 0x80
 8003b50:	045c      	lsls	r4, r3, #17
 8003b52:	230a      	movs	r3, #10
 8003b54:	18fb      	adds	r3, r7, r3
 8003b56:	8819      	ldrh	r1, [r3, #0]
 8003b58:	68f8      	ldr	r0, [r7, #12]
 8003b5a:	4b55      	ldr	r3, [pc, #340]	; (8003cb0 <HAL_I2C_Master_Receive+0x208>)
 8003b5c:	9300      	str	r3, [sp, #0]
 8003b5e:	0023      	movs	r3, r4
 8003b60:	f000 fa6c 	bl	800403c <I2C_TransferConfig>
 8003b64:	e076      	b.n	8003c54 <HAL_I2C_Master_Receive+0x1ac>
 8003b66:	68fb      	ldr	r3, [r7, #12]
 8003b68:	8d5b      	ldrh	r3, [r3, #42]	; 0x2a
 8003b6a:	b29a      	uxth	r2, r3
 8003b6c:	68fb      	ldr	r3, [r7, #12]
 8003b6e:	851a      	strh	r2, [r3, #40]	; 0x28
 8003b70:	68fb      	ldr	r3, [r7, #12]
 8003b72:	8d1b      	ldrh	r3, [r3, #40]	; 0x28
 8003b74:	b2da      	uxtb	r2, r3
 8003b76:	2380      	movs	r3, #128	; 0x80
 8003b78:	049c      	lsls	r4, r3, #18
 8003b7a:	230a      	movs	r3, #10
 8003b7c:	18fb      	adds	r3, r7, r3
 8003b7e:	8819      	ldrh	r1, [r3, #0]
 8003b80:	68f8      	ldr	r0, [r7, #12]
 8003b82:	4b4b      	ldr	r3, [pc, #300]	; (8003cb0 <HAL_I2C_Master_Receive+0x208>)
 8003b84:	9300      	str	r3, [sp, #0]
 8003b86:	0023      	movs	r3, r4
 8003b88:	f000 fa58 	bl	800403c <I2C_TransferConfig>
 8003b8c:	e062      	b.n	8003c54 <HAL_I2C_Master_Receive+0x1ac>
 8003b8e:	697a      	ldr	r2, [r7, #20]
 8003b90:	6ab9      	ldr	r1, [r7, #40]	; 0x28
 8003b92:	68fb      	ldr	r3, [r7, #12]
 8003b94:	0018      	movs	r0, r3
 8003b96:	f000 f96b 	bl	8003e70 <I2C_WaitOnRXNEFlagUntilTimeout>
 8003b9a:	1e03      	subs	r3, r0, #0
 8003b9c:	d001      	beq.n	8003ba2 <HAL_I2C_Master_Receive+0xfa>
 8003b9e:	2301      	movs	r3, #1
 8003ba0:	e082      	b.n	8003ca8 <HAL_I2C_Master_Receive+0x200>
 8003ba2:	68fb      	ldr	r3, [r7, #12]
 8003ba4:	681b      	ldr	r3, [r3, #0]
 8003ba6:	6a5a      	ldr	r2, [r3, #36]	; 0x24
 8003ba8:	68fb      	ldr	r3, [r7, #12]
 8003baa:	6a5b      	ldr	r3, [r3, #36]	; 0x24
 8003bac:	b2d2      	uxtb	r2, r2
 8003bae:	701a      	strb	r2, [r3, #0]
 8003bb0:	68fb      	ldr	r3, [r7, #12]
 8003bb2:	6a5b      	ldr	r3, [r3, #36]	; 0x24
 8003bb4:	1c5a      	adds	r2, r3, #1
 8003bb6:	68fb      	ldr	r3, [r7, #12]
 8003bb8:	625a      	str	r2, [r3, #36]	; 0x24
 8003bba:	68fb      	ldr	r3, [r7, #12]
 8003bbc:	8d1b      	ldrh	r3, [r3, #40]	; 0x28
 8003bbe:	3b01      	subs	r3, #1
 8003bc0:	b29a      	uxth	r2, r3
 8003bc2:	68fb      	ldr	r3, [r7, #12]
 8003bc4:	851a      	strh	r2, [r3, #40]	; 0x28
 8003bc6:	68fb      	ldr	r3, [r7, #12]
 8003bc8:	8d5b      	ldrh	r3, [r3, #42]	; 0x2a
 8003bca:	b29b      	uxth	r3, r3
 8003bcc:	3b01      	subs	r3, #1
 8003bce:	b29a      	uxth	r2, r3
 8003bd0:	68fb      	ldr	r3, [r7, #12]
 8003bd2:	855a      	strh	r2, [r3, #42]	; 0x2a
 8003bd4:	68fb      	ldr	r3, [r7, #12]
 8003bd6:	8d5b      	ldrh	r3, [r3, #42]	; 0x2a
 8003bd8:	b29b      	uxth	r3, r3
 8003bda:	2b00      	cmp	r3, #0
 8003bdc:	d03a      	beq.n	8003c54 <HAL_I2C_Master_Receive+0x1ac>
 8003bde:	68fb      	ldr	r3, [r7, #12]
 8003be0:	8d1b      	ldrh	r3, [r3, #40]	; 0x28
 8003be2:	2b00      	cmp	r3, #0
 8003be4:	d136      	bne.n	8003c54 <HAL_I2C_Master_Receive+0x1ac>
 8003be6:	6aba      	ldr	r2, [r7, #40]	; 0x28
 8003be8:	68f8      	ldr	r0, [r7, #12]
 8003bea:	697b      	ldr	r3, [r7, #20]
 8003bec:	9300      	str	r3, [sp, #0]
 8003bee:	0013      	movs	r3, r2
 8003bf0:	2200      	movs	r2, #0
 8003bf2:	2180      	movs	r1, #128	; 0x80
 8003bf4:	f000 f882 	bl	8003cfc <I2C_WaitOnFlagUntilTimeout>
 8003bf8:	1e03      	subs	r3, r0, #0
 8003bfa:	d001      	beq.n	8003c00 <HAL_I2C_Master_Receive+0x158>
 8003bfc:	2301      	movs	r3, #1
 8003bfe:	e053      	b.n	8003ca8 <HAL_I2C_Master_Receive+0x200>
 8003c00:	68fb      	ldr	r3, [r7, #12]
 8003c02:	8d5b      	ldrh	r3, [r3, #42]	; 0x2a
 8003c04:	b29b      	uxth	r3, r3
 8003c06:	2bff      	cmp	r3, #255	; 0xff
 8003c08:	d911      	bls.n	8003c2e <HAL_I2C_Master_Receive+0x186>
 8003c0a:	68fb      	ldr	r3, [r7, #12]
 8003c0c:	22ff      	movs	r2, #255	; 0xff
 8003c0e:	851a      	strh	r2, [r3, #40]	; 0x28
 8003c10:	68fb      	ldr	r3, [r7, #12]
 8003c12:	8d1b      	ldrh	r3, [r3, #40]	; 0x28
 8003c14:	b2da      	uxtb	r2, r3
 8003c16:	2380      	movs	r3, #128	; 0x80
 8003c18:	045c      	lsls	r4, r3, #17
 8003c1a:	230a      	movs	r3, #10
 8003c1c:	18fb      	adds	r3, r7, r3
 8003c1e:	8819      	ldrh	r1, [r3, #0]
 8003c20:	68f8      	ldr	r0, [r7, #12]
 8003c22:	2300      	movs	r3, #0
 8003c24:	9300      	str	r3, [sp, #0]
 8003c26:	0023      	movs	r3, r4
 8003c28:	f000 fa08 	bl	800403c <I2C_TransferConfig>
 8003c2c:	e012      	b.n	8003c54 <HAL_I2C_Master_Receive+0x1ac>
 8003c2e:	68fb      	ldr	r3, [r7, #12]
 8003c30:	8d5b      	ldrh	r3, [r3, #42]	; 0x2a
 8003c32:	b29a      	uxth	r2, r3
 8003c34:	68fb      	ldr	r3, [r7, #12]
 8003c36:	851a      	strh	r2, [r3, #40]	; 0x28
 8003c38:	68fb      	ldr	r3, [r7, #12]
 8003c3a:	8d1b      	ldrh	r3, [r3, #40]	; 0x28
 8003c3c:	b2da      	uxtb	r2, r3
 8003c3e:	2380      	movs	r3, #128	; 0x80
 8003c40:	049c      	lsls	r4, r3, #18
 8003c42:	230a      	movs	r3, #10
 8003c44:	18fb      	adds	r3, r7, r3
 8003c46:	8819      	ldrh	r1, [r3, #0]
 8003c48:	68f8      	ldr	r0, [r7, #12]
 8003c4a:	2300      	movs	r3, #0
 8003c4c:	9300      	str	r3, [sp, #0]
 8003c4e:	0023      	movs	r3, r4
 8003c50:	f000 f9f4 	bl	800403c <I2C_TransferConfig>
 8003c54:	68fb      	ldr	r3, [r7, #12]
 8003c56:	8d5b      	ldrh	r3, [r3, #42]	; 0x2a
 8003c58:	b29b      	uxth	r3, r3
 8003c5a:	2b00      	cmp	r3, #0
 8003c5c:	d197      	bne.n	8003b8e <HAL_I2C_Master_Receive+0xe6>
 8003c5e:	697a      	ldr	r2, [r7, #20]
 8003c60:	6ab9      	ldr	r1, [r7, #40]	; 0x28
 8003c62:	68fb      	ldr	r3, [r7, #12]
 8003c64:	0018      	movs	r0, r3
 8003c66:	f000 f8c7 	bl	8003df8 <I2C_WaitOnSTOPFlagUntilTimeout>
 8003c6a:	1e03      	subs	r3, r0, #0
 8003c6c:	d001      	beq.n	8003c72 <HAL_I2C_Master_Receive+0x1ca>
 8003c6e:	2301      	movs	r3, #1
 8003c70:	e01a      	b.n	8003ca8 <HAL_I2C_Master_Receive+0x200>
 8003c72:	68fb      	ldr	r3, [r7, #12]
 8003c74:	681b      	ldr	r3, [r3, #0]
 8003c76:	2220      	movs	r2, #32
 8003c78:	61da      	str	r2, [r3, #28]
 8003c7a:	68fb      	ldr	r3, [r7, #12]
 8003c7c:	681b      	ldr	r3, [r3, #0]
 8003c7e:	685a      	ldr	r2, [r3, #4]
 8003c80:	68fb      	ldr	r3, [r7, #12]
 8003c82:	681b      	ldr	r3, [r3, #0]
 8003c84:	490b      	ldr	r1, [pc, #44]	; (8003cb4 <HAL_I2C_Master_Receive+0x20c>)
 8003c86:	400a      	ands	r2, r1
 8003c88:	605a      	str	r2, [r3, #4]
 8003c8a:	68fb      	ldr	r3, [r7, #12]
 8003c8c:	2241      	movs	r2, #65	; 0x41
 8003c8e:	2120      	movs	r1, #32
 8003c90:	5499      	strb	r1, [r3, r2]
 8003c92:	68fb      	ldr	r3, [r7, #12]
 8003c94:	2242      	movs	r2, #66	; 0x42
 8003c96:	2100      	movs	r1, #0
 8003c98:	5499      	strb	r1, [r3, r2]
 8003c9a:	68fb      	ldr	r3, [r7, #12]
 8003c9c:	2240      	movs	r2, #64	; 0x40
 8003c9e:	2100      	movs	r1, #0
 8003ca0:	5499      	strb	r1, [r3, r2]
 8003ca2:	2300      	movs	r3, #0
 8003ca4:	e000      	b.n	8003ca8 <HAL_I2C_Master_Receive+0x200>
 8003ca6:	2302      	movs	r3, #2
 8003ca8:	0018      	movs	r0, r3
 8003caa:	46bd      	mov	sp, r7
 8003cac:	b007      	add	sp, #28
 8003cae:	bd90      	pop	{r4, r7, pc}
 8003cb0:	80002400 	.word	0x80002400
 8003cb4:	fe00e800 	.word	0xfe00e800

08003cb8 <I2C_Flush_TXDR>:
 8003cb8:	b580      	push	{r7, lr}
 8003cba:	b082      	sub	sp, #8
 8003cbc:	af00      	add	r7, sp, #0
 8003cbe:	6078      	str	r0, [r7, #4]
 8003cc0:	687b      	ldr	r3, [r7, #4]
 8003cc2:	681b      	ldr	r3, [r3, #0]
 8003cc4:	699b      	ldr	r3, [r3, #24]
 8003cc6:	2202      	movs	r2, #2
 8003cc8:	4013      	ands	r3, r2
 8003cca:	2b02      	cmp	r3, #2
 8003ccc:	d103      	bne.n	8003cd6 <I2C_Flush_TXDR+0x1e>
 8003cce:	687b      	ldr	r3, [r7, #4]
 8003cd0:	681b      	ldr	r3, [r3, #0]
 8003cd2:	2200      	movs	r2, #0
 8003cd4:	629a      	str	r2, [r3, #40]	; 0x28
 8003cd6:	687b      	ldr	r3, [r7, #4]
 8003cd8:	681b      	ldr	r3, [r3, #0]
 8003cda:	699b      	ldr	r3, [r3, #24]
 8003cdc:	2201      	movs	r2, #1
 8003cde:	4013      	ands	r3, r2
 8003ce0:	2b01      	cmp	r3, #1
 8003ce2:	d007      	beq.n	8003cf4 <I2C_Flush_TXDR+0x3c>
 8003ce4:	687b      	ldr	r3, [r7, #4]
 8003ce6:	681b      	ldr	r3, [r3, #0]
 8003ce8:	699a      	ldr	r2, [r3, #24]
 8003cea:	687b      	ldr	r3, [r7, #4]
 8003cec:	681b      	ldr	r3, [r3, #0]
 8003cee:	2101      	movs	r1, #1
 8003cf0:	430a      	orrs	r2, r1
 8003cf2:	619a      	str	r2, [r3, #24]
 8003cf4:	46c0      	nop			; (mov r8, r8)
 8003cf6:	46bd      	mov	sp, r7
 8003cf8:	b002      	add	sp, #8
 8003cfa:	bd80      	pop	{r7, pc}

08003cfc <I2C_WaitOnFlagUntilTimeout>:
 8003cfc:	b580      	push	{r7, lr}
 8003cfe:	b084      	sub	sp, #16
 8003d00:	af00      	add	r7, sp, #0
 8003d02:	60f8      	str	r0, [r7, #12]
 8003d04:	60b9      	str	r1, [r7, #8]
 8003d06:	603b      	str	r3, [r7, #0]
 8003d08:	1dfb      	adds	r3, r7, #7
 8003d0a:	701a      	strb	r2, [r3, #0]
 8003d0c:	e021      	b.n	8003d52 <I2C_WaitOnFlagUntilTimeout+0x56>
 8003d0e:	683b      	ldr	r3, [r7, #0]
 8003d10:	3301      	adds	r3, #1
 8003d12:	d01e      	beq.n	8003d52 <I2C_WaitOnFlagUntilTimeout+0x56>
 8003d14:	f7ff fac0 	bl	8003298 <HAL_GetTick>
 8003d18:	0002      	movs	r2, r0
 8003d1a:	69bb      	ldr	r3, [r7, #24]
 8003d1c:	1ad3      	subs	r3, r2, r3
 8003d1e:	683a      	ldr	r2, [r7, #0]
 8003d20:	429a      	cmp	r2, r3
 8003d22:	d302      	bcc.n	8003d2a <I2C_WaitOnFlagUntilTimeout+0x2e>
 8003d24:	683b      	ldr	r3, [r7, #0]
 8003d26:	2b00      	cmp	r3, #0
 8003d28:	d113      	bne.n	8003d52 <I2C_WaitOnFlagUntilTimeout+0x56>
 8003d2a:	68fb      	ldr	r3, [r7, #12]
 8003d2c:	6c5b      	ldr	r3, [r3, #68]	; 0x44
 8003d2e:	2220      	movs	r2, #32
 8003d30:	431a      	orrs	r2, r3
 8003d32:	68fb      	ldr	r3, [r7, #12]
 8003d34:	645a      	str	r2, [r3, #68]	; 0x44
 8003d36:	68fb      	ldr	r3, [r7, #12]
 8003d38:	2241      	movs	r2, #65	; 0x41
 8003d3a:	2120      	movs	r1, #32
 8003d3c:	5499      	strb	r1, [r3, r2]
 8003d3e:	68fb      	ldr	r3, [r7, #12]
 8003d40:	2242      	movs	r2, #66	; 0x42
 8003d42:	2100      	movs	r1, #0
 8003d44:	5499      	strb	r1, [r3, r2]
 8003d46:	68fb      	ldr	r3, [r7, #12]
 8003d48:	2240      	movs	r2, #64	; 0x40
 8003d4a:	2100      	movs	r1, #0
 8003d4c:	5499      	strb	r1, [r3, r2]
 8003d4e:	2301      	movs	r3, #1
 8003d50:	e00f      	b.n	8003d72 <I2C_WaitOnFlagUntilTimeout+0x76>
 8003d52:	68fb      	ldr	r3, [r7, #12]
 8003d54:	681b      	ldr	r3, [r3, #0]
 8003d56:	699b      	ldr	r3, [r3, #24]
 8003d58:	68ba      	ldr	r2, [r7, #8]
 8003d5a:	4013      	ands	r3, r2
 8003d5c:	68ba      	ldr	r2, [r7, #8]
 8003d5e:	1ad3      	subs	r3, r2, r3
 8003d60:	425a      	negs	r2, r3
 8003d62:	4153      	adcs	r3, r2
 8003d64:	b2db      	uxtb	r3, r3
 8003d66:	001a      	movs	r2, r3
 8003d68:	1dfb      	adds	r3, r7, #7
 8003d6a:	781b      	ldrb	r3, [r3, #0]
 8003d6c:	429a      	cmp	r2, r3
 8003d6e:	d0ce      	beq.n	8003d0e <I2C_WaitOnFlagUntilTimeout+0x12>
 8003d70:	2300      	movs	r3, #0
 8003d72:	0018      	movs	r0, r3
 8003d74:	46bd      	mov	sp, r7
 8003d76:	b004      	add	sp, #16
 8003d78:	bd80      	pop	{r7, pc}

08003d7a <I2C_WaitOnTXISFlagUntilTimeout>:
 8003d7a:	b580      	push	{r7, lr}
 8003d7c:	b084      	sub	sp, #16
 8003d7e:	af00      	add	r7, sp, #0
 8003d80:	60f8      	str	r0, [r7, #12]
 8003d82:	60b9      	str	r1, [r7, #8]
 8003d84:	607a      	str	r2, [r7, #4]
 8003d86:	e02b      	b.n	8003de0 <I2C_WaitOnTXISFlagUntilTimeout+0x66>
 8003d88:	687a      	ldr	r2, [r7, #4]
 8003d8a:	68b9      	ldr	r1, [r7, #8]
 8003d8c:	68fb      	ldr	r3, [r7, #12]
 8003d8e:	0018      	movs	r0, r3
 8003d90:	f000 f8da 	bl	8003f48 <I2C_IsAcknowledgeFailed>
 8003d94:	1e03      	subs	r3, r0, #0
 8003d96:	d001      	beq.n	8003d9c <I2C_WaitOnTXISFlagUntilTimeout+0x22>
 8003d98:	2301      	movs	r3, #1
 8003d9a:	e029      	b.n	8003df0 <I2C_WaitOnTXISFlagUntilTimeout+0x76>
 8003d9c:	68bb      	ldr	r3, [r7, #8]
 8003d9e:	3301      	adds	r3, #1
 8003da0:	d01e      	beq.n	8003de0 <I2C_WaitOnTXISFlagUntilTimeout+0x66>
 8003da2:	f7ff fa79 	bl	8003298 <HAL_GetTick>
 8003da6:	0002      	movs	r2, r0
 8003da8:	687b      	ldr	r3, [r7, #4]
 8003daa:	1ad3      	subs	r3, r2, r3
 8003dac:	68ba      	ldr	r2, [r7, #8]
 8003dae:	429a      	cmp	r2, r3
 8003db0:	d302      	bcc.n	8003db8 <I2C_WaitOnTXISFlagUntilTimeout+0x3e>
 8003db2:	68bb      	ldr	r3, [r7, #8]
 8003db4:	2b00      	cmp	r3, #0
 8003db6:	d113      	bne.n	8003de0 <I2C_WaitOnTXISFlagUntilTimeout+0x66>
 8003db8:	68fb      	ldr	r3, [r7, #12]
 8003dba:	6c5b      	ldr	r3, [r3, #68]	; 0x44
 8003dbc:	2220      	movs	r2, #32
 8003dbe:	431a      	orrs	r2, r3
 8003dc0:	68fb      	ldr	r3, [r7, #12]
 8003dc2:	645a      	str	r2, [r3, #68]	; 0x44
 8003dc4:	68fb      	ldr	r3, [r7, #12]
 8003dc6:	2241      	movs	r2, #65	; 0x41
 8003dc8:	2120      	movs	r1, #32
 8003dca:	5499      	strb	r1, [r3, r2]
 8003dcc:	68fb      	ldr	r3, [r7, #12]
 8003dce:	2242      	movs	r2, #66	; 0x42
 8003dd0:	2100      	movs	r1, #0
 8003dd2:	5499      	strb	r1, [r3, r2]
 8003dd4:	68fb      	ldr	r3, [r7, #12]
 8003dd6:	2240      	movs	r2, #64	; 0x40
 8003dd8:	2100      	movs	r1, #0
 8003dda:	5499      	strb	r1, [r3, r2]
 8003ddc:	2301      	movs	r3, #1
 8003dde:	e007      	b.n	8003df0 <I2C_WaitOnTXISFlagUntilTimeout+0x76>
 8003de0:	68fb      	ldr	r3, [r7, #12]
 8003de2:	681b      	ldr	r3, [r3, #0]
 8003de4:	699b      	ldr	r3, [r3, #24]
 8003de6:	2202      	movs	r2, #2
 8003de8:	4013      	ands	r3, r2
 8003dea:	2b02      	cmp	r3, #2
 8003dec:	d1cc      	bne.n	8003d88 <I2C_WaitOnTXISFlagUntilTimeout+0xe>
 8003dee:	2300      	movs	r3, #0
 8003df0:	0018      	movs	r0, r3
 8003df2:	46bd      	mov	sp, r7
 8003df4:	b004      	add	sp, #16
 8003df6:	bd80      	pop	{r7, pc}

08003df8 <I2C_WaitOnSTOPFlagUntilTimeout>:
 8003df8:	b580      	push	{r7, lr}
 8003dfa:	b084      	sub	sp, #16
 8003dfc:	af00      	add	r7, sp, #0
 8003dfe:	60f8      	str	r0, [r7, #12]
 8003e00:	60b9      	str	r1, [r7, #8]
 8003e02:	607a      	str	r2, [r7, #4]
 8003e04:	e028      	b.n	8003e58 <I2C_WaitOnSTOPFlagUntilTimeout+0x60>
 8003e06:	687a      	ldr	r2, [r7, #4]
 8003e08:	68b9      	ldr	r1, [r7, #8]
 8003e0a:	68fb      	ldr	r3, [r7, #12]
 8003e0c:	0018      	movs	r0, r3
 8003e0e:	f000 f89b 	bl	8003f48 <I2C_IsAcknowledgeFailed>
 8003e12:	1e03      	subs	r3, r0, #0
 8003e14:	d001      	beq.n	8003e1a <I2C_WaitOnSTOPFlagUntilTimeout+0x22>
 8003e16:	2301      	movs	r3, #1
 8003e18:	e026      	b.n	8003e68 <I2C_WaitOnSTOPFlagUntilTimeout+0x70>
 8003e1a:	f7ff fa3d 	bl	8003298 <HAL_GetTick>
 8003e1e:	0002      	movs	r2, r0
 8003e20:	687b      	ldr	r3, [r7, #4]
 8003e22:	1ad3      	subs	r3, r2, r3
 8003e24:	68ba      	ldr	r2, [r7, #8]
 8003e26:	429a      	cmp	r2, r3
 8003e28:	d302      	bcc.n	8003e30 <I2C_WaitOnSTOPFlagUntilTimeout+0x38>
 8003e2a:	68bb      	ldr	r3, [r7, #8]
 8003e2c:	2b00      	cmp	r3, #0
 8003e2e:	d113      	bne.n	8003e58 <I2C_WaitOnSTOPFlagUntilTimeout+0x60>
 8003e30:	68fb      	ldr	r3, [r7, #12]
 8003e32:	6c5b      	ldr	r3, [r3, #68]	; 0x44
 8003e34:	2220      	movs	r2, #32
 8003e36:	431a      	orrs	r2, r3
 8003e38:	68fb      	ldr	r3, [r7, #12]
 8003e3a:	645a      	str	r2, [r3, #68]	; 0x44
 8003e3c:	68fb      	ldr	r3, [r7, #12]
 8003e3e:	2241      	movs	r2, #65	; 0x41
 8003e40:	2120      	movs	r1, #32
 8003e42:	5499      	strb	r1, [r3, r2]
 8003e44:	68fb      	ldr	r3, [r7, #12]
 8003e46:	2242      	movs	r2, #66	; 0x42
 8003e48:	2100      	movs	r1, #0
 8003e4a:	5499      	strb	r1, [r3, r2]
 8003e4c:	68fb      	ldr	r3, [r7, #12]
 8003e4e:	2240      	movs	r2, #64	; 0x40
 8003e50:	2100      	movs	r1, #0
 8003e52:	5499      	strb	r1, [r3, r2]
 8003e54:	2301      	movs	r3, #1
 8003e56:	e007      	b.n	8003e68 <I2C_WaitOnSTOPFlagUntilTimeout+0x70>
 8003e58:	68fb      	ldr	r3, [r7, #12]
 8003e5a:	681b      	ldr	r3, [r3, #0]
 8003e5c:	699b      	ldr	r3, [r3, #24]
 8003e5e:	2220      	movs	r2, #32
 8003e60:	4013      	ands	r3, r2
 8003e62:	2b20      	cmp	r3, #32
 8003e64:	d1cf      	bne.n	8003e06 <I2C_WaitOnSTOPFlagUntilTimeout+0xe>
 8003e66:	2300      	movs	r3, #0
 8003e68:	0018      	movs	r0, r3
 8003e6a:	46bd      	mov	sp, r7
 8003e6c:	b004      	add	sp, #16
 8003e6e:	bd80      	pop	{r7, pc}

08003e70 <I2C_WaitOnRXNEFlagUntilTimeout>:
 8003e70:	b580      	push	{r7, lr}
 8003e72:	b084      	sub	sp, #16
 8003e74:	af00      	add	r7, sp, #0
 8003e76:	60f8      	str	r0, [r7, #12]
 8003e78:	60b9      	str	r1, [r7, #8]
 8003e7a:	607a      	str	r2, [r7, #4]
 8003e7c:	e055      	b.n	8003f2a <I2C_WaitOnRXNEFlagUntilTimeout+0xba>
 8003e7e:	687a      	ldr	r2, [r7, #4]
 8003e80:	68b9      	ldr	r1, [r7, #8]
 8003e82:	68fb      	ldr	r3, [r7, #12]
 8003e84:	0018      	movs	r0, r3
 8003e86:	f000 f85f 	bl	8003f48 <I2C_IsAcknowledgeFailed>
 8003e8a:	1e03      	subs	r3, r0, #0
 8003e8c:	d001      	beq.n	8003e92 <I2C_WaitOnRXNEFlagUntilTimeout+0x22>
 8003e8e:	2301      	movs	r3, #1
 8003e90:	e053      	b.n	8003f3a <I2C_WaitOnRXNEFlagUntilTimeout+0xca>
 8003e92:	68fb      	ldr	r3, [r7, #12]
 8003e94:	681b      	ldr	r3, [r3, #0]
 8003e96:	699b      	ldr	r3, [r3, #24]
 8003e98:	2220      	movs	r2, #32
 8003e9a:	4013      	ands	r3, r2
 8003e9c:	2b20      	cmp	r3, #32
 8003e9e:	d129      	bne.n	8003ef4 <I2C_WaitOnRXNEFlagUntilTimeout+0x84>
 8003ea0:	68fb      	ldr	r3, [r7, #12]
 8003ea2:	681b      	ldr	r3, [r3, #0]
 8003ea4:	699b      	ldr	r3, [r3, #24]
 8003ea6:	2204      	movs	r2, #4
 8003ea8:	4013      	ands	r3, r2
 8003eaa:	2b04      	cmp	r3, #4
 8003eac:	d105      	bne.n	8003eba <I2C_WaitOnRXNEFlagUntilTimeout+0x4a>
 8003eae:	68fb      	ldr	r3, [r7, #12]
 8003eb0:	8d1b      	ldrh	r3, [r3, #40]	; 0x28
 8003eb2:	2b00      	cmp	r3, #0
 8003eb4:	d001      	beq.n	8003eba <I2C_WaitOnRXNEFlagUntilTimeout+0x4a>
 8003eb6:	2300      	movs	r3, #0
 8003eb8:	e03f      	b.n	8003f3a <I2C_WaitOnRXNEFlagUntilTimeout+0xca>
 8003eba:	68fb      	ldr	r3, [r7, #12]
 8003ebc:	681b      	ldr	r3, [r3, #0]
 8003ebe:	2220      	movs	r2, #32
 8003ec0:	61da      	str	r2, [r3, #28]
 8003ec2:	68fb      	ldr	r3, [r7, #12]
 8003ec4:	681b      	ldr	r3, [r3, #0]
 8003ec6:	685a      	ldr	r2, [r3, #4]
 8003ec8:	68fb      	ldr	r3, [r7, #12]
 8003eca:	681b      	ldr	r3, [r3, #0]
 8003ecc:	491d      	ldr	r1, [pc, #116]	; (8003f44 <I2C_WaitOnRXNEFlagUntilTimeout+0xd4>)
 8003ece:	400a      	ands	r2, r1
 8003ed0:	605a      	str	r2, [r3, #4]
 8003ed2:	68fb      	ldr	r3, [r7, #12]
 8003ed4:	2200      	movs	r2, #0
 8003ed6:	645a      	str	r2, [r3, #68]	; 0x44
 8003ed8:	68fb      	ldr	r3, [r7, #12]
 8003eda:	2241      	movs	r2, #65	; 0x41
 8003edc:	2120      	movs	r1, #32
 8003ede:	5499      	strb	r1, [r3, r2]
 8003ee0:	68fb      	ldr	r3, [r7, #12]
 8003ee2:	2242      	movs	r2, #66	; 0x42
 8003ee4:	2100      	movs	r1, #0
 8003ee6:	5499      	strb	r1, [r3, r2]
 8003ee8:	68fb      	ldr	r3, [r7, #12]
 8003eea:	2240      	movs	r2, #64	; 0x40
 8003eec:	2100      	movs	r1, #0
 8003eee:	5499      	strb	r1, [r3, r2]
 8003ef0:	2301      	movs	r3, #1
 8003ef2:	e022      	b.n	8003f3a <I2C_WaitOnRXNEFlagUntilTimeout+0xca>
 8003ef4:	f7ff f9d0 	bl	8003298 <HAL_GetTick>
 8003ef8:	0002      	movs	r2, r0
 8003efa:	687b      	ldr	r3, [r7, #4]
 8003efc:	1ad3      	subs	r3, r2, r3
 8003efe:	68ba      	ldr	r2, [r7, #8]
 8003f00:	429a      	cmp	r2, r3
 8003f02:	d302      	bcc.n	8003f0a <I2C_WaitOnRXNEFlagUntilTimeout+0x9a>
 8003f04:	68bb      	ldr	r3, [r7, #8]
 8003f06:	2b00      	cmp	r3, #0
 8003f08:	d10f      	bne.n	8003f2a <I2C_WaitOnRXNEFlagUntilTimeout+0xba>
 8003f0a:	68fb      	ldr	r3, [r7, #12]
 8003f0c:	6c5b      	ldr	r3, [r3, #68]	; 0x44
 8003f0e:	2220      	movs	r2, #32
 8003f10:	431a      	orrs	r2, r3
 8003f12:	68fb      	ldr	r3, [r7, #12]
 8003f14:	645a      	str	r2, [r3, #68]	; 0x44
 8003f16:	68fb      	ldr	r3, [r7, #12]
 8003f18:	2241      	movs	r2, #65	; 0x41
 8003f1a:	2120      	movs	r1, #32
 8003f1c:	5499      	strb	r1, [r3, r2]
 8003f1e:	68fb      	ldr	r3, [r7, #12]
 8003f20:	2240      	movs	r2, #64	; 0x40
 8003f22:	2100      	movs	r1, #0
 8003f24:	5499      	strb	r1, [r3, r2]
 8003f26:	2301      	movs	r3, #1
 8003f28:	e007      	b.n	8003f3a <I2C_WaitOnRXNEFlagUntilTimeout+0xca>
 8003f2a:	68fb      	ldr	r3, [r7, #12]
 8003f2c:	681b      	ldr	r3, [r3, #0]
 8003f2e:	699b      	ldr	r3, [r3, #24]
 8003f30:	2204      	movs	r2, #4
 8003f32:	4013      	ands	r3, r2
 8003f34:	2b04      	cmp	r3, #4
 8003f36:	d1a2      	bne.n	8003e7e <I2C_WaitOnRXNEFlagUntilTimeout+0xe>
 8003f38:	2300      	movs	r3, #0
 8003f3a:	0018      	movs	r0, r3
 8003f3c:	46bd      	mov	sp, r7
 8003f3e:	b004      	add	sp, #16
 8003f40:	bd80      	pop	{r7, pc}
 8003f42:	46c0      	nop			; (mov r8, r8)
 8003f44:	fe00e800 	.word	0xfe00e800

08003f48 <I2C_IsAcknowledgeFailed>:
 8003f48:	b580      	push	{r7, lr}
 8003f4a:	b084      	sub	sp, #16
 8003f4c:	af00      	add	r7, sp, #0
 8003f4e:	60f8      	str	r0, [r7, #12]
 8003f50:	60b9      	str	r1, [r7, #8]
 8003f52:	607a      	str	r2, [r7, #4]
 8003f54:	68fb      	ldr	r3, [r7, #12]
 8003f56:	681b      	ldr	r3, [r3, #0]
 8003f58:	699b      	ldr	r3, [r3, #24]
 8003f5a:	2210      	movs	r2, #16
 8003f5c:	4013      	ands	r3, r2
 8003f5e:	2b10      	cmp	r3, #16
 8003f60:	d164      	bne.n	800402c <I2C_IsAcknowledgeFailed+0xe4>
 8003f62:	68fb      	ldr	r3, [r7, #12]
 8003f64:	681b      	ldr	r3, [r3, #0]
 8003f66:	685a      	ldr	r2, [r3, #4]
 8003f68:	2380      	movs	r3, #128	; 0x80
 8003f6a:	049b      	lsls	r3, r3, #18
 8003f6c:	401a      	ands	r2, r3
 8003f6e:	2380      	movs	r3, #128	; 0x80
 8003f70:	049b      	lsls	r3, r3, #18
 8003f72:	429a      	cmp	r2, r3
 8003f74:	d02b      	beq.n	8003fce <I2C_IsAcknowledgeFailed+0x86>
 8003f76:	68fb      	ldr	r3, [r7, #12]
 8003f78:	681b      	ldr	r3, [r3, #0]
 8003f7a:	685a      	ldr	r2, [r3, #4]
 8003f7c:	68fb      	ldr	r3, [r7, #12]
 8003f7e:	681b      	ldr	r3, [r3, #0]
 8003f80:	2180      	movs	r1, #128	; 0x80
 8003f82:	01c9      	lsls	r1, r1, #7
 8003f84:	430a      	orrs	r2, r1
 8003f86:	605a      	str	r2, [r3, #4]
 8003f88:	e021      	b.n	8003fce <I2C_IsAcknowledgeFailed+0x86>
 8003f8a:	68bb      	ldr	r3, [r7, #8]
 8003f8c:	3301      	adds	r3, #1
 8003f8e:	d01e      	beq.n	8003fce <I2C_IsAcknowledgeFailed+0x86>
 8003f90:	f7ff f982 	bl	8003298 <HAL_GetTick>
 8003f94:	0002      	movs	r2, r0
 8003f96:	687b      	ldr	r3, [r7, #4]
 8003f98:	1ad3      	subs	r3, r2, r3
 8003f9a:	68ba      	ldr	r2, [r7, #8]
 8003f9c:	429a      	cmp	r2, r3
 8003f9e:	d302      	bcc.n	8003fa6 <I2C_IsAcknowledgeFailed+0x5e>
 8003fa0:	68bb      	ldr	r3, [r7, #8]
 8003fa2:	2b00      	cmp	r3, #0
 8003fa4:	d113      	bne.n	8003fce <I2C_IsAcknowledgeFailed+0x86>
 8003fa6:	68fb      	ldr	r3, [r7, #12]
 8003fa8:	6c5b      	ldr	r3, [r3, #68]	; 0x44
 8003faa:	2220      	movs	r2, #32
 8003fac:	431a      	orrs	r2, r3
 8003fae:	68fb      	ldr	r3, [r7, #12]
 8003fb0:	645a      	str	r2, [r3, #68]	; 0x44
 8003fb2:	68fb      	ldr	r3, [r7, #12]
 8003fb4:	2241      	movs	r2, #65	; 0x41
 8003fb6:	2120      	movs	r1, #32
 8003fb8:	5499      	strb	r1, [r3, r2]
 8003fba:	68fb      	ldr	r3, [r7, #12]
 8003fbc:	2242      	movs	r2, #66	; 0x42
 8003fbe:	2100      	movs	r1, #0
 8003fc0:	5499      	strb	r1, [r3, r2]
 8003fc2:	68fb      	ldr	r3, [r7, #12]
 8003fc4:	2240      	movs	r2, #64	; 0x40
 8003fc6:	2100      	movs	r1, #0
 8003fc8:	5499      	strb	r1, [r3, r2]
 8003fca:	2301      	movs	r3, #1
 8003fcc:	e02f      	b.n	800402e <I2C_IsAcknowledgeFailed+0xe6>
 8003fce:	68fb      	ldr	r3, [r7, #12]
 8003fd0:	681b      	ldr	r3, [r3, #0]
 8003fd2:	699b      	ldr	r3, [r3, #24]
 8003fd4:	2220      	movs	r2, #32
 8003fd6:	4013      	ands	r3, r2
 8003fd8:	2b20      	cmp	r3, #32
 8003fda:	d1d6      	bne.n	8003f8a <I2C_IsAcknowledgeFailed+0x42>
 8003fdc:	68fb      	ldr	r3, [r7, #12]
 8003fde:	681b      	ldr	r3, [r3, #0]
 8003fe0:	2210      	movs	r2, #16
 8003fe2:	61da      	str	r2, [r3, #28]
 8003fe4:	68fb      	ldr	r3, [r7, #12]
 8003fe6:	681b      	ldr	r3, [r3, #0]
 8003fe8:	2220      	movs	r2, #32
 8003fea:	61da      	str	r2, [r3, #28]
 8003fec:	68fb      	ldr	r3, [r7, #12]
 8003fee:	0018      	movs	r0, r3
 8003ff0:	f7ff fe62 	bl	8003cb8 <I2C_Flush_TXDR>
 8003ff4:	68fb      	ldr	r3, [r7, #12]
 8003ff6:	681b      	ldr	r3, [r3, #0]
 8003ff8:	685a      	ldr	r2, [r3, #4]
 8003ffa:	68fb      	ldr	r3, [r7, #12]
 8003ffc:	681b      	ldr	r3, [r3, #0]
 8003ffe:	490e      	ldr	r1, [pc, #56]	; (8004038 <I2C_IsAcknowledgeFailed+0xf0>)
 8004000:	400a      	ands	r2, r1
 8004002:	605a      	str	r2, [r3, #4]
 8004004:	68fb      	ldr	r3, [r7, #12]
 8004006:	6c5b      	ldr	r3, [r3, #68]	; 0x44
 8004008:	2204      	movs	r2, #4
 800400a:	431a      	orrs	r2, r3
 800400c:	68fb      	ldr	r3, [r7, #12]
 800400e:	645a      	str	r2, [r3, #68]	; 0x44
 8004010:	68fb      	ldr	r3, [r7, #12]
 8004012:	2241      	movs	r2, #65	; 0x41
 8004014:	2120      	movs	r1, #32
 8004016:	5499      	strb	r1, [r3, r2]
 8004018:	68fb      	ldr	r3, [r7, #12]
 800401a:	2242      	movs	r2, #66	; 0x42
 800401c:	2100      	movs	r1, #0
 800401e:	5499      	strb	r1, [r3, r2]
 8004020:	68fb      	ldr	r3, [r7, #12]
 8004022:	2240      	movs	r2, #64	; 0x40
 8004024:	2100      	movs	r1, #0
 8004026:	5499      	strb	r1, [r3, r2]
 8004028:	2301      	movs	r3, #1
 800402a:	e000      	b.n	800402e <I2C_IsAcknowledgeFailed+0xe6>
 800402c:	2300      	movs	r3, #0
 800402e:	0018      	movs	r0, r3
 8004030:	46bd      	mov	sp, r7
 8004032:	b004      	add	sp, #16
 8004034:	bd80      	pop	{r7, pc}
 8004036:	46c0      	nop			; (mov r8, r8)
 8004038:	fe00e800 	.word	0xfe00e800

0800403c <I2C_TransferConfig>:
 800403c:	b590      	push	{r4, r7, lr}
 800403e:	b085      	sub	sp, #20
 8004040:	af00      	add	r7, sp, #0
 8004042:	60f8      	str	r0, [r7, #12]
 8004044:	0008      	movs	r0, r1
 8004046:	0011      	movs	r1, r2
 8004048:	607b      	str	r3, [r7, #4]
 800404a:	240a      	movs	r4, #10
 800404c:	193b      	adds	r3, r7, r4
 800404e:	1c02      	adds	r2, r0, #0
 8004050:	801a      	strh	r2, [r3, #0]
 8004052:	2009      	movs	r0, #9
 8004054:	183b      	adds	r3, r7, r0
 8004056:	1c0a      	adds	r2, r1, #0
 8004058:	701a      	strb	r2, [r3, #0]
 800405a:	68fb      	ldr	r3, [r7, #12]
 800405c:	681b      	ldr	r3, [r3, #0]
 800405e:	685b      	ldr	r3, [r3, #4]
 8004060:	6a3a      	ldr	r2, [r7, #32]
 8004062:	0d51      	lsrs	r1, r2, #21
 8004064:	2280      	movs	r2, #128	; 0x80
 8004066:	00d2      	lsls	r2, r2, #3
 8004068:	400a      	ands	r2, r1
 800406a:	490e      	ldr	r1, [pc, #56]	; (80040a4 <I2C_TransferConfig+0x68>)
 800406c:	430a      	orrs	r2, r1
 800406e:	43d2      	mvns	r2, r2
 8004070:	401a      	ands	r2, r3
 8004072:	0011      	movs	r1, r2
 8004074:	193b      	adds	r3, r7, r4
 8004076:	881b      	ldrh	r3, [r3, #0]
 8004078:	059b      	lsls	r3, r3, #22
 800407a:	0d9a      	lsrs	r2, r3, #22
 800407c:	183b      	adds	r3, r7, r0
 800407e:	781b      	ldrb	r3, [r3, #0]
 8004080:	0418      	lsls	r0, r3, #16
 8004082:	23ff      	movs	r3, #255	; 0xff
 8004084:	041b      	lsls	r3, r3, #16
 8004086:	4003      	ands	r3, r0
 8004088:	431a      	orrs	r2, r3
 800408a:	687b      	ldr	r3, [r7, #4]
 800408c:	431a      	orrs	r2, r3
 800408e:	6a3b      	ldr	r3, [r7, #32]
 8004090:	431a      	orrs	r2, r3
 8004092:	68fb      	ldr	r3, [r7, #12]
 8004094:	681b      	ldr	r3, [r3, #0]
 8004096:	430a      	orrs	r2, r1
 8004098:	605a      	str	r2, [r3, #4]
 800409a:	46c0      	nop			; (mov r8, r8)
 800409c:	46bd      	mov	sp, r7
 800409e:	b005      	add	sp, #20
 80040a0:	bd90      	pop	{r4, r7, pc}
 80040a2:	46c0      	nop			; (mov r8, r8)
 80040a4:	03ff63ff 	.word	0x03ff63ff

080040a8 <HAL_I2CEx_ConfigAnalogFilter>:
 80040a8:	b580      	push	{r7, lr}
 80040aa:	b082      	sub	sp, #8
 80040ac:	af00      	add	r7, sp, #0
 80040ae:	6078      	str	r0, [r7, #4]
 80040b0:	6039      	str	r1, [r7, #0]
 80040b2:	687b      	ldr	r3, [r7, #4]
 80040b4:	2241      	movs	r2, #65	; 0x41
 80040b6:	5c9b      	ldrb	r3, [r3, r2]
 80040b8:	b2db      	uxtb	r3, r3
 80040ba:	2b20      	cmp	r3, #32
 80040bc:	d138      	bne.n	8004130 <HAL_I2CEx_ConfigAnalogFilter+0x88>
 80040be:	687b      	ldr	r3, [r7, #4]
 80040c0:	2240      	movs	r2, #64	; 0x40
 80040c2:	5c9b      	ldrb	r3, [r3, r2]
 80040c4:	2b01      	cmp	r3, #1
 80040c6:	d101      	bne.n	80040cc <HAL_I2CEx_ConfigAnalogFilter+0x24>
 80040c8:	2302      	movs	r3, #2
 80040ca:	e032      	b.n	8004132 <HAL_I2CEx_ConfigAnalogFilter+0x8a>
 80040cc:	687b      	ldr	r3, [r7, #4]
 80040ce:	2240      	movs	r2, #64	; 0x40
 80040d0:	2101      	movs	r1, #1
 80040d2:	5499      	strb	r1, [r3, r2]
 80040d4:	687b      	ldr	r3, [r7, #4]
 80040d6:	2241      	movs	r2, #65	; 0x41
 80040d8:	2124      	movs	r1, #36	; 0x24
 80040da:	5499      	strb	r1, [r3, r2]
 80040dc:	687b      	ldr	r3, [r7, #4]
 80040de:	681b      	ldr	r3, [r3, #0]
 80040e0:	681a      	ldr	r2, [r3, #0]
 80040e2:	687b      	ldr	r3, [r7, #4]
 80040e4:	681b      	ldr	r3, [r3, #0]
 80040e6:	2101      	movs	r1, #1
 80040e8:	438a      	bics	r2, r1
 80040ea:	601a      	str	r2, [r3, #0]
 80040ec:	687b      	ldr	r3, [r7, #4]
 80040ee:	681b      	ldr	r3, [r3, #0]
 80040f0:	681a      	ldr	r2, [r3, #0]
 80040f2:	687b      	ldr	r3, [r7, #4]
 80040f4:	681b      	ldr	r3, [r3, #0]
 80040f6:	4911      	ldr	r1, [pc, #68]	; (800413c <HAL_I2CEx_ConfigAnalogFilter+0x94>)
 80040f8:	400a      	ands	r2, r1
 80040fa:	601a      	str	r2, [r3, #0]
 80040fc:	687b      	ldr	r3, [r7, #4]
 80040fe:	681b      	ldr	r3, [r3, #0]
 8004100:	6819      	ldr	r1, [r3, #0]
 8004102:	687b      	ldr	r3, [r7, #4]
 8004104:	681b      	ldr	r3, [r3, #0]
 8004106:	683a      	ldr	r2, [r7, #0]
 8004108:	430a      	orrs	r2, r1
 800410a:	601a      	str	r2, [r3, #0]
 800410c:	687b      	ldr	r3, [r7, #4]
 800410e:	681b      	ldr	r3, [r3, #0]
 8004110:	681a      	ldr	r2, [r3, #0]
 8004112:	687b      	ldr	r3, [r7, #4]
 8004114:	681b      	ldr	r3, [r3, #0]
 8004116:	2101      	movs	r1, #1
 8004118:	430a      	orrs	r2, r1
 800411a:	601a      	str	r2, [r3, #0]
 800411c:	687b      	ldr	r3, [r7, #4]
 800411e:	2241      	movs	r2, #65	; 0x41
 8004120:	2120      	movs	r1, #32
 8004122:	5499      	strb	r1, [r3, r2]
 8004124:	687b      	ldr	r3, [r7, #4]
 8004126:	2240      	movs	r2, #64	; 0x40
 8004128:	2100      	movs	r1, #0
 800412a:	5499      	strb	r1, [r3, r2]
 800412c:	2300      	movs	r3, #0
 800412e:	e000      	b.n	8004132 <HAL_I2CEx_ConfigAnalogFilter+0x8a>
 8004130:	2302      	movs	r3, #2
 8004132:	0018      	movs	r0, r3
 8004134:	46bd      	mov	sp, r7
 8004136:	b002      	add	sp, #8
 8004138:	bd80      	pop	{r7, pc}
 800413a:	46c0      	nop			; (mov r8, r8)
 800413c:	ffffefff 	.word	0xffffefff

08004140 <HAL_I2CEx_ConfigDigitalFilter>:
 8004140:	b580      	push	{r7, lr}
 8004142:	b084      	sub	sp, #16
 8004144:	af00      	add	r7, sp, #0
 8004146:	6078      	str	r0, [r7, #4]
 8004148:	6039      	str	r1, [r7, #0]
 800414a:	687b      	ldr	r3, [r7, #4]
 800414c:	2241      	movs	r2, #65	; 0x41
 800414e:	5c9b      	ldrb	r3, [r3, r2]
 8004150:	b2db      	uxtb	r3, r3
 8004152:	2b20      	cmp	r3, #32
 8004154:	d139      	bne.n	80041ca <HAL_I2CEx_ConfigDigitalFilter+0x8a>
 8004156:	687b      	ldr	r3, [r7, #4]
 8004158:	2240      	movs	r2, #64	; 0x40
 800415a:	5c9b      	ldrb	r3, [r3, r2]
 800415c:	2b01      	cmp	r3, #1
 800415e:	d101      	bne.n	8004164 <HAL_I2CEx_ConfigDigitalFilter+0x24>
 8004160:	2302      	movs	r3, #2
 8004162:	e033      	b.n	80041cc <HAL_I2CEx_ConfigDigitalFilter+0x8c>
 8004164:	687b      	ldr	r3, [r7, #4]
 8004166:	2240      	movs	r2, #64	; 0x40
 8004168:	2101      	movs	r1, #1
 800416a:	5499      	strb	r1, [r3, r2]
 800416c:	687b      	ldr	r3, [r7, #4]
 800416e:	2241      	movs	r2, #65	; 0x41
 8004170:	2124      	movs	r1, #36	; 0x24
 8004172:	5499      	strb	r1, [r3, r2]
 8004174:	687b      	ldr	r3, [r7, #4]
 8004176:	681b      	ldr	r3, [r3, #0]
 8004178:	681a      	ldr	r2, [r3, #0]
 800417a:	687b      	ldr	r3, [r7, #4]
 800417c:	681b      	ldr	r3, [r3, #0]
 800417e:	2101      	movs	r1, #1
 8004180:	438a      	bics	r2, r1
 8004182:	601a      	str	r2, [r3, #0]
 8004184:	687b      	ldr	r3, [r7, #4]
 8004186:	681b      	ldr	r3, [r3, #0]
 8004188:	681b      	ldr	r3, [r3, #0]
 800418a:	60fb      	str	r3, [r7, #12]
 800418c:	68fb      	ldr	r3, [r7, #12]
 800418e:	4a11      	ldr	r2, [pc, #68]	; (80041d4 <HAL_I2CEx_ConfigDigitalFilter+0x94>)
 8004190:	4013      	ands	r3, r2
 8004192:	60fb      	str	r3, [r7, #12]
 8004194:	683b      	ldr	r3, [r7, #0]
 8004196:	021b      	lsls	r3, r3, #8
 8004198:	68fa      	ldr	r2, [r7, #12]
 800419a:	4313      	orrs	r3, r2
 800419c:	60fb      	str	r3, [r7, #12]
 800419e:	687b      	ldr	r3, [r7, #4]
 80041a0:	681b      	ldr	r3, [r3, #0]
 80041a2:	68fa      	ldr	r2, [r7, #12]
 80041a4:	601a      	str	r2, [r3, #0]
 80041a6:	687b      	ldr	r3, [r7, #4]
 80041a8:	681b      	ldr	r3, [r3, #0]
 80041aa:	681a      	ldr	r2, [r3, #0]
 80041ac:	687b      	ldr	r3, [r7, #4]
 80041ae:	681b      	ldr	r3, [r3, #0]
 80041b0:	2101      	movs	r1, #1
 80041b2:	430a      	orrs	r2, r1
 80041b4:	601a      	str	r2, [r3, #0]
 80041b6:	687b      	ldr	r3, [r7, #4]
 80041b8:	2241      	movs	r2, #65	; 0x41
 80041ba:	2120      	movs	r1, #32
 80041bc:	5499      	strb	r1, [r3, r2]
 80041be:	687b      	ldr	r3, [r7, #4]
 80041c0:	2240      	movs	r2, #64	; 0x40
 80041c2:	2100      	movs	r1, #0
 80041c4:	5499      	strb	r1, [r3, r2]
 80041c6:	2300      	movs	r3, #0
 80041c8:	e000      	b.n	80041cc <HAL_I2CEx_ConfigDigitalFilter+0x8c>
 80041ca:	2302      	movs	r3, #2
 80041cc:	0018      	movs	r0, r3
 80041ce:	46bd      	mov	sp, r7
 80041d0:	b004      	add	sp, #16
 80041d2:	bd80      	pop	{r7, pc}
 80041d4:	fffff0ff 	.word	0xfffff0ff

080041d8 <HAL_RCC_OscConfig>:
 80041d8:	b580      	push	{r7, lr}
 80041da:	b088      	sub	sp, #32
 80041dc:	af00      	add	r7, sp, #0
 80041de:	6078      	str	r0, [r7, #4]
 80041e0:	687b      	ldr	r3, [r7, #4]
 80041e2:	2b00      	cmp	r3, #0
 80041e4:	d101      	bne.n	80041ea <HAL_RCC_OscConfig+0x12>
 80041e6:	2301      	movs	r3, #1
 80041e8:	e301      	b.n	80047ee <HAL_RCC_OscConfig+0x616>
 80041ea:	687b      	ldr	r3, [r7, #4]
 80041ec:	681b      	ldr	r3, [r3, #0]
 80041ee:	2201      	movs	r2, #1
 80041f0:	4013      	ands	r3, r2
 80041f2:	d100      	bne.n	80041f6 <HAL_RCC_OscConfig+0x1e>
 80041f4:	e08d      	b.n	8004312 <HAL_RCC_OscConfig+0x13a>
 80041f6:	4bc3      	ldr	r3, [pc, #780]	; (8004504 <HAL_RCC_OscConfig+0x32c>)
 80041f8:	685b      	ldr	r3, [r3, #4]
 80041fa:	220c      	movs	r2, #12
 80041fc:	4013      	ands	r3, r2
 80041fe:	2b04      	cmp	r3, #4
 8004200:	d00e      	beq.n	8004220 <HAL_RCC_OscConfig+0x48>
 8004202:	4bc0      	ldr	r3, [pc, #768]	; (8004504 <HAL_RCC_OscConfig+0x32c>)
 8004204:	685b      	ldr	r3, [r3, #4]
 8004206:	220c      	movs	r2, #12
 8004208:	4013      	ands	r3, r2
 800420a:	2b08      	cmp	r3, #8
 800420c:	d116      	bne.n	800423c <HAL_RCC_OscConfig+0x64>
 800420e:	4bbd      	ldr	r3, [pc, #756]	; (8004504 <HAL_RCC_OscConfig+0x32c>)
 8004210:	685a      	ldr	r2, [r3, #4]
 8004212:	2380      	movs	r3, #128	; 0x80
 8004214:	025b      	lsls	r3, r3, #9
 8004216:	401a      	ands	r2, r3
 8004218:	2380      	movs	r3, #128	; 0x80
 800421a:	025b      	lsls	r3, r3, #9
 800421c:	429a      	cmp	r2, r3
 800421e:	d10d      	bne.n	800423c <HAL_RCC_OscConfig+0x64>
 8004220:	4bb8      	ldr	r3, [pc, #736]	; (8004504 <HAL_RCC_OscConfig+0x32c>)
 8004222:	681a      	ldr	r2, [r3, #0]
 8004224:	2380      	movs	r3, #128	; 0x80
 8004226:	029b      	lsls	r3, r3, #10
 8004228:	4013      	ands	r3, r2
 800422a:	d100      	bne.n	800422e <HAL_RCC_OscConfig+0x56>
 800422c:	e070      	b.n	8004310 <HAL_RCC_OscConfig+0x138>
 800422e:	687b      	ldr	r3, [r7, #4]
 8004230:	685b      	ldr	r3, [r3, #4]
 8004232:	2b00      	cmp	r3, #0
 8004234:	d000      	beq.n	8004238 <HAL_RCC_OscConfig+0x60>
 8004236:	e06b      	b.n	8004310 <HAL_RCC_OscConfig+0x138>
 8004238:	2301      	movs	r3, #1
 800423a:	e2d8      	b.n	80047ee <HAL_RCC_OscConfig+0x616>
 800423c:	687b      	ldr	r3, [r7, #4]
 800423e:	685b      	ldr	r3, [r3, #4]
 8004240:	2b01      	cmp	r3, #1
 8004242:	d107      	bne.n	8004254 <HAL_RCC_OscConfig+0x7c>
 8004244:	4baf      	ldr	r3, [pc, #700]	; (8004504 <HAL_RCC_OscConfig+0x32c>)
 8004246:	681a      	ldr	r2, [r3, #0]
 8004248:	4bae      	ldr	r3, [pc, #696]	; (8004504 <HAL_RCC_OscConfig+0x32c>)
 800424a:	2180      	movs	r1, #128	; 0x80
 800424c:	0249      	lsls	r1, r1, #9
 800424e:	430a      	orrs	r2, r1
 8004250:	601a      	str	r2, [r3, #0]
 8004252:	e02f      	b.n	80042b4 <HAL_RCC_OscConfig+0xdc>
 8004254:	687b      	ldr	r3, [r7, #4]
 8004256:	685b      	ldr	r3, [r3, #4]
 8004258:	2b00      	cmp	r3, #0
 800425a:	d10c      	bne.n	8004276 <HAL_RCC_OscConfig+0x9e>
 800425c:	4ba9      	ldr	r3, [pc, #676]	; (8004504 <HAL_RCC_OscConfig+0x32c>)
 800425e:	681a      	ldr	r2, [r3, #0]
 8004260:	4ba8      	ldr	r3, [pc, #672]	; (8004504 <HAL_RCC_OscConfig+0x32c>)
 8004262:	49a9      	ldr	r1, [pc, #676]	; (8004508 <HAL_RCC_OscConfig+0x330>)
 8004264:	400a      	ands	r2, r1
 8004266:	601a      	str	r2, [r3, #0]
 8004268:	4ba6      	ldr	r3, [pc, #664]	; (8004504 <HAL_RCC_OscConfig+0x32c>)
 800426a:	681a      	ldr	r2, [r3, #0]
 800426c:	4ba5      	ldr	r3, [pc, #660]	; (8004504 <HAL_RCC_OscConfig+0x32c>)
 800426e:	49a7      	ldr	r1, [pc, #668]	; (800450c <HAL_RCC_OscConfig+0x334>)
 8004270:	400a      	ands	r2, r1
 8004272:	601a      	str	r2, [r3, #0]
 8004274:	e01e      	b.n	80042b4 <HAL_RCC_OscConfig+0xdc>
 8004276:	687b      	ldr	r3, [r7, #4]
 8004278:	685b      	ldr	r3, [r3, #4]
 800427a:	2b05      	cmp	r3, #5
 800427c:	d10e      	bne.n	800429c <HAL_RCC_OscConfig+0xc4>
 800427e:	4ba1      	ldr	r3, [pc, #644]	; (8004504 <HAL_RCC_OscConfig+0x32c>)
 8004280:	681a      	ldr	r2, [r3, #0]
 8004282:	4ba0      	ldr	r3, [pc, #640]	; (8004504 <HAL_RCC_OscConfig+0x32c>)
 8004284:	2180      	movs	r1, #128	; 0x80
 8004286:	02c9      	lsls	r1, r1, #11
 8004288:	430a      	orrs	r2, r1
 800428a:	601a      	str	r2, [r3, #0]
 800428c:	4b9d      	ldr	r3, [pc, #628]	; (8004504 <HAL_RCC_OscConfig+0x32c>)
 800428e:	681a      	ldr	r2, [r3, #0]
 8004290:	4b9c      	ldr	r3, [pc, #624]	; (8004504 <HAL_RCC_OscConfig+0x32c>)
 8004292:	2180      	movs	r1, #128	; 0x80
 8004294:	0249      	lsls	r1, r1, #9
 8004296:	430a      	orrs	r2, r1
 8004298:	601a      	str	r2, [r3, #0]
 800429a:	e00b      	b.n	80042b4 <HAL_RCC_OscConfig+0xdc>
 800429c:	4b99      	ldr	r3, [pc, #612]	; (8004504 <HAL_RCC_OscConfig+0x32c>)
 800429e:	681a      	ldr	r2, [r3, #0]
 80042a0:	4b98      	ldr	r3, [pc, #608]	; (8004504 <HAL_RCC_OscConfig+0x32c>)
 80042a2:	4999      	ldr	r1, [pc, #612]	; (8004508 <HAL_RCC_OscConfig+0x330>)
 80042a4:	400a      	ands	r2, r1
 80042a6:	601a      	str	r2, [r3, #0]
 80042a8:	4b96      	ldr	r3, [pc, #600]	; (8004504 <HAL_RCC_OscConfig+0x32c>)
 80042aa:	681a      	ldr	r2, [r3, #0]
 80042ac:	4b95      	ldr	r3, [pc, #596]	; (8004504 <HAL_RCC_OscConfig+0x32c>)
 80042ae:	4997      	ldr	r1, [pc, #604]	; (800450c <HAL_RCC_OscConfig+0x334>)
 80042b0:	400a      	ands	r2, r1
 80042b2:	601a      	str	r2, [r3, #0]
 80042b4:	687b      	ldr	r3, [r7, #4]
 80042b6:	685b      	ldr	r3, [r3, #4]
 80042b8:	2b00      	cmp	r3, #0
 80042ba:	d014      	beq.n	80042e6 <HAL_RCC_OscConfig+0x10e>
 80042bc:	f7fe ffec 	bl	8003298 <HAL_GetTick>
 80042c0:	0003      	movs	r3, r0
 80042c2:	61bb      	str	r3, [r7, #24]
 80042c4:	e008      	b.n	80042d8 <HAL_RCC_OscConfig+0x100>
 80042c6:	f7fe ffe7 	bl	8003298 <HAL_GetTick>
 80042ca:	0002      	movs	r2, r0
 80042cc:	69bb      	ldr	r3, [r7, #24]
 80042ce:	1ad3      	subs	r3, r2, r3
 80042d0:	2b64      	cmp	r3, #100	; 0x64
 80042d2:	d901      	bls.n	80042d8 <HAL_RCC_OscConfig+0x100>
 80042d4:	2303      	movs	r3, #3
 80042d6:	e28a      	b.n	80047ee <HAL_RCC_OscConfig+0x616>
 80042d8:	4b8a      	ldr	r3, [pc, #552]	; (8004504 <HAL_RCC_OscConfig+0x32c>)
 80042da:	681a      	ldr	r2, [r3, #0]
 80042dc:	2380      	movs	r3, #128	; 0x80
 80042de:	029b      	lsls	r3, r3, #10
 80042e0:	4013      	ands	r3, r2
 80042e2:	d0f0      	beq.n	80042c6 <HAL_RCC_OscConfig+0xee>
 80042e4:	e015      	b.n	8004312 <HAL_RCC_OscConfig+0x13a>
 80042e6:	f7fe ffd7 	bl	8003298 <HAL_GetTick>
 80042ea:	0003      	movs	r3, r0
 80042ec:	61bb      	str	r3, [r7, #24]
 80042ee:	e008      	b.n	8004302 <HAL_RCC_OscConfig+0x12a>
 80042f0:	f7fe ffd2 	bl	8003298 <HAL_GetTick>
 80042f4:	0002      	movs	r2, r0
 80042f6:	69bb      	ldr	r3, [r7, #24]
 80042f8:	1ad3      	subs	r3, r2, r3
 80042fa:	2b64      	cmp	r3, #100	; 0x64
 80042fc:	d901      	bls.n	8004302 <HAL_RCC_OscConfig+0x12a>
 80042fe:	2303      	movs	r3, #3
 8004300:	e275      	b.n	80047ee <HAL_RCC_OscConfig+0x616>
 8004302:	4b80      	ldr	r3, [pc, #512]	; (8004504 <HAL_RCC_OscConfig+0x32c>)
 8004304:	681a      	ldr	r2, [r3, #0]
 8004306:	2380      	movs	r3, #128	; 0x80
 8004308:	029b      	lsls	r3, r3, #10
 800430a:	4013      	ands	r3, r2
 800430c:	d1f0      	bne.n	80042f0 <HAL_RCC_OscConfig+0x118>
 800430e:	e000      	b.n	8004312 <HAL_RCC_OscConfig+0x13a>
 8004310:	46c0      	nop			; (mov r8, r8)
 8004312:	687b      	ldr	r3, [r7, #4]
 8004314:	681b      	ldr	r3, [r3, #0]
 8004316:	2202      	movs	r2, #2
 8004318:	4013      	ands	r3, r2
 800431a:	d100      	bne.n	800431e <HAL_RCC_OscConfig+0x146>
 800431c:	e069      	b.n	80043f2 <HAL_RCC_OscConfig+0x21a>
 800431e:	4b79      	ldr	r3, [pc, #484]	; (8004504 <HAL_RCC_OscConfig+0x32c>)
 8004320:	685b      	ldr	r3, [r3, #4]
 8004322:	220c      	movs	r2, #12
 8004324:	4013      	ands	r3, r2
 8004326:	d00b      	beq.n	8004340 <HAL_RCC_OscConfig+0x168>
 8004328:	4b76      	ldr	r3, [pc, #472]	; (8004504 <HAL_RCC_OscConfig+0x32c>)
 800432a:	685b      	ldr	r3, [r3, #4]
 800432c:	220c      	movs	r2, #12
 800432e:	4013      	ands	r3, r2
 8004330:	2b08      	cmp	r3, #8
 8004332:	d11c      	bne.n	800436e <HAL_RCC_OscConfig+0x196>
 8004334:	4b73      	ldr	r3, [pc, #460]	; (8004504 <HAL_RCC_OscConfig+0x32c>)
 8004336:	685a      	ldr	r2, [r3, #4]
 8004338:	2380      	movs	r3, #128	; 0x80
 800433a:	025b      	lsls	r3, r3, #9
 800433c:	4013      	ands	r3, r2
 800433e:	d116      	bne.n	800436e <HAL_RCC_OscConfig+0x196>
 8004340:	4b70      	ldr	r3, [pc, #448]	; (8004504 <HAL_RCC_OscConfig+0x32c>)
 8004342:	681b      	ldr	r3, [r3, #0]
 8004344:	2202      	movs	r2, #2
 8004346:	4013      	ands	r3, r2
 8004348:	d005      	beq.n	8004356 <HAL_RCC_OscConfig+0x17e>
 800434a:	687b      	ldr	r3, [r7, #4]
 800434c:	68db      	ldr	r3, [r3, #12]
 800434e:	2b01      	cmp	r3, #1
 8004350:	d001      	beq.n	8004356 <HAL_RCC_OscConfig+0x17e>
 8004352:	2301      	movs	r3, #1
 8004354:	e24b      	b.n	80047ee <HAL_RCC_OscConfig+0x616>
 8004356:	4b6b      	ldr	r3, [pc, #428]	; (8004504 <HAL_RCC_OscConfig+0x32c>)
 8004358:	681b      	ldr	r3, [r3, #0]
 800435a:	22f8      	movs	r2, #248	; 0xf8
 800435c:	4393      	bics	r3, r2
 800435e:	0019      	movs	r1, r3
 8004360:	687b      	ldr	r3, [r7, #4]
 8004362:	691b      	ldr	r3, [r3, #16]
 8004364:	00da      	lsls	r2, r3, #3
 8004366:	4b67      	ldr	r3, [pc, #412]	; (8004504 <HAL_RCC_OscConfig+0x32c>)
 8004368:	430a      	orrs	r2, r1
 800436a:	601a      	str	r2, [r3, #0]
 800436c:	e041      	b.n	80043f2 <HAL_RCC_OscConfig+0x21a>
 800436e:	687b      	ldr	r3, [r7, #4]
 8004370:	68db      	ldr	r3, [r3, #12]
 8004372:	2b00      	cmp	r3, #0
 8004374:	d024      	beq.n	80043c0 <HAL_RCC_OscConfig+0x1e8>
 8004376:	4b63      	ldr	r3, [pc, #396]	; (8004504 <HAL_RCC_OscConfig+0x32c>)
 8004378:	681a      	ldr	r2, [r3, #0]
 800437a:	4b62      	ldr	r3, [pc, #392]	; (8004504 <HAL_RCC_OscConfig+0x32c>)
 800437c:	2101      	movs	r1, #1
 800437e:	430a      	orrs	r2, r1
 8004380:	601a      	str	r2, [r3, #0]
 8004382:	f7fe ff89 	bl	8003298 <HAL_GetTick>
 8004386:	0003      	movs	r3, r0
 8004388:	61bb      	str	r3, [r7, #24]
 800438a:	e008      	b.n	800439e <HAL_RCC_OscConfig+0x1c6>
 800438c:	f7fe ff84 	bl	8003298 <HAL_GetTick>
 8004390:	0002      	movs	r2, r0
 8004392:	69bb      	ldr	r3, [r7, #24]
 8004394:	1ad3      	subs	r3, r2, r3
 8004396:	2b02      	cmp	r3, #2
 8004398:	d901      	bls.n	800439e <HAL_RCC_OscConfig+0x1c6>
 800439a:	2303      	movs	r3, #3
 800439c:	e227      	b.n	80047ee <HAL_RCC_OscConfig+0x616>
 800439e:	4b59      	ldr	r3, [pc, #356]	; (8004504 <HAL_RCC_OscConfig+0x32c>)
 80043a0:	681b      	ldr	r3, [r3, #0]
 80043a2:	2202      	movs	r2, #2
 80043a4:	4013      	ands	r3, r2
 80043a6:	d0f1      	beq.n	800438c <HAL_RCC_OscConfig+0x1b4>
 80043a8:	4b56      	ldr	r3, [pc, #344]	; (8004504 <HAL_RCC_OscConfig+0x32c>)
 80043aa:	681b      	ldr	r3, [r3, #0]
 80043ac:	22f8      	movs	r2, #248	; 0xf8
 80043ae:	4393      	bics	r3, r2
 80043b0:	0019      	movs	r1, r3
 80043b2:	687b      	ldr	r3, [r7, #4]
 80043b4:	691b      	ldr	r3, [r3, #16]
 80043b6:	00da      	lsls	r2, r3, #3
 80043b8:	4b52      	ldr	r3, [pc, #328]	; (8004504 <HAL_RCC_OscConfig+0x32c>)
 80043ba:	430a      	orrs	r2, r1
 80043bc:	601a      	str	r2, [r3, #0]
 80043be:	e018      	b.n	80043f2 <HAL_RCC_OscConfig+0x21a>
 80043c0:	4b50      	ldr	r3, [pc, #320]	; (8004504 <HAL_RCC_OscConfig+0x32c>)
 80043c2:	681a      	ldr	r2, [r3, #0]
 80043c4:	4b4f      	ldr	r3, [pc, #316]	; (8004504 <HAL_RCC_OscConfig+0x32c>)
 80043c6:	2101      	movs	r1, #1
 80043c8:	438a      	bics	r2, r1
 80043ca:	601a      	str	r2, [r3, #0]
 80043cc:	f7fe ff64 	bl	8003298 <HAL_GetTick>
 80043d0:	0003      	movs	r3, r0
 80043d2:	61bb      	str	r3, [r7, #24]
 80043d4:	e008      	b.n	80043e8 <HAL_RCC_OscConfig+0x210>
 80043d6:	f7fe ff5f 	bl	8003298 <HAL_GetTick>
 80043da:	0002      	movs	r2, r0
 80043dc:	69bb      	ldr	r3, [r7, #24]
 80043de:	1ad3      	subs	r3, r2, r3
 80043e0:	2b02      	cmp	r3, #2
 80043e2:	d901      	bls.n	80043e8 <HAL_RCC_OscConfig+0x210>
 80043e4:	2303      	movs	r3, #3
 80043e6:	e202      	b.n	80047ee <HAL_RCC_OscConfig+0x616>
 80043e8:	4b46      	ldr	r3, [pc, #280]	; (8004504 <HAL_RCC_OscConfig+0x32c>)
 80043ea:	681b      	ldr	r3, [r3, #0]
 80043ec:	2202      	movs	r2, #2
 80043ee:	4013      	ands	r3, r2
 80043f0:	d1f1      	bne.n	80043d6 <HAL_RCC_OscConfig+0x1fe>
 80043f2:	687b      	ldr	r3, [r7, #4]
 80043f4:	681b      	ldr	r3, [r3, #0]
 80043f6:	2208      	movs	r2, #8
 80043f8:	4013      	ands	r3, r2
 80043fa:	d036      	beq.n	800446a <HAL_RCC_OscConfig+0x292>
 80043fc:	687b      	ldr	r3, [r7, #4]
 80043fe:	69db      	ldr	r3, [r3, #28]
 8004400:	2b00      	cmp	r3, #0
 8004402:	d019      	beq.n	8004438 <HAL_RCC_OscConfig+0x260>
 8004404:	4b3f      	ldr	r3, [pc, #252]	; (8004504 <HAL_RCC_OscConfig+0x32c>)
 8004406:	6a5a      	ldr	r2, [r3, #36]	; 0x24
 8004408:	4b3e      	ldr	r3, [pc, #248]	; (8004504 <HAL_RCC_OscConfig+0x32c>)
 800440a:	2101      	movs	r1, #1
 800440c:	430a      	orrs	r2, r1
 800440e:	625a      	str	r2, [r3, #36]	; 0x24
 8004410:	f7fe ff42 	bl	8003298 <HAL_GetTick>
 8004414:	0003      	movs	r3, r0
 8004416:	61bb      	str	r3, [r7, #24]
 8004418:	e008      	b.n	800442c <HAL_RCC_OscConfig+0x254>
 800441a:	f7fe ff3d 	bl	8003298 <HAL_GetTick>
 800441e:	0002      	movs	r2, r0
 8004420:	69bb      	ldr	r3, [r7, #24]
 8004422:	1ad3      	subs	r3, r2, r3
 8004424:	2b02      	cmp	r3, #2
 8004426:	d901      	bls.n	800442c <HAL_RCC_OscConfig+0x254>
 8004428:	2303      	movs	r3, #3
 800442a:	e1e0      	b.n	80047ee <HAL_RCC_OscConfig+0x616>
 800442c:	4b35      	ldr	r3, [pc, #212]	; (8004504 <HAL_RCC_OscConfig+0x32c>)
 800442e:	6a5b      	ldr	r3, [r3, #36]	; 0x24
 8004430:	2202      	movs	r2, #2
 8004432:	4013      	ands	r3, r2
 8004434:	d0f1      	beq.n	800441a <HAL_RCC_OscConfig+0x242>
 8004436:	e018      	b.n	800446a <HAL_RCC_OscConfig+0x292>
 8004438:	4b32      	ldr	r3, [pc, #200]	; (8004504 <HAL_RCC_OscConfig+0x32c>)
 800443a:	6a5a      	ldr	r2, [r3, #36]	; 0x24
 800443c:	4b31      	ldr	r3, [pc, #196]	; (8004504 <HAL_RCC_OscConfig+0x32c>)
 800443e:	2101      	movs	r1, #1
 8004440:	438a      	bics	r2, r1
 8004442:	625a      	str	r2, [r3, #36]	; 0x24
 8004444:	f7fe ff28 	bl	8003298 <HAL_GetTick>
 8004448:	0003      	movs	r3, r0
 800444a:	61bb      	str	r3, [r7, #24]
 800444c:	e008      	b.n	8004460 <HAL_RCC_OscConfig+0x288>
 800444e:	f7fe ff23 	bl	8003298 <HAL_GetTick>
 8004452:	0002      	movs	r2, r0
 8004454:	69bb      	ldr	r3, [r7, #24]
 8004456:	1ad3      	subs	r3, r2, r3
 8004458:	2b02      	cmp	r3, #2
 800445a:	d901      	bls.n	8004460 <HAL_RCC_OscConfig+0x288>
 800445c:	2303      	movs	r3, #3
 800445e:	e1c6      	b.n	80047ee <HAL_RCC_OscConfig+0x616>
 8004460:	4b28      	ldr	r3, [pc, #160]	; (8004504 <HAL_RCC_OscConfig+0x32c>)
 8004462:	6a5b      	ldr	r3, [r3, #36]	; 0x24
 8004464:	2202      	movs	r2, #2
 8004466:	4013      	ands	r3, r2
 8004468:	d1f1      	bne.n	800444e <HAL_RCC_OscConfig+0x276>
 800446a:	687b      	ldr	r3, [r7, #4]
 800446c:	681b      	ldr	r3, [r3, #0]
 800446e:	2204      	movs	r2, #4
 8004470:	4013      	ands	r3, r2
 8004472:	d100      	bne.n	8004476 <HAL_RCC_OscConfig+0x29e>
 8004474:	e0b4      	b.n	80045e0 <HAL_RCC_OscConfig+0x408>
 8004476:	201f      	movs	r0, #31
 8004478:	183b      	adds	r3, r7, r0
 800447a:	2200      	movs	r2, #0
 800447c:	701a      	strb	r2, [r3, #0]
 800447e:	4b21      	ldr	r3, [pc, #132]	; (8004504 <HAL_RCC_OscConfig+0x32c>)
 8004480:	69da      	ldr	r2, [r3, #28]
 8004482:	2380      	movs	r3, #128	; 0x80
 8004484:	055b      	lsls	r3, r3, #21
 8004486:	4013      	ands	r3, r2
 8004488:	d110      	bne.n	80044ac <HAL_RCC_OscConfig+0x2d4>
 800448a:	4b1e      	ldr	r3, [pc, #120]	; (8004504 <HAL_RCC_OscConfig+0x32c>)
 800448c:	69da      	ldr	r2, [r3, #28]
 800448e:	4b1d      	ldr	r3, [pc, #116]	; (8004504 <HAL_RCC_OscConfig+0x32c>)
 8004490:	2180      	movs	r1, #128	; 0x80
 8004492:	0549      	lsls	r1, r1, #21
 8004494:	430a      	orrs	r2, r1
 8004496:	61da      	str	r2, [r3, #28]
 8004498:	4b1a      	ldr	r3, [pc, #104]	; (8004504 <HAL_RCC_OscConfig+0x32c>)
 800449a:	69da      	ldr	r2, [r3, #28]
 800449c:	2380      	movs	r3, #128	; 0x80
 800449e:	055b      	lsls	r3, r3, #21
 80044a0:	4013      	ands	r3, r2
 80044a2:	60fb      	str	r3, [r7, #12]
 80044a4:	68fb      	ldr	r3, [r7, #12]
 80044a6:	183b      	adds	r3, r7, r0
 80044a8:	2201      	movs	r2, #1
 80044aa:	701a      	strb	r2, [r3, #0]
 80044ac:	4b18      	ldr	r3, [pc, #96]	; (8004510 <HAL_RCC_OscConfig+0x338>)
 80044ae:	681a      	ldr	r2, [r3, #0]
 80044b0:	2380      	movs	r3, #128	; 0x80
 80044b2:	005b      	lsls	r3, r3, #1
 80044b4:	4013      	ands	r3, r2
 80044b6:	d11a      	bne.n	80044ee <HAL_RCC_OscConfig+0x316>
 80044b8:	4b15      	ldr	r3, [pc, #84]	; (8004510 <HAL_RCC_OscConfig+0x338>)
 80044ba:	681a      	ldr	r2, [r3, #0]
 80044bc:	4b14      	ldr	r3, [pc, #80]	; (8004510 <HAL_RCC_OscConfig+0x338>)
 80044be:	2180      	movs	r1, #128	; 0x80
 80044c0:	0049      	lsls	r1, r1, #1
 80044c2:	430a      	orrs	r2, r1
 80044c4:	601a      	str	r2, [r3, #0]
 80044c6:	f7fe fee7 	bl	8003298 <HAL_GetTick>
 80044ca:	0003      	movs	r3, r0
 80044cc:	61bb      	str	r3, [r7, #24]
 80044ce:	e008      	b.n	80044e2 <HAL_RCC_OscConfig+0x30a>
 80044d0:	f7fe fee2 	bl	8003298 <HAL_GetTick>
 80044d4:	0002      	movs	r2, r0
 80044d6:	69bb      	ldr	r3, [r7, #24]
 80044d8:	1ad3      	subs	r3, r2, r3
 80044da:	2b64      	cmp	r3, #100	; 0x64
 80044dc:	d901      	bls.n	80044e2 <HAL_RCC_OscConfig+0x30a>
 80044de:	2303      	movs	r3, #3
 80044e0:	e185      	b.n	80047ee <HAL_RCC_OscConfig+0x616>
 80044e2:	4b0b      	ldr	r3, [pc, #44]	; (8004510 <HAL_RCC_OscConfig+0x338>)
 80044e4:	681a      	ldr	r2, [r3, #0]
 80044e6:	2380      	movs	r3, #128	; 0x80
 80044e8:	005b      	lsls	r3, r3, #1
 80044ea:	4013      	ands	r3, r2
 80044ec:	d0f0      	beq.n	80044d0 <HAL_RCC_OscConfig+0x2f8>
 80044ee:	687b      	ldr	r3, [r7, #4]
 80044f0:	689b      	ldr	r3, [r3, #8]
 80044f2:	2b01      	cmp	r3, #1
 80044f4:	d10e      	bne.n	8004514 <HAL_RCC_OscConfig+0x33c>
 80044f6:	4b03      	ldr	r3, [pc, #12]	; (8004504 <HAL_RCC_OscConfig+0x32c>)
 80044f8:	6a1a      	ldr	r2, [r3, #32]
 80044fa:	4b02      	ldr	r3, [pc, #8]	; (8004504 <HAL_RCC_OscConfig+0x32c>)
 80044fc:	2101      	movs	r1, #1
 80044fe:	430a      	orrs	r2, r1
 8004500:	621a      	str	r2, [r3, #32]
 8004502:	e035      	b.n	8004570 <HAL_RCC_OscConfig+0x398>
 8004504:	40021000 	.word	0x40021000
 8004508:	fffeffff 	.word	0xfffeffff
 800450c:	fffbffff 	.word	0xfffbffff
 8004510:	40007000 	.word	0x40007000
 8004514:	687b      	ldr	r3, [r7, #4]
 8004516:	689b      	ldr	r3, [r3, #8]
 8004518:	2b00      	cmp	r3, #0
 800451a:	d10c      	bne.n	8004536 <HAL_RCC_OscConfig+0x35e>
 800451c:	4bb6      	ldr	r3, [pc, #728]	; (80047f8 <HAL_RCC_OscConfig+0x620>)
 800451e:	6a1a      	ldr	r2, [r3, #32]
 8004520:	4bb5      	ldr	r3, [pc, #724]	; (80047f8 <HAL_RCC_OscConfig+0x620>)
 8004522:	2101      	movs	r1, #1
 8004524:	438a      	bics	r2, r1
 8004526:	621a      	str	r2, [r3, #32]
 8004528:	4bb3      	ldr	r3, [pc, #716]	; (80047f8 <HAL_RCC_OscConfig+0x620>)
 800452a:	6a1a      	ldr	r2, [r3, #32]
 800452c:	4bb2      	ldr	r3, [pc, #712]	; (80047f8 <HAL_RCC_OscConfig+0x620>)
 800452e:	2104      	movs	r1, #4
 8004530:	438a      	bics	r2, r1
 8004532:	621a      	str	r2, [r3, #32]
 8004534:	e01c      	b.n	8004570 <HAL_RCC_OscConfig+0x398>
 8004536:	687b      	ldr	r3, [r7, #4]
 8004538:	689b      	ldr	r3, [r3, #8]
 800453a:	2b05      	cmp	r3, #5
 800453c:	d10c      	bne.n	8004558 <HAL_RCC_OscConfig+0x380>
 800453e:	4bae      	ldr	r3, [pc, #696]	; (80047f8 <HAL_RCC_OscConfig+0x620>)
 8004540:	6a1a      	ldr	r2, [r3, #32]
 8004542:	4bad      	ldr	r3, [pc, #692]	; (80047f8 <HAL_RCC_OscConfig+0x620>)
 8004544:	2104      	movs	r1, #4
 8004546:	430a      	orrs	r2, r1
 8004548:	621a      	str	r2, [r3, #32]
 800454a:	4bab      	ldr	r3, [pc, #684]	; (80047f8 <HAL_RCC_OscConfig+0x620>)
 800454c:	6a1a      	ldr	r2, [r3, #32]
 800454e:	4baa      	ldr	r3, [pc, #680]	; (80047f8 <HAL_RCC_OscConfig+0x620>)
 8004550:	2101      	movs	r1, #1
 8004552:	430a      	orrs	r2, r1
 8004554:	621a      	str	r2, [r3, #32]
 8004556:	e00b      	b.n	8004570 <HAL_RCC_OscConfig+0x398>
 8004558:	4ba7      	ldr	r3, [pc, #668]	; (80047f8 <HAL_RCC_OscConfig+0x620>)
 800455a:	6a1a      	ldr	r2, [r3, #32]
 800455c:	4ba6      	ldr	r3, [pc, #664]	; (80047f8 <HAL_RCC_OscConfig+0x620>)
 800455e:	2101      	movs	r1, #1
 8004560:	438a      	bics	r2, r1
 8004562:	621a      	str	r2, [r3, #32]
 8004564:	4ba4      	ldr	r3, [pc, #656]	; (80047f8 <HAL_RCC_OscConfig+0x620>)
 8004566:	6a1a      	ldr	r2, [r3, #32]
 8004568:	4ba3      	ldr	r3, [pc, #652]	; (80047f8 <HAL_RCC_OscConfig+0x620>)
 800456a:	2104      	movs	r1, #4
 800456c:	438a      	bics	r2, r1
 800456e:	621a      	str	r2, [r3, #32]
 8004570:	687b      	ldr	r3, [r7, #4]
 8004572:	689b      	ldr	r3, [r3, #8]
 8004574:	2b00      	cmp	r3, #0
 8004576:	d014      	beq.n	80045a2 <HAL_RCC_OscConfig+0x3ca>
 8004578:	f7fe fe8e 	bl	8003298 <HAL_GetTick>
 800457c:	0003      	movs	r3, r0
 800457e:	61bb      	str	r3, [r7, #24]
 8004580:	e009      	b.n	8004596 <HAL_RCC_OscConfig+0x3be>
 8004582:	f7fe fe89 	bl	8003298 <HAL_GetTick>
 8004586:	0002      	movs	r2, r0
 8004588:	69bb      	ldr	r3, [r7, #24]
 800458a:	1ad3      	subs	r3, r2, r3
 800458c:	4a9b      	ldr	r2, [pc, #620]	; (80047fc <HAL_RCC_OscConfig+0x624>)
 800458e:	4293      	cmp	r3, r2
 8004590:	d901      	bls.n	8004596 <HAL_RCC_OscConfig+0x3be>
 8004592:	2303      	movs	r3, #3
 8004594:	e12b      	b.n	80047ee <HAL_RCC_OscConfig+0x616>
 8004596:	4b98      	ldr	r3, [pc, #608]	; (80047f8 <HAL_RCC_OscConfig+0x620>)
 8004598:	6a1b      	ldr	r3, [r3, #32]
 800459a:	2202      	movs	r2, #2
 800459c:	4013      	ands	r3, r2
 800459e:	d0f0      	beq.n	8004582 <HAL_RCC_OscConfig+0x3aa>
 80045a0:	e013      	b.n	80045ca <HAL_RCC_OscConfig+0x3f2>
 80045a2:	f7fe fe79 	bl	8003298 <HAL_GetTick>
 80045a6:	0003      	movs	r3, r0
 80045a8:	61bb      	str	r3, [r7, #24]
 80045aa:	e009      	b.n	80045c0 <HAL_RCC_OscConfig+0x3e8>
 80045ac:	f7fe fe74 	bl	8003298 <HAL_GetTick>
 80045b0:	0002      	movs	r2, r0
 80045b2:	69bb      	ldr	r3, [r7, #24]
 80045b4:	1ad3      	subs	r3, r2, r3
 80045b6:	4a91      	ldr	r2, [pc, #580]	; (80047fc <HAL_RCC_OscConfig+0x624>)
 80045b8:	4293      	cmp	r3, r2
 80045ba:	d901      	bls.n	80045c0 <HAL_RCC_OscConfig+0x3e8>
 80045bc:	2303      	movs	r3, #3
 80045be:	e116      	b.n	80047ee <HAL_RCC_OscConfig+0x616>
 80045c0:	4b8d      	ldr	r3, [pc, #564]	; (80047f8 <HAL_RCC_OscConfig+0x620>)
 80045c2:	6a1b      	ldr	r3, [r3, #32]
 80045c4:	2202      	movs	r2, #2
 80045c6:	4013      	ands	r3, r2
 80045c8:	d1f0      	bne.n	80045ac <HAL_RCC_OscConfig+0x3d4>
 80045ca:	231f      	movs	r3, #31
 80045cc:	18fb      	adds	r3, r7, r3
 80045ce:	781b      	ldrb	r3, [r3, #0]
 80045d0:	2b01      	cmp	r3, #1
 80045d2:	d105      	bne.n	80045e0 <HAL_RCC_OscConfig+0x408>
 80045d4:	4b88      	ldr	r3, [pc, #544]	; (80047f8 <HAL_RCC_OscConfig+0x620>)
 80045d6:	69da      	ldr	r2, [r3, #28]
 80045d8:	4b87      	ldr	r3, [pc, #540]	; (80047f8 <HAL_RCC_OscConfig+0x620>)
 80045da:	4989      	ldr	r1, [pc, #548]	; (8004800 <HAL_RCC_OscConfig+0x628>)
 80045dc:	400a      	ands	r2, r1
 80045de:	61da      	str	r2, [r3, #28]
 80045e0:	687b      	ldr	r3, [r7, #4]
 80045e2:	681b      	ldr	r3, [r3, #0]
 80045e4:	2210      	movs	r2, #16
 80045e6:	4013      	ands	r3, r2
 80045e8:	d063      	beq.n	80046b2 <HAL_RCC_OscConfig+0x4da>
 80045ea:	687b      	ldr	r3, [r7, #4]
 80045ec:	695b      	ldr	r3, [r3, #20]
 80045ee:	2b01      	cmp	r3, #1
 80045f0:	d12a      	bne.n	8004648 <HAL_RCC_OscConfig+0x470>
 80045f2:	4b81      	ldr	r3, [pc, #516]	; (80047f8 <HAL_RCC_OscConfig+0x620>)
 80045f4:	6b5a      	ldr	r2, [r3, #52]	; 0x34
 80045f6:	4b80      	ldr	r3, [pc, #512]	; (80047f8 <HAL_RCC_OscConfig+0x620>)
 80045f8:	2104      	movs	r1, #4
 80045fa:	430a      	orrs	r2, r1
 80045fc:	635a      	str	r2, [r3, #52]	; 0x34
 80045fe:	4b7e      	ldr	r3, [pc, #504]	; (80047f8 <HAL_RCC_OscConfig+0x620>)
 8004600:	6b5a      	ldr	r2, [r3, #52]	; 0x34
 8004602:	4b7d      	ldr	r3, [pc, #500]	; (80047f8 <HAL_RCC_OscConfig+0x620>)
 8004604:	2101      	movs	r1, #1
 8004606:	430a      	orrs	r2, r1
 8004608:	635a      	str	r2, [r3, #52]	; 0x34
 800460a:	f7fe fe45 	bl	8003298 <HAL_GetTick>
 800460e:	0003      	movs	r3, r0
 8004610:	61bb      	str	r3, [r7, #24]
 8004612:	e008      	b.n	8004626 <HAL_RCC_OscConfig+0x44e>
 8004614:	f7fe fe40 	bl	8003298 <HAL_GetTick>
 8004618:	0002      	movs	r2, r0
 800461a:	69bb      	ldr	r3, [r7, #24]
 800461c:	1ad3      	subs	r3, r2, r3
 800461e:	2b02      	cmp	r3, #2
 8004620:	d901      	bls.n	8004626 <HAL_RCC_OscConfig+0x44e>
 8004622:	2303      	movs	r3, #3
 8004624:	e0e3      	b.n	80047ee <HAL_RCC_OscConfig+0x616>
 8004626:	4b74      	ldr	r3, [pc, #464]	; (80047f8 <HAL_RCC_OscConfig+0x620>)
 8004628:	6b5b      	ldr	r3, [r3, #52]	; 0x34
 800462a:	2202      	movs	r2, #2
 800462c:	4013      	ands	r3, r2
 800462e:	d0f1      	beq.n	8004614 <HAL_RCC_OscConfig+0x43c>
 8004630:	4b71      	ldr	r3, [pc, #452]	; (80047f8 <HAL_RCC_OscConfig+0x620>)
 8004632:	6b5b      	ldr	r3, [r3, #52]	; 0x34
 8004634:	22f8      	movs	r2, #248	; 0xf8
 8004636:	4393      	bics	r3, r2
 8004638:	0019      	movs	r1, r3
 800463a:	687b      	ldr	r3, [r7, #4]
 800463c:	699b      	ldr	r3, [r3, #24]
 800463e:	00da      	lsls	r2, r3, #3
 8004640:	4b6d      	ldr	r3, [pc, #436]	; (80047f8 <HAL_RCC_OscConfig+0x620>)
 8004642:	430a      	orrs	r2, r1
 8004644:	635a      	str	r2, [r3, #52]	; 0x34
 8004646:	e034      	b.n	80046b2 <HAL_RCC_OscConfig+0x4da>
 8004648:	687b      	ldr	r3, [r7, #4]
 800464a:	695b      	ldr	r3, [r3, #20]
 800464c:	3305      	adds	r3, #5
 800464e:	d111      	bne.n	8004674 <HAL_RCC_OscConfig+0x49c>
 8004650:	4b69      	ldr	r3, [pc, #420]	; (80047f8 <HAL_RCC_OscConfig+0x620>)
 8004652:	6b5a      	ldr	r2, [r3, #52]	; 0x34
 8004654:	4b68      	ldr	r3, [pc, #416]	; (80047f8 <HAL_RCC_OscConfig+0x620>)
 8004656:	2104      	movs	r1, #4
 8004658:	438a      	bics	r2, r1
 800465a:	635a      	str	r2, [r3, #52]	; 0x34
 800465c:	4b66      	ldr	r3, [pc, #408]	; (80047f8 <HAL_RCC_OscConfig+0x620>)
 800465e:	6b5b      	ldr	r3, [r3, #52]	; 0x34
 8004660:	22f8      	movs	r2, #248	; 0xf8
 8004662:	4393      	bics	r3, r2
 8004664:	0019      	movs	r1, r3
 8004666:	687b      	ldr	r3, [r7, #4]
 8004668:	699b      	ldr	r3, [r3, #24]
 800466a:	00da      	lsls	r2, r3, #3
 800466c:	4b62      	ldr	r3, [pc, #392]	; (80047f8 <HAL_RCC_OscConfig+0x620>)
 800466e:	430a      	orrs	r2, r1
 8004670:	635a      	str	r2, [r3, #52]	; 0x34
 8004672:	e01e      	b.n	80046b2 <HAL_RCC_OscConfig+0x4da>
 8004674:	4b60      	ldr	r3, [pc, #384]	; (80047f8 <HAL_RCC_OscConfig+0x620>)
 8004676:	6b5a      	ldr	r2, [r3, #52]	; 0x34
 8004678:	4b5f      	ldr	r3, [pc, #380]	; (80047f8 <HAL_RCC_OscConfig+0x620>)
 800467a:	2104      	movs	r1, #4
 800467c:	430a      	orrs	r2, r1
 800467e:	635a      	str	r2, [r3, #52]	; 0x34
 8004680:	4b5d      	ldr	r3, [pc, #372]	; (80047f8 <HAL_RCC_OscConfig+0x620>)
 8004682:	6b5a      	ldr	r2, [r3, #52]	; 0x34
 8004684:	4b5c      	ldr	r3, [pc, #368]	; (80047f8 <HAL_RCC_OscConfig+0x620>)
 8004686:	2101      	movs	r1, #1
 8004688:	438a      	bics	r2, r1
 800468a:	635a      	str	r2, [r3, #52]	; 0x34
 800468c:	f7fe fe04 	bl	8003298 <HAL_GetTick>
 8004690:	0003      	movs	r3, r0
 8004692:	61bb      	str	r3, [r7, #24]
 8004694:	e008      	b.n	80046a8 <HAL_RCC_OscConfig+0x4d0>
 8004696:	f7fe fdff 	bl	8003298 <HAL_GetTick>
 800469a:	0002      	movs	r2, r0
 800469c:	69bb      	ldr	r3, [r7, #24]
 800469e:	1ad3      	subs	r3, r2, r3
 80046a0:	2b02      	cmp	r3, #2
 80046a2:	d901      	bls.n	80046a8 <HAL_RCC_OscConfig+0x4d0>
 80046a4:	2303      	movs	r3, #3
 80046a6:	e0a2      	b.n	80047ee <HAL_RCC_OscConfig+0x616>
 80046a8:	4b53      	ldr	r3, [pc, #332]	; (80047f8 <HAL_RCC_OscConfig+0x620>)
 80046aa:	6b5b      	ldr	r3, [r3, #52]	; 0x34
 80046ac:	2202      	movs	r2, #2
 80046ae:	4013      	ands	r3, r2
 80046b0:	d1f1      	bne.n	8004696 <HAL_RCC_OscConfig+0x4be>
 80046b2:	687b      	ldr	r3, [r7, #4]
 80046b4:	6a1b      	ldr	r3, [r3, #32]
 80046b6:	2b00      	cmp	r3, #0
 80046b8:	d100      	bne.n	80046bc <HAL_RCC_OscConfig+0x4e4>
 80046ba:	e097      	b.n	80047ec <HAL_RCC_OscConfig+0x614>
 80046bc:	4b4e      	ldr	r3, [pc, #312]	; (80047f8 <HAL_RCC_OscConfig+0x620>)
 80046be:	685b      	ldr	r3, [r3, #4]
 80046c0:	220c      	movs	r2, #12
 80046c2:	4013      	ands	r3, r2
 80046c4:	2b08      	cmp	r3, #8
 80046c6:	d100      	bne.n	80046ca <HAL_RCC_OscConfig+0x4f2>
 80046c8:	e06b      	b.n	80047a2 <HAL_RCC_OscConfig+0x5ca>
 80046ca:	687b      	ldr	r3, [r7, #4]
 80046cc:	6a1b      	ldr	r3, [r3, #32]
 80046ce:	2b02      	cmp	r3, #2
 80046d0:	d14c      	bne.n	800476c <HAL_RCC_OscConfig+0x594>
 80046d2:	4b49      	ldr	r3, [pc, #292]	; (80047f8 <HAL_RCC_OscConfig+0x620>)
 80046d4:	681a      	ldr	r2, [r3, #0]
 80046d6:	4b48      	ldr	r3, [pc, #288]	; (80047f8 <HAL_RCC_OscConfig+0x620>)
 80046d8:	494a      	ldr	r1, [pc, #296]	; (8004804 <HAL_RCC_OscConfig+0x62c>)
 80046da:	400a      	ands	r2, r1
 80046dc:	601a      	str	r2, [r3, #0]
 80046de:	f7fe fddb 	bl	8003298 <HAL_GetTick>
 80046e2:	0003      	movs	r3, r0
 80046e4:	61bb      	str	r3, [r7, #24]
 80046e6:	e008      	b.n	80046fa <HAL_RCC_OscConfig+0x522>
 80046e8:	f7fe fdd6 	bl	8003298 <HAL_GetTick>
 80046ec:	0002      	movs	r2, r0
 80046ee:	69bb      	ldr	r3, [r7, #24]
 80046f0:	1ad3      	subs	r3, r2, r3
 80046f2:	2b02      	cmp	r3, #2
 80046f4:	d901      	bls.n	80046fa <HAL_RCC_OscConfig+0x522>
 80046f6:	2303      	movs	r3, #3
 80046f8:	e079      	b.n	80047ee <HAL_RCC_OscConfig+0x616>
 80046fa:	4b3f      	ldr	r3, [pc, #252]	; (80047f8 <HAL_RCC_OscConfig+0x620>)
 80046fc:	681a      	ldr	r2, [r3, #0]
 80046fe:	2380      	movs	r3, #128	; 0x80
 8004700:	049b      	lsls	r3, r3, #18
 8004702:	4013      	ands	r3, r2
 8004704:	d1f0      	bne.n	80046e8 <HAL_RCC_OscConfig+0x510>
 8004706:	4b3c      	ldr	r3, [pc, #240]	; (80047f8 <HAL_RCC_OscConfig+0x620>)
 8004708:	6adb      	ldr	r3, [r3, #44]	; 0x2c
 800470a:	220f      	movs	r2, #15
 800470c:	4393      	bics	r3, r2
 800470e:	0019      	movs	r1, r3
 8004710:	687b      	ldr	r3, [r7, #4]
 8004712:	6ada      	ldr	r2, [r3, #44]	; 0x2c
 8004714:	4b38      	ldr	r3, [pc, #224]	; (80047f8 <HAL_RCC_OscConfig+0x620>)
 8004716:	430a      	orrs	r2, r1
 8004718:	62da      	str	r2, [r3, #44]	; 0x2c
 800471a:	4b37      	ldr	r3, [pc, #220]	; (80047f8 <HAL_RCC_OscConfig+0x620>)
 800471c:	685b      	ldr	r3, [r3, #4]
 800471e:	4a3a      	ldr	r2, [pc, #232]	; (8004808 <HAL_RCC_OscConfig+0x630>)
 8004720:	4013      	ands	r3, r2
 8004722:	0019      	movs	r1, r3
 8004724:	687b      	ldr	r3, [r7, #4]
 8004726:	6a9a      	ldr	r2, [r3, #40]	; 0x28
 8004728:	687b      	ldr	r3, [r7, #4]
 800472a:	6a5b      	ldr	r3, [r3, #36]	; 0x24
 800472c:	431a      	orrs	r2, r3
 800472e:	4b32      	ldr	r3, [pc, #200]	; (80047f8 <HAL_RCC_OscConfig+0x620>)
 8004730:	430a      	orrs	r2, r1
 8004732:	605a      	str	r2, [r3, #4]
 8004734:	4b30      	ldr	r3, [pc, #192]	; (80047f8 <HAL_RCC_OscConfig+0x620>)
 8004736:	681a      	ldr	r2, [r3, #0]
 8004738:	4b2f      	ldr	r3, [pc, #188]	; (80047f8 <HAL_RCC_OscConfig+0x620>)
 800473a:	2180      	movs	r1, #128	; 0x80
 800473c:	0449      	lsls	r1, r1, #17
 800473e:	430a      	orrs	r2, r1
 8004740:	601a      	str	r2, [r3, #0]
 8004742:	f7fe fda9 	bl	8003298 <HAL_GetTick>
 8004746:	0003      	movs	r3, r0
 8004748:	61bb      	str	r3, [r7, #24]
 800474a:	e008      	b.n	800475e <HAL_RCC_OscConfig+0x586>
 800474c:	f7fe fda4 	bl	8003298 <HAL_GetTick>
 8004750:	0002      	movs	r2, r0
 8004752:	69bb      	ldr	r3, [r7, #24]
 8004754:	1ad3      	subs	r3, r2, r3
 8004756:	2b02      	cmp	r3, #2
 8004758:	d901      	bls.n	800475e <HAL_RCC_OscConfig+0x586>
 800475a:	2303      	movs	r3, #3
 800475c:	e047      	b.n	80047ee <HAL_RCC_OscConfig+0x616>
 800475e:	4b26      	ldr	r3, [pc, #152]	; (80047f8 <HAL_RCC_OscConfig+0x620>)
 8004760:	681a      	ldr	r2, [r3, #0]
 8004762:	2380      	movs	r3, #128	; 0x80
 8004764:	049b      	lsls	r3, r3, #18
 8004766:	4013      	ands	r3, r2
 8004768:	d0f0      	beq.n	800474c <HAL_RCC_OscConfig+0x574>
 800476a:	e03f      	b.n	80047ec <HAL_RCC_OscConfig+0x614>
 800476c:	4b22      	ldr	r3, [pc, #136]	; (80047f8 <HAL_RCC_OscConfig+0x620>)
 800476e:	681a      	ldr	r2, [r3, #0]
 8004770:	4b21      	ldr	r3, [pc, #132]	; (80047f8 <HAL_RCC_OscConfig+0x620>)
 8004772:	4924      	ldr	r1, [pc, #144]	; (8004804 <HAL_RCC_OscConfig+0x62c>)
 8004774:	400a      	ands	r2, r1
 8004776:	601a      	str	r2, [r3, #0]
 8004778:	f7fe fd8e 	bl	8003298 <HAL_GetTick>
 800477c:	0003      	movs	r3, r0
 800477e:	61bb      	str	r3, [r7, #24]
 8004780:	e008      	b.n	8004794 <HAL_RCC_OscConfig+0x5bc>
 8004782:	f7fe fd89 	bl	8003298 <HAL_GetTick>
 8004786:	0002      	movs	r2, r0
 8004788:	69bb      	ldr	r3, [r7, #24]
 800478a:	1ad3      	subs	r3, r2, r3
 800478c:	2b02      	cmp	r3, #2
 800478e:	d901      	bls.n	8004794 <HAL_RCC_OscConfig+0x5bc>
 8004790:	2303      	movs	r3, #3
 8004792:	e02c      	b.n	80047ee <HAL_RCC_OscConfig+0x616>
 8004794:	4b18      	ldr	r3, [pc, #96]	; (80047f8 <HAL_RCC_OscConfig+0x620>)
 8004796:	681a      	ldr	r2, [r3, #0]
 8004798:	2380      	movs	r3, #128	; 0x80
 800479a:	049b      	lsls	r3, r3, #18
 800479c:	4013      	ands	r3, r2
 800479e:	d1f0      	bne.n	8004782 <HAL_RCC_OscConfig+0x5aa>
 80047a0:	e024      	b.n	80047ec <HAL_RCC_OscConfig+0x614>
 80047a2:	687b      	ldr	r3, [r7, #4]
 80047a4:	6a1b      	ldr	r3, [r3, #32]
 80047a6:	2b01      	cmp	r3, #1
 80047a8:	d101      	bne.n	80047ae <HAL_RCC_OscConfig+0x5d6>
 80047aa:	2301      	movs	r3, #1
 80047ac:	e01f      	b.n	80047ee <HAL_RCC_OscConfig+0x616>
 80047ae:	4b12      	ldr	r3, [pc, #72]	; (80047f8 <HAL_RCC_OscConfig+0x620>)
 80047b0:	685b      	ldr	r3, [r3, #4]
 80047b2:	617b      	str	r3, [r7, #20]
 80047b4:	4b10      	ldr	r3, [pc, #64]	; (80047f8 <HAL_RCC_OscConfig+0x620>)
 80047b6:	6adb      	ldr	r3, [r3, #44]	; 0x2c
 80047b8:	613b      	str	r3, [r7, #16]
 80047ba:	697a      	ldr	r2, [r7, #20]
 80047bc:	2380      	movs	r3, #128	; 0x80
 80047be:	025b      	lsls	r3, r3, #9
 80047c0:	401a      	ands	r2, r3
 80047c2:	687b      	ldr	r3, [r7, #4]
 80047c4:	6a5b      	ldr	r3, [r3, #36]	; 0x24
 80047c6:	429a      	cmp	r2, r3
 80047c8:	d10e      	bne.n	80047e8 <HAL_RCC_OscConfig+0x610>
 80047ca:	693b      	ldr	r3, [r7, #16]
 80047cc:	220f      	movs	r2, #15
 80047ce:	401a      	ands	r2, r3
 80047d0:	687b      	ldr	r3, [r7, #4]
 80047d2:	6adb      	ldr	r3, [r3, #44]	; 0x2c
 80047d4:	429a      	cmp	r2, r3
 80047d6:	d107      	bne.n	80047e8 <HAL_RCC_OscConfig+0x610>
 80047d8:	697a      	ldr	r2, [r7, #20]
 80047da:	23f0      	movs	r3, #240	; 0xf0
 80047dc:	039b      	lsls	r3, r3, #14
 80047de:	401a      	ands	r2, r3
 80047e0:	687b      	ldr	r3, [r7, #4]
 80047e2:	6a9b      	ldr	r3, [r3, #40]	; 0x28
 80047e4:	429a      	cmp	r2, r3
 80047e6:	d001      	beq.n	80047ec <HAL_RCC_OscConfig+0x614>
 80047e8:	2301      	movs	r3, #1
 80047ea:	e000      	b.n	80047ee <HAL_RCC_OscConfig+0x616>
 80047ec:	2300      	movs	r3, #0
 80047ee:	0018      	movs	r0, r3
 80047f0:	46bd      	mov	sp, r7
 80047f2:	b008      	add	sp, #32
 80047f4:	bd80      	pop	{r7, pc}
 80047f6:	46c0      	nop			; (mov r8, r8)
 80047f8:	40021000 	.word	0x40021000
 80047fc:	00001388 	.word	0x00001388
 8004800:	efffffff 	.word	0xefffffff
 8004804:	feffffff 	.word	0xfeffffff
 8004808:	ffc2ffff 	.word	0xffc2ffff

0800480c <HAL_RCC_ClockConfig>:
 800480c:	b580      	push	{r7, lr}
 800480e:	b084      	sub	sp, #16
 8004810:	af00      	add	r7, sp, #0
 8004812:	6078      	str	r0, [r7, #4]
 8004814:	6039      	str	r1, [r7, #0]
 8004816:	687b      	ldr	r3, [r7, #4]
 8004818:	2b00      	cmp	r3, #0
 800481a:	d101      	bne.n	8004820 <HAL_RCC_ClockConfig+0x14>
 800481c:	2301      	movs	r3, #1
 800481e:	e0b3      	b.n	8004988 <HAL_RCC_ClockConfig+0x17c>
 8004820:	4b5b      	ldr	r3, [pc, #364]	; (8004990 <HAL_RCC_ClockConfig+0x184>)
 8004822:	681b      	ldr	r3, [r3, #0]
 8004824:	2201      	movs	r2, #1
 8004826:	4013      	ands	r3, r2
 8004828:	683a      	ldr	r2, [r7, #0]
 800482a:	429a      	cmp	r2, r3
 800482c:	d911      	bls.n	8004852 <HAL_RCC_ClockConfig+0x46>
 800482e:	4b58      	ldr	r3, [pc, #352]	; (8004990 <HAL_RCC_ClockConfig+0x184>)
 8004830:	681b      	ldr	r3, [r3, #0]
 8004832:	2201      	movs	r2, #1
 8004834:	4393      	bics	r3, r2
 8004836:	0019      	movs	r1, r3
 8004838:	4b55      	ldr	r3, [pc, #340]	; (8004990 <HAL_RCC_ClockConfig+0x184>)
 800483a:	683a      	ldr	r2, [r7, #0]
 800483c:	430a      	orrs	r2, r1
 800483e:	601a      	str	r2, [r3, #0]
 8004840:	4b53      	ldr	r3, [pc, #332]	; (8004990 <HAL_RCC_ClockConfig+0x184>)
 8004842:	681b      	ldr	r3, [r3, #0]
 8004844:	2201      	movs	r2, #1
 8004846:	4013      	ands	r3, r2
 8004848:	683a      	ldr	r2, [r7, #0]
 800484a:	429a      	cmp	r2, r3
 800484c:	d001      	beq.n	8004852 <HAL_RCC_ClockConfig+0x46>
 800484e:	2301      	movs	r3, #1
 8004850:	e09a      	b.n	8004988 <HAL_RCC_ClockConfig+0x17c>
 8004852:	687b      	ldr	r3, [r7, #4]
 8004854:	681b      	ldr	r3, [r3, #0]
 8004856:	2202      	movs	r2, #2
 8004858:	4013      	ands	r3, r2
 800485a:	d015      	beq.n	8004888 <HAL_RCC_ClockConfig+0x7c>
 800485c:	687b      	ldr	r3, [r7, #4]
 800485e:	681b      	ldr	r3, [r3, #0]
 8004860:	2204      	movs	r2, #4
 8004862:	4013      	ands	r3, r2
 8004864:	d006      	beq.n	8004874 <HAL_RCC_ClockConfig+0x68>
 8004866:	4b4b      	ldr	r3, [pc, #300]	; (8004994 <HAL_RCC_ClockConfig+0x188>)
 8004868:	685a      	ldr	r2, [r3, #4]
 800486a:	4b4a      	ldr	r3, [pc, #296]	; (8004994 <HAL_RCC_ClockConfig+0x188>)
 800486c:	21e0      	movs	r1, #224	; 0xe0
 800486e:	00c9      	lsls	r1, r1, #3
 8004870:	430a      	orrs	r2, r1
 8004872:	605a      	str	r2, [r3, #4]
 8004874:	4b47      	ldr	r3, [pc, #284]	; (8004994 <HAL_RCC_ClockConfig+0x188>)
 8004876:	685b      	ldr	r3, [r3, #4]
 8004878:	22f0      	movs	r2, #240	; 0xf0
 800487a:	4393      	bics	r3, r2
 800487c:	0019      	movs	r1, r3
 800487e:	687b      	ldr	r3, [r7, #4]
 8004880:	689a      	ldr	r2, [r3, #8]
 8004882:	4b44      	ldr	r3, [pc, #272]	; (8004994 <HAL_RCC_ClockConfig+0x188>)
 8004884:	430a      	orrs	r2, r1
 8004886:	605a      	str	r2, [r3, #4]
 8004888:	687b      	ldr	r3, [r7, #4]
 800488a:	681b      	ldr	r3, [r3, #0]
 800488c:	2201      	movs	r2, #1
 800488e:	4013      	ands	r3, r2
 8004890:	d040      	beq.n	8004914 <HAL_RCC_ClockConfig+0x108>
 8004892:	687b      	ldr	r3, [r7, #4]
 8004894:	685b      	ldr	r3, [r3, #4]
 8004896:	2b01      	cmp	r3, #1
 8004898:	d107      	bne.n	80048aa <HAL_RCC_ClockConfig+0x9e>
 800489a:	4b3e      	ldr	r3, [pc, #248]	; (8004994 <HAL_RCC_ClockConfig+0x188>)
 800489c:	681a      	ldr	r2, [r3, #0]
 800489e:	2380      	movs	r3, #128	; 0x80
 80048a0:	029b      	lsls	r3, r3, #10
 80048a2:	4013      	ands	r3, r2
 80048a4:	d114      	bne.n	80048d0 <HAL_RCC_ClockConfig+0xc4>
 80048a6:	2301      	movs	r3, #1
 80048a8:	e06e      	b.n	8004988 <HAL_RCC_ClockConfig+0x17c>
 80048aa:	687b      	ldr	r3, [r7, #4]
 80048ac:	685b      	ldr	r3, [r3, #4]
 80048ae:	2b02      	cmp	r3, #2
 80048b0:	d107      	bne.n	80048c2 <HAL_RCC_ClockConfig+0xb6>
 80048b2:	4b38      	ldr	r3, [pc, #224]	; (8004994 <HAL_RCC_ClockConfig+0x188>)
 80048b4:	681a      	ldr	r2, [r3, #0]
 80048b6:	2380      	movs	r3, #128	; 0x80
 80048b8:	049b      	lsls	r3, r3, #18
 80048ba:	4013      	ands	r3, r2
 80048bc:	d108      	bne.n	80048d0 <HAL_RCC_ClockConfig+0xc4>
 80048be:	2301      	movs	r3, #1
 80048c0:	e062      	b.n	8004988 <HAL_RCC_ClockConfig+0x17c>
 80048c2:	4b34      	ldr	r3, [pc, #208]	; (8004994 <HAL_RCC_ClockConfig+0x188>)
 80048c4:	681b      	ldr	r3, [r3, #0]
 80048c6:	2202      	movs	r2, #2
 80048c8:	4013      	ands	r3, r2
 80048ca:	d101      	bne.n	80048d0 <HAL_RCC_ClockConfig+0xc4>
 80048cc:	2301      	movs	r3, #1
 80048ce:	e05b      	b.n	8004988 <HAL_RCC_ClockConfig+0x17c>
 80048d0:	4b30      	ldr	r3, [pc, #192]	; (8004994 <HAL_RCC_ClockConfig+0x188>)
 80048d2:	685b      	ldr	r3, [r3, #4]
 80048d4:	2203      	movs	r2, #3
 80048d6:	4393      	bics	r3, r2
 80048d8:	0019      	movs	r1, r3
 80048da:	687b      	ldr	r3, [r7, #4]
 80048dc:	685a      	ldr	r2, [r3, #4]
 80048de:	4b2d      	ldr	r3, [pc, #180]	; (8004994 <HAL_RCC_ClockConfig+0x188>)
 80048e0:	430a      	orrs	r2, r1
 80048e2:	605a      	str	r2, [r3, #4]
 80048e4:	f7fe fcd8 	bl	8003298 <HAL_GetTick>
 80048e8:	0003      	movs	r3, r0
 80048ea:	60fb      	str	r3, [r7, #12]
 80048ec:	e009      	b.n	8004902 <HAL_RCC_ClockConfig+0xf6>
 80048ee:	f7fe fcd3 	bl	8003298 <HAL_GetTick>
 80048f2:	0002      	movs	r2, r0
 80048f4:	68fb      	ldr	r3, [r7, #12]
 80048f6:	1ad3      	subs	r3, r2, r3
 80048f8:	4a27      	ldr	r2, [pc, #156]	; (8004998 <HAL_RCC_ClockConfig+0x18c>)
 80048fa:	4293      	cmp	r3, r2
 80048fc:	d901      	bls.n	8004902 <HAL_RCC_ClockConfig+0xf6>
 80048fe:	2303      	movs	r3, #3
 8004900:	e042      	b.n	8004988 <HAL_RCC_ClockConfig+0x17c>
 8004902:	4b24      	ldr	r3, [pc, #144]	; (8004994 <HAL_RCC_ClockConfig+0x188>)
 8004904:	685b      	ldr	r3, [r3, #4]
 8004906:	220c      	movs	r2, #12
 8004908:	401a      	ands	r2, r3
 800490a:	687b      	ldr	r3, [r7, #4]
 800490c:	685b      	ldr	r3, [r3, #4]
 800490e:	009b      	lsls	r3, r3, #2
 8004910:	429a      	cmp	r2, r3
 8004912:	d1ec      	bne.n	80048ee <HAL_RCC_ClockConfig+0xe2>
 8004914:	4b1e      	ldr	r3, [pc, #120]	; (8004990 <HAL_RCC_ClockConfig+0x184>)
 8004916:	681b      	ldr	r3, [r3, #0]
 8004918:	2201      	movs	r2, #1
 800491a:	4013      	ands	r3, r2
 800491c:	683a      	ldr	r2, [r7, #0]
 800491e:	429a      	cmp	r2, r3
 8004920:	d211      	bcs.n	8004946 <HAL_RCC_ClockConfig+0x13a>
 8004922:	4b1b      	ldr	r3, [pc, #108]	; (8004990 <HAL_RCC_ClockConfig+0x184>)
 8004924:	681b      	ldr	r3, [r3, #0]
 8004926:	2201      	movs	r2, #1
 8004928:	4393      	bics	r3, r2
 800492a:	0019      	movs	r1, r3
 800492c:	4b18      	ldr	r3, [pc, #96]	; (8004990 <HAL_RCC_ClockConfig+0x184>)
 800492e:	683a      	ldr	r2, [r7, #0]
 8004930:	430a      	orrs	r2, r1
 8004932:	601a      	str	r2, [r3, #0]
 8004934:	4b16      	ldr	r3, [pc, #88]	; (8004990 <HAL_RCC_ClockConfig+0x184>)
 8004936:	681b      	ldr	r3, [r3, #0]
 8004938:	2201      	movs	r2, #1
 800493a:	4013      	ands	r3, r2
 800493c:	683a      	ldr	r2, [r7, #0]
 800493e:	429a      	cmp	r2, r3
 8004940:	d001      	beq.n	8004946 <HAL_RCC_ClockConfig+0x13a>
 8004942:	2301      	movs	r3, #1
 8004944:	e020      	b.n	8004988 <HAL_RCC_ClockConfig+0x17c>
 8004946:	687b      	ldr	r3, [r7, #4]
 8004948:	681b      	ldr	r3, [r3, #0]
 800494a:	2204      	movs	r2, #4
 800494c:	4013      	ands	r3, r2
 800494e:	d009      	beq.n	8004964 <HAL_RCC_ClockConfig+0x158>
 8004950:	4b10      	ldr	r3, [pc, #64]	; (8004994 <HAL_RCC_ClockConfig+0x188>)
 8004952:	685b      	ldr	r3, [r3, #4]
 8004954:	4a11      	ldr	r2, [pc, #68]	; (800499c <HAL_RCC_ClockConfig+0x190>)
 8004956:	4013      	ands	r3, r2
 8004958:	0019      	movs	r1, r3
 800495a:	687b      	ldr	r3, [r7, #4]
 800495c:	68da      	ldr	r2, [r3, #12]
 800495e:	4b0d      	ldr	r3, [pc, #52]	; (8004994 <HAL_RCC_ClockConfig+0x188>)
 8004960:	430a      	orrs	r2, r1
 8004962:	605a      	str	r2, [r3, #4]
 8004964:	f000 f820 	bl	80049a8 <HAL_RCC_GetSysClockFreq>
 8004968:	0001      	movs	r1, r0
 800496a:	4b0a      	ldr	r3, [pc, #40]	; (8004994 <HAL_RCC_ClockConfig+0x188>)
 800496c:	685b      	ldr	r3, [r3, #4]
 800496e:	091b      	lsrs	r3, r3, #4
 8004970:	220f      	movs	r2, #15
 8004972:	4013      	ands	r3, r2
 8004974:	4a0a      	ldr	r2, [pc, #40]	; (80049a0 <HAL_RCC_ClockConfig+0x194>)
 8004976:	5cd3      	ldrb	r3, [r2, r3]
 8004978:	000a      	movs	r2, r1
 800497a:	40da      	lsrs	r2, r3
 800497c:	4b09      	ldr	r3, [pc, #36]	; (80049a4 <HAL_RCC_ClockConfig+0x198>)
 800497e:	601a      	str	r2, [r3, #0]
 8004980:	2003      	movs	r0, #3
 8004982:	f7fe fb8d 	bl	80030a0 <HAL_InitTick>
 8004986:	2300      	movs	r3, #0
 8004988:	0018      	movs	r0, r3
 800498a:	46bd      	mov	sp, r7
 800498c:	b004      	add	sp, #16
 800498e:	bd80      	pop	{r7, pc}
 8004990:	40022000 	.word	0x40022000
 8004994:	40021000 	.word	0x40021000
 8004998:	00001388 	.word	0x00001388
 800499c:	fffff8ff 	.word	0xfffff8ff
 80049a0:	08008b14 	.word	0x08008b14
 80049a4:	20000000 	.word	0x20000000

080049a8 <HAL_RCC_GetSysClockFreq>:
 80049a8:	b590      	push	{r4, r7, lr}
 80049aa:	b08f      	sub	sp, #60	; 0x3c
 80049ac:	af00      	add	r7, sp, #0
 80049ae:	2314      	movs	r3, #20
 80049b0:	18fb      	adds	r3, r7, r3
 80049b2:	4a2b      	ldr	r2, [pc, #172]	; (8004a60 <HAL_RCC_GetSysClockFreq+0xb8>)
 80049b4:	ca13      	ldmia	r2!, {r0, r1, r4}
 80049b6:	c313      	stmia	r3!, {r0, r1, r4}
 80049b8:	6812      	ldr	r2, [r2, #0]
 80049ba:	601a      	str	r2, [r3, #0]
 80049bc:	1d3b      	adds	r3, r7, #4
 80049be:	4a29      	ldr	r2, [pc, #164]	; (8004a64 <HAL_RCC_GetSysClockFreq+0xbc>)
 80049c0:	ca13      	ldmia	r2!, {r0, r1, r4}
 80049c2:	c313      	stmia	r3!, {r0, r1, r4}
 80049c4:	6812      	ldr	r2, [r2, #0]
 80049c6:	601a      	str	r2, [r3, #0]
 80049c8:	2300      	movs	r3, #0
 80049ca:	62fb      	str	r3, [r7, #44]	; 0x2c
 80049cc:	2300      	movs	r3, #0
 80049ce:	62bb      	str	r3, [r7, #40]	; 0x28
 80049d0:	2300      	movs	r3, #0
 80049d2:	637b      	str	r3, [r7, #52]	; 0x34
 80049d4:	2300      	movs	r3, #0
 80049d6:	627b      	str	r3, [r7, #36]	; 0x24
 80049d8:	2300      	movs	r3, #0
 80049da:	633b      	str	r3, [r7, #48]	; 0x30
 80049dc:	4b22      	ldr	r3, [pc, #136]	; (8004a68 <HAL_RCC_GetSysClockFreq+0xc0>)
 80049de:	685b      	ldr	r3, [r3, #4]
 80049e0:	62fb      	str	r3, [r7, #44]	; 0x2c
 80049e2:	6afb      	ldr	r3, [r7, #44]	; 0x2c
 80049e4:	220c      	movs	r2, #12
 80049e6:	4013      	ands	r3, r2
 80049e8:	2b04      	cmp	r3, #4
 80049ea:	d002      	beq.n	80049f2 <HAL_RCC_GetSysClockFreq+0x4a>
 80049ec:	2b08      	cmp	r3, #8
 80049ee:	d003      	beq.n	80049f8 <HAL_RCC_GetSysClockFreq+0x50>
 80049f0:	e02d      	b.n	8004a4e <HAL_RCC_GetSysClockFreq+0xa6>
 80049f2:	4b1e      	ldr	r3, [pc, #120]	; (8004a6c <HAL_RCC_GetSysClockFreq+0xc4>)
 80049f4:	633b      	str	r3, [r7, #48]	; 0x30
 80049f6:	e02d      	b.n	8004a54 <HAL_RCC_GetSysClockFreq+0xac>
 80049f8:	6afb      	ldr	r3, [r7, #44]	; 0x2c
 80049fa:	0c9b      	lsrs	r3, r3, #18
 80049fc:	220f      	movs	r2, #15
 80049fe:	4013      	ands	r3, r2
 8004a00:	2214      	movs	r2, #20
 8004a02:	18ba      	adds	r2, r7, r2
 8004a04:	5cd3      	ldrb	r3, [r2, r3]
 8004a06:	627b      	str	r3, [r7, #36]	; 0x24
 8004a08:	4b17      	ldr	r3, [pc, #92]	; (8004a68 <HAL_RCC_GetSysClockFreq+0xc0>)
 8004a0a:	6adb      	ldr	r3, [r3, #44]	; 0x2c
 8004a0c:	220f      	movs	r2, #15
 8004a0e:	4013      	ands	r3, r2
 8004a10:	1d3a      	adds	r2, r7, #4
 8004a12:	5cd3      	ldrb	r3, [r2, r3]
 8004a14:	62bb      	str	r3, [r7, #40]	; 0x28
 8004a16:	6afa      	ldr	r2, [r7, #44]	; 0x2c
 8004a18:	2380      	movs	r3, #128	; 0x80
 8004a1a:	025b      	lsls	r3, r3, #9
 8004a1c:	4013      	ands	r3, r2
 8004a1e:	d009      	beq.n	8004a34 <HAL_RCC_GetSysClockFreq+0x8c>
 8004a20:	6ab9      	ldr	r1, [r7, #40]	; 0x28
 8004a22:	4812      	ldr	r0, [pc, #72]	; (8004a6c <HAL_RCC_GetSysClockFreq+0xc4>)
 8004a24:	f7fb fb82 	bl	800012c <__udivsi3>
 8004a28:	0003      	movs	r3, r0
 8004a2a:	001a      	movs	r2, r3
 8004a2c:	6a7b      	ldr	r3, [r7, #36]	; 0x24
 8004a2e:	4353      	muls	r3, r2
 8004a30:	637b      	str	r3, [r7, #52]	; 0x34
 8004a32:	e009      	b.n	8004a48 <HAL_RCC_GetSysClockFreq+0xa0>
 8004a34:	6a79      	ldr	r1, [r7, #36]	; 0x24
 8004a36:	000a      	movs	r2, r1
 8004a38:	0152      	lsls	r2, r2, #5
 8004a3a:	1a52      	subs	r2, r2, r1
 8004a3c:	0193      	lsls	r3, r2, #6
 8004a3e:	1a9b      	subs	r3, r3, r2
 8004a40:	00db      	lsls	r3, r3, #3
 8004a42:	185b      	adds	r3, r3, r1
 8004a44:	021b      	lsls	r3, r3, #8
 8004a46:	637b      	str	r3, [r7, #52]	; 0x34
 8004a48:	6b7b      	ldr	r3, [r7, #52]	; 0x34
 8004a4a:	633b      	str	r3, [r7, #48]	; 0x30
 8004a4c:	e002      	b.n	8004a54 <HAL_RCC_GetSysClockFreq+0xac>
 8004a4e:	4b07      	ldr	r3, [pc, #28]	; (8004a6c <HAL_RCC_GetSysClockFreq+0xc4>)
 8004a50:	633b      	str	r3, [r7, #48]	; 0x30
 8004a52:	46c0      	nop			; (mov r8, r8)
 8004a54:	6b3b      	ldr	r3, [r7, #48]	; 0x30
 8004a56:	0018      	movs	r0, r3
 8004a58:	46bd      	mov	sp, r7
 8004a5a:	b00f      	add	sp, #60	; 0x3c
 8004a5c:	bd90      	pop	{r4, r7, pc}
 8004a5e:	46c0      	nop			; (mov r8, r8)
 8004a60:	08008a30 	.word	0x08008a30
 8004a64:	08008a40 	.word	0x08008a40
 8004a68:	40021000 	.word	0x40021000
 8004a6c:	007a1200 	.word	0x007a1200

08004a70 <HAL_RCC_GetHCLKFreq>:
 8004a70:	b580      	push	{r7, lr}
 8004a72:	af00      	add	r7, sp, #0
 8004a74:	4b02      	ldr	r3, [pc, #8]	; (8004a80 <HAL_RCC_GetHCLKFreq+0x10>)
 8004a76:	681b      	ldr	r3, [r3, #0]
 8004a78:	0018      	movs	r0, r3
 8004a7a:	46bd      	mov	sp, r7
 8004a7c:	bd80      	pop	{r7, pc}
 8004a7e:	46c0      	nop			; (mov r8, r8)
 8004a80:	20000000 	.word	0x20000000

08004a84 <HAL_RCC_GetPCLK1Freq>:
 8004a84:	b580      	push	{r7, lr}
 8004a86:	af00      	add	r7, sp, #0
 8004a88:	f7ff fff2 	bl	8004a70 <HAL_RCC_GetHCLKFreq>
 8004a8c:	0001      	movs	r1, r0
 8004a8e:	4b06      	ldr	r3, [pc, #24]	; (8004aa8 <HAL_RCC_GetPCLK1Freq+0x24>)
 8004a90:	685b      	ldr	r3, [r3, #4]
 8004a92:	0a1b      	lsrs	r3, r3, #8
 8004a94:	2207      	movs	r2, #7
 8004a96:	4013      	ands	r3, r2
 8004a98:	4a04      	ldr	r2, [pc, #16]	; (8004aac <HAL_RCC_GetPCLK1Freq+0x28>)
 8004a9a:	5cd3      	ldrb	r3, [r2, r3]
 8004a9c:	40d9      	lsrs	r1, r3
 8004a9e:	000b      	movs	r3, r1
 8004aa0:	0018      	movs	r0, r3
 8004aa2:	46bd      	mov	sp, r7
 8004aa4:	bd80      	pop	{r7, pc}
 8004aa6:	46c0      	nop			; (mov r8, r8)
 8004aa8:	40021000 	.word	0x40021000
 8004aac:	08008b24 	.word	0x08008b24

08004ab0 <HAL_RCC_GetClockConfig>:
 8004ab0:	b580      	push	{r7, lr}
 8004ab2:	b082      	sub	sp, #8
 8004ab4:	af00      	add	r7, sp, #0
 8004ab6:	6078      	str	r0, [r7, #4]
 8004ab8:	6039      	str	r1, [r7, #0]
 8004aba:	687b      	ldr	r3, [r7, #4]
 8004abc:	2207      	movs	r2, #7
 8004abe:	601a      	str	r2, [r3, #0]
 8004ac0:	4b0e      	ldr	r3, [pc, #56]	; (8004afc <HAL_RCC_GetClockConfig+0x4c>)
 8004ac2:	685b      	ldr	r3, [r3, #4]
 8004ac4:	2203      	movs	r2, #3
 8004ac6:	401a      	ands	r2, r3
 8004ac8:	687b      	ldr	r3, [r7, #4]
 8004aca:	605a      	str	r2, [r3, #4]
 8004acc:	4b0b      	ldr	r3, [pc, #44]	; (8004afc <HAL_RCC_GetClockConfig+0x4c>)
 8004ace:	685b      	ldr	r3, [r3, #4]
 8004ad0:	22f0      	movs	r2, #240	; 0xf0
 8004ad2:	401a      	ands	r2, r3
 8004ad4:	687b      	ldr	r3, [r7, #4]
 8004ad6:	609a      	str	r2, [r3, #8]
 8004ad8:	4b08      	ldr	r3, [pc, #32]	; (8004afc <HAL_RCC_GetClockConfig+0x4c>)
 8004ada:	685a      	ldr	r2, [r3, #4]
 8004adc:	23e0      	movs	r3, #224	; 0xe0
 8004ade:	00db      	lsls	r3, r3, #3
 8004ae0:	401a      	ands	r2, r3
 8004ae2:	687b      	ldr	r3, [r7, #4]
 8004ae4:	60da      	str	r2, [r3, #12]
 8004ae6:	4b06      	ldr	r3, [pc, #24]	; (8004b00 <HAL_RCC_GetClockConfig+0x50>)
 8004ae8:	681b      	ldr	r3, [r3, #0]
 8004aea:	2201      	movs	r2, #1
 8004aec:	401a      	ands	r2, r3
 8004aee:	683b      	ldr	r3, [r7, #0]
 8004af0:	601a      	str	r2, [r3, #0]
 8004af2:	46c0      	nop			; (mov r8, r8)
 8004af4:	46bd      	mov	sp, r7
 8004af6:	b002      	add	sp, #8
 8004af8:	bd80      	pop	{r7, pc}
 8004afa:	46c0      	nop			; (mov r8, r8)
 8004afc:	40021000 	.word	0x40021000
 8004b00:	40022000 	.word	0x40022000

08004b04 <HAL_RCCEx_PeriphCLKConfig>:
 8004b04:	b580      	push	{r7, lr}
 8004b06:	b086      	sub	sp, #24
 8004b08:	af00      	add	r7, sp, #0
 8004b0a:	6078      	str	r0, [r7, #4]
 8004b0c:	2300      	movs	r3, #0
 8004b0e:	613b      	str	r3, [r7, #16]
 8004b10:	2300      	movs	r3, #0
 8004b12:	60fb      	str	r3, [r7, #12]
 8004b14:	687b      	ldr	r3, [r7, #4]
 8004b16:	681a      	ldr	r2, [r3, #0]
 8004b18:	2380      	movs	r3, #128	; 0x80
 8004b1a:	025b      	lsls	r3, r3, #9
 8004b1c:	4013      	ands	r3, r2
 8004b1e:	d100      	bne.n	8004b22 <HAL_RCCEx_PeriphCLKConfig+0x1e>
 8004b20:	e08e      	b.n	8004c40 <HAL_RCCEx_PeriphCLKConfig+0x13c>
 8004b22:	2017      	movs	r0, #23
 8004b24:	183b      	adds	r3, r7, r0
 8004b26:	2200      	movs	r2, #0
 8004b28:	701a      	strb	r2, [r3, #0]
 8004b2a:	4b57      	ldr	r3, [pc, #348]	; (8004c88 <HAL_RCCEx_PeriphCLKConfig+0x184>)
 8004b2c:	69da      	ldr	r2, [r3, #28]
 8004b2e:	2380      	movs	r3, #128	; 0x80
 8004b30:	055b      	lsls	r3, r3, #21
 8004b32:	4013      	ands	r3, r2
 8004b34:	d110      	bne.n	8004b58 <HAL_RCCEx_PeriphCLKConfig+0x54>
 8004b36:	4b54      	ldr	r3, [pc, #336]	; (8004c88 <HAL_RCCEx_PeriphCLKConfig+0x184>)
 8004b38:	69da      	ldr	r2, [r3, #28]
 8004b3a:	4b53      	ldr	r3, [pc, #332]	; (8004c88 <HAL_RCCEx_PeriphCLKConfig+0x184>)
 8004b3c:	2180      	movs	r1, #128	; 0x80
 8004b3e:	0549      	lsls	r1, r1, #21
 8004b40:	430a      	orrs	r2, r1
 8004b42:	61da      	str	r2, [r3, #28]
 8004b44:	4b50      	ldr	r3, [pc, #320]	; (8004c88 <HAL_RCCEx_PeriphCLKConfig+0x184>)
 8004b46:	69da      	ldr	r2, [r3, #28]
 8004b48:	2380      	movs	r3, #128	; 0x80
 8004b4a:	055b      	lsls	r3, r3, #21
 8004b4c:	4013      	ands	r3, r2
 8004b4e:	60bb      	str	r3, [r7, #8]
 8004b50:	68bb      	ldr	r3, [r7, #8]
 8004b52:	183b      	adds	r3, r7, r0
 8004b54:	2201      	movs	r2, #1
 8004b56:	701a      	strb	r2, [r3, #0]
 8004b58:	4b4c      	ldr	r3, [pc, #304]	; (8004c8c <HAL_RCCEx_PeriphCLKConfig+0x188>)
 8004b5a:	681a      	ldr	r2, [r3, #0]
 8004b5c:	2380      	movs	r3, #128	; 0x80
 8004b5e:	005b      	lsls	r3, r3, #1
 8004b60:	4013      	ands	r3, r2
 8004b62:	d11a      	bne.n	8004b9a <HAL_RCCEx_PeriphCLKConfig+0x96>
 8004b64:	4b49      	ldr	r3, [pc, #292]	; (8004c8c <HAL_RCCEx_PeriphCLKConfig+0x188>)
 8004b66:	681a      	ldr	r2, [r3, #0]
 8004b68:	4b48      	ldr	r3, [pc, #288]	; (8004c8c <HAL_RCCEx_PeriphCLKConfig+0x188>)
 8004b6a:	2180      	movs	r1, #128	; 0x80
 8004b6c:	0049      	lsls	r1, r1, #1
 8004b6e:	430a      	orrs	r2, r1
 8004b70:	601a      	str	r2, [r3, #0]
 8004b72:	f7fe fb91 	bl	8003298 <HAL_GetTick>
 8004b76:	0003      	movs	r3, r0
 8004b78:	613b      	str	r3, [r7, #16]
 8004b7a:	e008      	b.n	8004b8e <HAL_RCCEx_PeriphCLKConfig+0x8a>
 8004b7c:	f7fe fb8c 	bl	8003298 <HAL_GetTick>
 8004b80:	0002      	movs	r2, r0
 8004b82:	693b      	ldr	r3, [r7, #16]
 8004b84:	1ad3      	subs	r3, r2, r3
 8004b86:	2b64      	cmp	r3, #100	; 0x64
 8004b88:	d901      	bls.n	8004b8e <HAL_RCCEx_PeriphCLKConfig+0x8a>
 8004b8a:	2303      	movs	r3, #3
 8004b8c:	e077      	b.n	8004c7e <HAL_RCCEx_PeriphCLKConfig+0x17a>
 8004b8e:	4b3f      	ldr	r3, [pc, #252]	; (8004c8c <HAL_RCCEx_PeriphCLKConfig+0x188>)
 8004b90:	681a      	ldr	r2, [r3, #0]
 8004b92:	2380      	movs	r3, #128	; 0x80
 8004b94:	005b      	lsls	r3, r3, #1
 8004b96:	4013      	ands	r3, r2
 8004b98:	d0f0      	beq.n	8004b7c <HAL_RCCEx_PeriphCLKConfig+0x78>
 8004b9a:	4b3b      	ldr	r3, [pc, #236]	; (8004c88 <HAL_RCCEx_PeriphCLKConfig+0x184>)
 8004b9c:	6a1a      	ldr	r2, [r3, #32]
 8004b9e:	23c0      	movs	r3, #192	; 0xc0
 8004ba0:	009b      	lsls	r3, r3, #2
 8004ba2:	4013      	ands	r3, r2
 8004ba4:	60fb      	str	r3, [r7, #12]
 8004ba6:	68fb      	ldr	r3, [r7, #12]
 8004ba8:	2b00      	cmp	r3, #0
 8004baa:	d034      	beq.n	8004c16 <HAL_RCCEx_PeriphCLKConfig+0x112>
 8004bac:	687b      	ldr	r3, [r7, #4]
 8004bae:	685a      	ldr	r2, [r3, #4]
 8004bb0:	23c0      	movs	r3, #192	; 0xc0
 8004bb2:	009b      	lsls	r3, r3, #2
 8004bb4:	4013      	ands	r3, r2
 8004bb6:	68fa      	ldr	r2, [r7, #12]
 8004bb8:	429a      	cmp	r2, r3
 8004bba:	d02c      	beq.n	8004c16 <HAL_RCCEx_PeriphCLKConfig+0x112>
 8004bbc:	4b32      	ldr	r3, [pc, #200]	; (8004c88 <HAL_RCCEx_PeriphCLKConfig+0x184>)
 8004bbe:	6a1b      	ldr	r3, [r3, #32]
 8004bc0:	4a33      	ldr	r2, [pc, #204]	; (8004c90 <HAL_RCCEx_PeriphCLKConfig+0x18c>)
 8004bc2:	4013      	ands	r3, r2
 8004bc4:	60fb      	str	r3, [r7, #12]
 8004bc6:	4b30      	ldr	r3, [pc, #192]	; (8004c88 <HAL_RCCEx_PeriphCLKConfig+0x184>)
 8004bc8:	6a1a      	ldr	r2, [r3, #32]
 8004bca:	4b2f      	ldr	r3, [pc, #188]	; (8004c88 <HAL_RCCEx_PeriphCLKConfig+0x184>)
 8004bcc:	2180      	movs	r1, #128	; 0x80
 8004bce:	0249      	lsls	r1, r1, #9
 8004bd0:	430a      	orrs	r2, r1
 8004bd2:	621a      	str	r2, [r3, #32]
 8004bd4:	4b2c      	ldr	r3, [pc, #176]	; (8004c88 <HAL_RCCEx_PeriphCLKConfig+0x184>)
 8004bd6:	6a1a      	ldr	r2, [r3, #32]
 8004bd8:	4b2b      	ldr	r3, [pc, #172]	; (8004c88 <HAL_RCCEx_PeriphCLKConfig+0x184>)
 8004bda:	492e      	ldr	r1, [pc, #184]	; (8004c94 <HAL_RCCEx_PeriphCLKConfig+0x190>)
 8004bdc:	400a      	ands	r2, r1
 8004bde:	621a      	str	r2, [r3, #32]
 8004be0:	4b29      	ldr	r3, [pc, #164]	; (8004c88 <HAL_RCCEx_PeriphCLKConfig+0x184>)
 8004be2:	68fa      	ldr	r2, [r7, #12]
 8004be4:	621a      	str	r2, [r3, #32]
 8004be6:	68fb      	ldr	r3, [r7, #12]
 8004be8:	2201      	movs	r2, #1
 8004bea:	4013      	ands	r3, r2
 8004bec:	d013      	beq.n	8004c16 <HAL_RCCEx_PeriphCLKConfig+0x112>
 8004bee:	f7fe fb53 	bl	8003298 <HAL_GetTick>
 8004bf2:	0003      	movs	r3, r0
 8004bf4:	613b      	str	r3, [r7, #16]
 8004bf6:	e009      	b.n	8004c0c <HAL_RCCEx_PeriphCLKConfig+0x108>
 8004bf8:	f7fe fb4e 	bl	8003298 <HAL_GetTick>
 8004bfc:	0002      	movs	r2, r0
 8004bfe:	693b      	ldr	r3, [r7, #16]
 8004c00:	1ad3      	subs	r3, r2, r3
 8004c02:	4a25      	ldr	r2, [pc, #148]	; (8004c98 <HAL_RCCEx_PeriphCLKConfig+0x194>)
 8004c04:	4293      	cmp	r3, r2
 8004c06:	d901      	bls.n	8004c0c <HAL_RCCEx_PeriphCLKConfig+0x108>
 8004c08:	2303      	movs	r3, #3
 8004c0a:	e038      	b.n	8004c7e <HAL_RCCEx_PeriphCLKConfig+0x17a>
 8004c0c:	4b1e      	ldr	r3, [pc, #120]	; (8004c88 <HAL_RCCEx_PeriphCLKConfig+0x184>)
 8004c0e:	6a1b      	ldr	r3, [r3, #32]
 8004c10:	2202      	movs	r2, #2
 8004c12:	4013      	ands	r3, r2
 8004c14:	d0f0      	beq.n	8004bf8 <HAL_RCCEx_PeriphCLKConfig+0xf4>
 8004c16:	4b1c      	ldr	r3, [pc, #112]	; (8004c88 <HAL_RCCEx_PeriphCLKConfig+0x184>)
 8004c18:	6a1b      	ldr	r3, [r3, #32]
 8004c1a:	4a1d      	ldr	r2, [pc, #116]	; (8004c90 <HAL_RCCEx_PeriphCLKConfig+0x18c>)
 8004c1c:	4013      	ands	r3, r2
 8004c1e:	0019      	movs	r1, r3
 8004c20:	687b      	ldr	r3, [r7, #4]
 8004c22:	685a      	ldr	r2, [r3, #4]
 8004c24:	4b18      	ldr	r3, [pc, #96]	; (8004c88 <HAL_RCCEx_PeriphCLKConfig+0x184>)
 8004c26:	430a      	orrs	r2, r1
 8004c28:	621a      	str	r2, [r3, #32]
 8004c2a:	2317      	movs	r3, #23
 8004c2c:	18fb      	adds	r3, r7, r3
 8004c2e:	781b      	ldrb	r3, [r3, #0]
 8004c30:	2b01      	cmp	r3, #1
 8004c32:	d105      	bne.n	8004c40 <HAL_RCCEx_PeriphCLKConfig+0x13c>
 8004c34:	4b14      	ldr	r3, [pc, #80]	; (8004c88 <HAL_RCCEx_PeriphCLKConfig+0x184>)
 8004c36:	69da      	ldr	r2, [r3, #28]
 8004c38:	4b13      	ldr	r3, [pc, #76]	; (8004c88 <HAL_RCCEx_PeriphCLKConfig+0x184>)
 8004c3a:	4918      	ldr	r1, [pc, #96]	; (8004c9c <HAL_RCCEx_PeriphCLKConfig+0x198>)
 8004c3c:	400a      	ands	r2, r1
 8004c3e:	61da      	str	r2, [r3, #28]
 8004c40:	687b      	ldr	r3, [r7, #4]
 8004c42:	681b      	ldr	r3, [r3, #0]
 8004c44:	2201      	movs	r2, #1
 8004c46:	4013      	ands	r3, r2
 8004c48:	d009      	beq.n	8004c5e <HAL_RCCEx_PeriphCLKConfig+0x15a>
 8004c4a:	4b0f      	ldr	r3, [pc, #60]	; (8004c88 <HAL_RCCEx_PeriphCLKConfig+0x184>)
 8004c4c:	6b1b      	ldr	r3, [r3, #48]	; 0x30
 8004c4e:	2203      	movs	r2, #3
 8004c50:	4393      	bics	r3, r2
 8004c52:	0019      	movs	r1, r3
 8004c54:	687b      	ldr	r3, [r7, #4]
 8004c56:	689a      	ldr	r2, [r3, #8]
 8004c58:	4b0b      	ldr	r3, [pc, #44]	; (8004c88 <HAL_RCCEx_PeriphCLKConfig+0x184>)
 8004c5a:	430a      	orrs	r2, r1
 8004c5c:	631a      	str	r2, [r3, #48]	; 0x30
 8004c5e:	687b      	ldr	r3, [r7, #4]
 8004c60:	681b      	ldr	r3, [r3, #0]
 8004c62:	2220      	movs	r2, #32
 8004c64:	4013      	ands	r3, r2
 8004c66:	d009      	beq.n	8004c7c <HAL_RCCEx_PeriphCLKConfig+0x178>
 8004c68:	4b07      	ldr	r3, [pc, #28]	; (8004c88 <HAL_RCCEx_PeriphCLKConfig+0x184>)
 8004c6a:	6b1b      	ldr	r3, [r3, #48]	; 0x30
 8004c6c:	2210      	movs	r2, #16
 8004c6e:	4393      	bics	r3, r2
 8004c70:	0019      	movs	r1, r3
 8004c72:	687b      	ldr	r3, [r7, #4]
 8004c74:	68da      	ldr	r2, [r3, #12]
 8004c76:	4b04      	ldr	r3, [pc, #16]	; (8004c88 <HAL_RCCEx_PeriphCLKConfig+0x184>)
 8004c78:	430a      	orrs	r2, r1
 8004c7a:	631a      	str	r2, [r3, #48]	; 0x30
 8004c7c:	2300      	movs	r3, #0
 8004c7e:	0018      	movs	r0, r3
 8004c80:	46bd      	mov	sp, r7
 8004c82:	b006      	add	sp, #24
 8004c84:	bd80      	pop	{r7, pc}
 8004c86:	46c0      	nop			; (mov r8, r8)
 8004c88:	40021000 	.word	0x40021000
 8004c8c:	40007000 	.word	0x40007000
 8004c90:	fffffcff 	.word	0xfffffcff
 8004c94:	fffeffff 	.word	0xfffeffff
 8004c98:	00001388 	.word	0x00001388
 8004c9c:	efffffff 	.word	0xefffffff

08004ca0 <HAL_TIM_Base_Init>:
 8004ca0:	b580      	push	{r7, lr}
 8004ca2:	b082      	sub	sp, #8
 8004ca4:	af00      	add	r7, sp, #0
 8004ca6:	6078      	str	r0, [r7, #4]
 8004ca8:	687b      	ldr	r3, [r7, #4]
 8004caa:	2b00      	cmp	r3, #0
 8004cac:	d101      	bne.n	8004cb2 <HAL_TIM_Base_Init+0x12>
 8004cae:	2301      	movs	r3, #1
 8004cb0:	e042      	b.n	8004d38 <HAL_TIM_Base_Init+0x98>
 8004cb2:	687b      	ldr	r3, [r7, #4]
 8004cb4:	223d      	movs	r2, #61	; 0x3d
 8004cb6:	5c9b      	ldrb	r3, [r3, r2]
 8004cb8:	b2db      	uxtb	r3, r3
 8004cba:	2b00      	cmp	r3, #0
 8004cbc:	d107      	bne.n	8004cce <HAL_TIM_Base_Init+0x2e>
 8004cbe:	687b      	ldr	r3, [r7, #4]
 8004cc0:	223c      	movs	r2, #60	; 0x3c
 8004cc2:	2100      	movs	r1, #0
 8004cc4:	5499      	strb	r1, [r3, r2]
 8004cc6:	687b      	ldr	r3, [r7, #4]
 8004cc8:	0018      	movs	r0, r3
 8004cca:	f000 f839 	bl	8004d40 <HAL_TIM_Base_MspInit>
 8004cce:	687b      	ldr	r3, [r7, #4]
 8004cd0:	223d      	movs	r2, #61	; 0x3d
 8004cd2:	2102      	movs	r1, #2
 8004cd4:	5499      	strb	r1, [r3, r2]
 8004cd6:	687b      	ldr	r3, [r7, #4]
 8004cd8:	681a      	ldr	r2, [r3, #0]
 8004cda:	687b      	ldr	r3, [r7, #4]
 8004cdc:	3304      	adds	r3, #4
 8004cde:	0019      	movs	r1, r3
 8004ce0:	0010      	movs	r0, r2
 8004ce2:	f000 f9b7 	bl	8005054 <TIM_Base_SetConfig>
 8004ce6:	687b      	ldr	r3, [r7, #4]
 8004ce8:	2246      	movs	r2, #70	; 0x46
 8004cea:	2101      	movs	r1, #1
 8004cec:	5499      	strb	r1, [r3, r2]
 8004cee:	687b      	ldr	r3, [r7, #4]
 8004cf0:	223e      	movs	r2, #62	; 0x3e
 8004cf2:	2101      	movs	r1, #1
 8004cf4:	5499      	strb	r1, [r3, r2]
 8004cf6:	687b      	ldr	r3, [r7, #4]
 8004cf8:	223f      	movs	r2, #63	; 0x3f
 8004cfa:	2101      	movs	r1, #1
 8004cfc:	5499      	strb	r1, [r3, r2]
 8004cfe:	687b      	ldr	r3, [r7, #4]
 8004d00:	2240      	movs	r2, #64	; 0x40
 8004d02:	2101      	movs	r1, #1
 8004d04:	5499      	strb	r1, [r3, r2]
 8004d06:	687b      	ldr	r3, [r7, #4]
 8004d08:	2241      	movs	r2, #65	; 0x41
 8004d0a:	2101      	movs	r1, #1
 8004d0c:	5499      	strb	r1, [r3, r2]
 8004d0e:	687b      	ldr	r3, [r7, #4]
 8004d10:	2242      	movs	r2, #66	; 0x42
 8004d12:	2101      	movs	r1, #1
 8004d14:	5499      	strb	r1, [r3, r2]
 8004d16:	687b      	ldr	r3, [r7, #4]
 8004d18:	2243      	movs	r2, #67	; 0x43
 8004d1a:	2101      	movs	r1, #1
 8004d1c:	5499      	strb	r1, [r3, r2]
 8004d1e:	687b      	ldr	r3, [r7, #4]
 8004d20:	2244      	movs	r2, #68	; 0x44
 8004d22:	2101      	movs	r1, #1
 8004d24:	5499      	strb	r1, [r3, r2]
 8004d26:	687b      	ldr	r3, [r7, #4]
 8004d28:	2245      	movs	r2, #69	; 0x45
 8004d2a:	2101      	movs	r1, #1
 8004d2c:	5499      	strb	r1, [r3, r2]
 8004d2e:	687b      	ldr	r3, [r7, #4]
 8004d30:	223d      	movs	r2, #61	; 0x3d
 8004d32:	2101      	movs	r1, #1
 8004d34:	5499      	strb	r1, [r3, r2]
 8004d36:	2300      	movs	r3, #0
 8004d38:	0018      	movs	r0, r3
 8004d3a:	46bd      	mov	sp, r7
 8004d3c:	b002      	add	sp, #8
 8004d3e:	bd80      	pop	{r7, pc}

08004d40 <HAL_TIM_Base_MspInit>:
 8004d40:	b580      	push	{r7, lr}
 8004d42:	b082      	sub	sp, #8
 8004d44:	af00      	add	r7, sp, #0
 8004d46:	6078      	str	r0, [r7, #4]
 8004d48:	46c0      	nop			; (mov r8, r8)
 8004d4a:	46bd      	mov	sp, r7
 8004d4c:	b002      	add	sp, #8
 8004d4e:	bd80      	pop	{r7, pc}

08004d50 <HAL_TIM_Base_Start_IT>:
 8004d50:	b580      	push	{r7, lr}
 8004d52:	b084      	sub	sp, #16
 8004d54:	af00      	add	r7, sp, #0
 8004d56:	6078      	str	r0, [r7, #4]
 8004d58:	687b      	ldr	r3, [r7, #4]
 8004d5a:	223d      	movs	r2, #61	; 0x3d
 8004d5c:	5c9b      	ldrb	r3, [r3, r2]
 8004d5e:	b2db      	uxtb	r3, r3
 8004d60:	2b01      	cmp	r3, #1
 8004d62:	d001      	beq.n	8004d68 <HAL_TIM_Base_Start_IT+0x18>
 8004d64:	2301      	movs	r3, #1
 8004d66:	e035      	b.n	8004dd4 <HAL_TIM_Base_Start_IT+0x84>
 8004d68:	687b      	ldr	r3, [r7, #4]
 8004d6a:	223d      	movs	r2, #61	; 0x3d
 8004d6c:	2102      	movs	r1, #2
 8004d6e:	5499      	strb	r1, [r3, r2]
 8004d70:	687b      	ldr	r3, [r7, #4]
 8004d72:	681b      	ldr	r3, [r3, #0]
 8004d74:	68da      	ldr	r2, [r3, #12]
 8004d76:	687b      	ldr	r3, [r7, #4]
 8004d78:	681b      	ldr	r3, [r3, #0]
 8004d7a:	2101      	movs	r1, #1
 8004d7c:	430a      	orrs	r2, r1
 8004d7e:	60da      	str	r2, [r3, #12]
 8004d80:	687b      	ldr	r3, [r7, #4]
 8004d82:	681b      	ldr	r3, [r3, #0]
 8004d84:	4a15      	ldr	r2, [pc, #84]	; (8004ddc <HAL_TIM_Base_Start_IT+0x8c>)
 8004d86:	4293      	cmp	r3, r2
 8004d88:	d009      	beq.n	8004d9e <HAL_TIM_Base_Start_IT+0x4e>
 8004d8a:	687b      	ldr	r3, [r7, #4]
 8004d8c:	681b      	ldr	r3, [r3, #0]
 8004d8e:	4a14      	ldr	r2, [pc, #80]	; (8004de0 <HAL_TIM_Base_Start_IT+0x90>)
 8004d90:	4293      	cmp	r3, r2
 8004d92:	d004      	beq.n	8004d9e <HAL_TIM_Base_Start_IT+0x4e>
 8004d94:	687b      	ldr	r3, [r7, #4]
 8004d96:	681b      	ldr	r3, [r3, #0]
 8004d98:	4a12      	ldr	r2, [pc, #72]	; (8004de4 <HAL_TIM_Base_Start_IT+0x94>)
 8004d9a:	4293      	cmp	r3, r2
 8004d9c:	d111      	bne.n	8004dc2 <HAL_TIM_Base_Start_IT+0x72>
 8004d9e:	687b      	ldr	r3, [r7, #4]
 8004da0:	681b      	ldr	r3, [r3, #0]
 8004da2:	689b      	ldr	r3, [r3, #8]
 8004da4:	2207      	movs	r2, #7
 8004da6:	4013      	ands	r3, r2
 8004da8:	60fb      	str	r3, [r7, #12]
 8004daa:	68fb      	ldr	r3, [r7, #12]
 8004dac:	2b06      	cmp	r3, #6
 8004dae:	d010      	beq.n	8004dd2 <HAL_TIM_Base_Start_IT+0x82>
 8004db0:	687b      	ldr	r3, [r7, #4]
 8004db2:	681b      	ldr	r3, [r3, #0]
 8004db4:	681a      	ldr	r2, [r3, #0]
 8004db6:	687b      	ldr	r3, [r7, #4]
 8004db8:	681b      	ldr	r3, [r3, #0]
 8004dba:	2101      	movs	r1, #1
 8004dbc:	430a      	orrs	r2, r1
 8004dbe:	601a      	str	r2, [r3, #0]
 8004dc0:	e007      	b.n	8004dd2 <HAL_TIM_Base_Start_IT+0x82>
 8004dc2:	687b      	ldr	r3, [r7, #4]
 8004dc4:	681b      	ldr	r3, [r3, #0]
 8004dc6:	681a      	ldr	r2, [r3, #0]
 8004dc8:	687b      	ldr	r3, [r7, #4]
 8004dca:	681b      	ldr	r3, [r3, #0]
 8004dcc:	2101      	movs	r1, #1
 8004dce:	430a      	orrs	r2, r1
 8004dd0:	601a      	str	r2, [r3, #0]
 8004dd2:	2300      	movs	r3, #0
 8004dd4:	0018      	movs	r0, r3
 8004dd6:	46bd      	mov	sp, r7
 8004dd8:	b004      	add	sp, #16
 8004dda:	bd80      	pop	{r7, pc}
 8004ddc:	40012c00 	.word	0x40012c00
 8004de0:	40000400 	.word	0x40000400
 8004de4:	40014000 	.word	0x40014000

08004de8 <HAL_TIM_IRQHandler>:
 8004de8:	b580      	push	{r7, lr}
 8004dea:	b082      	sub	sp, #8
 8004dec:	af00      	add	r7, sp, #0
 8004dee:	6078      	str	r0, [r7, #4]
 8004df0:	687b      	ldr	r3, [r7, #4]
 8004df2:	681b      	ldr	r3, [r3, #0]
 8004df4:	691b      	ldr	r3, [r3, #16]
 8004df6:	2202      	movs	r2, #2
 8004df8:	4013      	ands	r3, r2
 8004dfa:	2b02      	cmp	r3, #2
 8004dfc:	d124      	bne.n	8004e48 <HAL_TIM_IRQHandler+0x60>
 8004dfe:	687b      	ldr	r3, [r7, #4]
 8004e00:	681b      	ldr	r3, [r3, #0]
 8004e02:	68db      	ldr	r3, [r3, #12]
 8004e04:	2202      	movs	r2, #2
 8004e06:	4013      	ands	r3, r2
 8004e08:	2b02      	cmp	r3, #2
 8004e0a:	d11d      	bne.n	8004e48 <HAL_TIM_IRQHandler+0x60>
 8004e0c:	687b      	ldr	r3, [r7, #4]
 8004e0e:	681b      	ldr	r3, [r3, #0]
 8004e10:	2203      	movs	r2, #3
 8004e12:	4252      	negs	r2, r2
 8004e14:	611a      	str	r2, [r3, #16]
 8004e16:	687b      	ldr	r3, [r7, #4]
 8004e18:	2201      	movs	r2, #1
 8004e1a:	771a      	strb	r2, [r3, #28]
 8004e1c:	687b      	ldr	r3, [r7, #4]
 8004e1e:	681b      	ldr	r3, [r3, #0]
 8004e20:	699b      	ldr	r3, [r3, #24]
 8004e22:	2203      	movs	r2, #3
 8004e24:	4013      	ands	r3, r2
 8004e26:	d004      	beq.n	8004e32 <HAL_TIM_IRQHandler+0x4a>
 8004e28:	687b      	ldr	r3, [r7, #4]
 8004e2a:	0018      	movs	r0, r3
 8004e2c:	f000 f8fa 	bl	8005024 <HAL_TIM_IC_CaptureCallback>
 8004e30:	e007      	b.n	8004e42 <HAL_TIM_IRQHandler+0x5a>
 8004e32:	687b      	ldr	r3, [r7, #4]
 8004e34:	0018      	movs	r0, r3
 8004e36:	f000 f8ed 	bl	8005014 <HAL_TIM_OC_DelayElapsedCallback>
 8004e3a:	687b      	ldr	r3, [r7, #4]
 8004e3c:	0018      	movs	r0, r3
 8004e3e:	f000 f8f9 	bl	8005034 <HAL_TIM_PWM_PulseFinishedCallback>
 8004e42:	687b      	ldr	r3, [r7, #4]
 8004e44:	2200      	movs	r2, #0
 8004e46:	771a      	strb	r2, [r3, #28]
 8004e48:	687b      	ldr	r3, [r7, #4]
 8004e4a:	681b      	ldr	r3, [r3, #0]
 8004e4c:	691b      	ldr	r3, [r3, #16]
 8004e4e:	2204      	movs	r2, #4
 8004e50:	4013      	ands	r3, r2
 8004e52:	2b04      	cmp	r3, #4
 8004e54:	d125      	bne.n	8004ea2 <HAL_TIM_IRQHandler+0xba>
 8004e56:	687b      	ldr	r3, [r7, #4]
 8004e58:	681b      	ldr	r3, [r3, #0]
 8004e5a:	68db      	ldr	r3, [r3, #12]
 8004e5c:	2204      	movs	r2, #4
 8004e5e:	4013      	ands	r3, r2
 8004e60:	2b04      	cmp	r3, #4
 8004e62:	d11e      	bne.n	8004ea2 <HAL_TIM_IRQHandler+0xba>
 8004e64:	687b      	ldr	r3, [r7, #4]
 8004e66:	681b      	ldr	r3, [r3, #0]
 8004e68:	2205      	movs	r2, #5
 8004e6a:	4252      	negs	r2, r2
 8004e6c:	611a      	str	r2, [r3, #16]
 8004e6e:	687b      	ldr	r3, [r7, #4]
 8004e70:	2202      	movs	r2, #2
 8004e72:	771a      	strb	r2, [r3, #28]
 8004e74:	687b      	ldr	r3, [r7, #4]
 8004e76:	681b      	ldr	r3, [r3, #0]
 8004e78:	699a      	ldr	r2, [r3, #24]
 8004e7a:	23c0      	movs	r3, #192	; 0xc0
 8004e7c:	009b      	lsls	r3, r3, #2
 8004e7e:	4013      	ands	r3, r2
 8004e80:	d004      	beq.n	8004e8c <HAL_TIM_IRQHandler+0xa4>
 8004e82:	687b      	ldr	r3, [r7, #4]
 8004e84:	0018      	movs	r0, r3
 8004e86:	f000 f8cd 	bl	8005024 <HAL_TIM_IC_CaptureCallback>
 8004e8a:	e007      	b.n	8004e9c <HAL_TIM_IRQHandler+0xb4>
 8004e8c:	687b      	ldr	r3, [r7, #4]
 8004e8e:	0018      	movs	r0, r3
 8004e90:	f000 f8c0 	bl	8005014 <HAL_TIM_OC_DelayElapsedCallback>
 8004e94:	687b      	ldr	r3, [r7, #4]
 8004e96:	0018      	movs	r0, r3
 8004e98:	f000 f8cc 	bl	8005034 <HAL_TIM_PWM_PulseFinishedCallback>
 8004e9c:	687b      	ldr	r3, [r7, #4]
 8004e9e:	2200      	movs	r2, #0
 8004ea0:	771a      	strb	r2, [r3, #28]
 8004ea2:	687b      	ldr	r3, [r7, #4]
 8004ea4:	681b      	ldr	r3, [r3, #0]
 8004ea6:	691b      	ldr	r3, [r3, #16]
 8004ea8:	2208      	movs	r2, #8
 8004eaa:	4013      	ands	r3, r2
 8004eac:	2b08      	cmp	r3, #8
 8004eae:	d124      	bne.n	8004efa <HAL_TIM_IRQHandler+0x112>
 8004eb0:	687b      	ldr	r3, [r7, #4]
 8004eb2:	681b      	ldr	r3, [r3, #0]
 8004eb4:	68db      	ldr	r3, [r3, #12]
 8004eb6:	2208      	movs	r2, #8
 8004eb8:	4013      	ands	r3, r2
 8004eba:	2b08      	cmp	r3, #8
 8004ebc:	d11d      	bne.n	8004efa <HAL_TIM_IRQHandler+0x112>
 8004ebe:	687b      	ldr	r3, [r7, #4]
 8004ec0:	681b      	ldr	r3, [r3, #0]
 8004ec2:	2209      	movs	r2, #9
 8004ec4:	4252      	negs	r2, r2
 8004ec6:	611a      	str	r2, [r3, #16]
 8004ec8:	687b      	ldr	r3, [r7, #4]
 8004eca:	2204      	movs	r2, #4
 8004ecc:	771a      	strb	r2, [r3, #28]
 8004ece:	687b      	ldr	r3, [r7, #4]
 8004ed0:	681b      	ldr	r3, [r3, #0]
 8004ed2:	69db      	ldr	r3, [r3, #28]
 8004ed4:	2203      	movs	r2, #3
 8004ed6:	4013      	ands	r3, r2
 8004ed8:	d004      	beq.n	8004ee4 <HAL_TIM_IRQHandler+0xfc>
 8004eda:	687b      	ldr	r3, [r7, #4]
 8004edc:	0018      	movs	r0, r3
 8004ede:	f000 f8a1 	bl	8005024 <HAL_TIM_IC_CaptureCallback>
 8004ee2:	e007      	b.n	8004ef4 <HAL_TIM_IRQHandler+0x10c>
 8004ee4:	687b      	ldr	r3, [r7, #4]
 8004ee6:	0018      	movs	r0, r3
 8004ee8:	f000 f894 	bl	8005014 <HAL_TIM_OC_DelayElapsedCallback>
 8004eec:	687b      	ldr	r3, [r7, #4]
 8004eee:	0018      	movs	r0, r3
 8004ef0:	f000 f8a0 	bl	8005034 <HAL_TIM_PWM_PulseFinishedCallback>
 8004ef4:	687b      	ldr	r3, [r7, #4]
 8004ef6:	2200      	movs	r2, #0
 8004ef8:	771a      	strb	r2, [r3, #28]
 8004efa:	687b      	ldr	r3, [r7, #4]
 8004efc:	681b      	ldr	r3, [r3, #0]
 8004efe:	691b      	ldr	r3, [r3, #16]
 8004f00:	2210      	movs	r2, #16
 8004f02:	4013      	ands	r3, r2
 8004f04:	2b10      	cmp	r3, #16
 8004f06:	d125      	bne.n	8004f54 <HAL_TIM_IRQHandler+0x16c>
 8004f08:	687b      	ldr	r3, [r7, #4]
 8004f0a:	681b      	ldr	r3, [r3, #0]
 8004f0c:	68db      	ldr	r3, [r3, #12]
 8004f0e:	2210      	movs	r2, #16
 8004f10:	4013      	ands	r3, r2
 8004f12:	2b10      	cmp	r3, #16
 8004f14:	d11e      	bne.n	8004f54 <HAL_TIM_IRQHandler+0x16c>
 8004f16:	687b      	ldr	r3, [r7, #4]
 8004f18:	681b      	ldr	r3, [r3, #0]
 8004f1a:	2211      	movs	r2, #17
 8004f1c:	4252      	negs	r2, r2
 8004f1e:	611a      	str	r2, [r3, #16]
 8004f20:	687b      	ldr	r3, [r7, #4]
 8004f22:	2208      	movs	r2, #8
 8004f24:	771a      	strb	r2, [r3, #28]
 8004f26:	687b      	ldr	r3, [r7, #4]
 8004f28:	681b      	ldr	r3, [r3, #0]
 8004f2a:	69da      	ldr	r2, [r3, #28]
 8004f2c:	23c0      	movs	r3, #192	; 0xc0
 8004f2e:	009b      	lsls	r3, r3, #2
 8004f30:	4013      	ands	r3, r2
 8004f32:	d004      	beq.n	8004f3e <HAL_TIM_IRQHandler+0x156>
 8004f34:	687b      	ldr	r3, [r7, #4]
 8004f36:	0018      	movs	r0, r3
 8004f38:	f000 f874 	bl	8005024 <HAL_TIM_IC_CaptureCallback>
 8004f3c:	e007      	b.n	8004f4e <HAL_TIM_IRQHandler+0x166>
 8004f3e:	687b      	ldr	r3, [r7, #4]
 8004f40:	0018      	movs	r0, r3
 8004f42:	f000 f867 	bl	8005014 <HAL_TIM_OC_DelayElapsedCallback>
 8004f46:	687b      	ldr	r3, [r7, #4]
 8004f48:	0018      	movs	r0, r3
 8004f4a:	f000 f873 	bl	8005034 <HAL_TIM_PWM_PulseFinishedCallback>
 8004f4e:	687b      	ldr	r3, [r7, #4]
 8004f50:	2200      	movs	r2, #0
 8004f52:	771a      	strb	r2, [r3, #28]
 8004f54:	687b      	ldr	r3, [r7, #4]
 8004f56:	681b      	ldr	r3, [r3, #0]
 8004f58:	691b      	ldr	r3, [r3, #16]
 8004f5a:	2201      	movs	r2, #1
 8004f5c:	4013      	ands	r3, r2
 8004f5e:	2b01      	cmp	r3, #1
 8004f60:	d10f      	bne.n	8004f82 <HAL_TIM_IRQHandler+0x19a>
 8004f62:	687b      	ldr	r3, [r7, #4]
 8004f64:	681b      	ldr	r3, [r3, #0]
 8004f66:	68db      	ldr	r3, [r3, #12]
 8004f68:	2201      	movs	r2, #1
 8004f6a:	4013      	ands	r3, r2
 8004f6c:	2b01      	cmp	r3, #1
 8004f6e:	d108      	bne.n	8004f82 <HAL_TIM_IRQHandler+0x19a>
 8004f70:	687b      	ldr	r3, [r7, #4]
 8004f72:	681b      	ldr	r3, [r3, #0]
 8004f74:	2202      	movs	r2, #2
 8004f76:	4252      	negs	r2, r2
 8004f78:	611a      	str	r2, [r3, #16]
 8004f7a:	687b      	ldr	r3, [r7, #4]
 8004f7c:	0018      	movs	r0, r3
 8004f7e:	f7fd ff3d 	bl	8002dfc <HAL_TIM_PeriodElapsedCallback>
 8004f82:	687b      	ldr	r3, [r7, #4]
 8004f84:	681b      	ldr	r3, [r3, #0]
 8004f86:	691b      	ldr	r3, [r3, #16]
 8004f88:	2280      	movs	r2, #128	; 0x80
 8004f8a:	4013      	ands	r3, r2
 8004f8c:	2b80      	cmp	r3, #128	; 0x80
 8004f8e:	d10f      	bne.n	8004fb0 <HAL_TIM_IRQHandler+0x1c8>
 8004f90:	687b      	ldr	r3, [r7, #4]
 8004f92:	681b      	ldr	r3, [r3, #0]
 8004f94:	68db      	ldr	r3, [r3, #12]
 8004f96:	2280      	movs	r2, #128	; 0x80
 8004f98:	4013      	ands	r3, r2
 8004f9a:	2b80      	cmp	r3, #128	; 0x80
 8004f9c:	d108      	bne.n	8004fb0 <HAL_TIM_IRQHandler+0x1c8>
 8004f9e:	687b      	ldr	r3, [r7, #4]
 8004fa0:	681b      	ldr	r3, [r3, #0]
 8004fa2:	2281      	movs	r2, #129	; 0x81
 8004fa4:	4252      	negs	r2, r2
 8004fa6:	611a      	str	r2, [r3, #16]
 8004fa8:	687b      	ldr	r3, [r7, #4]
 8004faa:	0018      	movs	r0, r3
 8004fac:	f000 f8d0 	bl	8005150 <HAL_TIMEx_BreakCallback>
 8004fb0:	687b      	ldr	r3, [r7, #4]
 8004fb2:	681b      	ldr	r3, [r3, #0]
 8004fb4:	691b      	ldr	r3, [r3, #16]
 8004fb6:	2240      	movs	r2, #64	; 0x40
 8004fb8:	4013      	ands	r3, r2
 8004fba:	2b40      	cmp	r3, #64	; 0x40
 8004fbc:	d10f      	bne.n	8004fde <HAL_TIM_IRQHandler+0x1f6>
 8004fbe:	687b      	ldr	r3, [r7, #4]
 8004fc0:	681b      	ldr	r3, [r3, #0]
 8004fc2:	68db      	ldr	r3, [r3, #12]
 8004fc4:	2240      	movs	r2, #64	; 0x40
 8004fc6:	4013      	ands	r3, r2
 8004fc8:	2b40      	cmp	r3, #64	; 0x40
 8004fca:	d108      	bne.n	8004fde <HAL_TIM_IRQHandler+0x1f6>
 8004fcc:	687b      	ldr	r3, [r7, #4]
 8004fce:	681b      	ldr	r3, [r3, #0]
 8004fd0:	2241      	movs	r2, #65	; 0x41
 8004fd2:	4252      	negs	r2, r2
 8004fd4:	611a      	str	r2, [r3, #16]
 8004fd6:	687b      	ldr	r3, [r7, #4]
 8004fd8:	0018      	movs	r0, r3
 8004fda:	f000 f833 	bl	8005044 <HAL_TIM_TriggerCallback>
 8004fde:	687b      	ldr	r3, [r7, #4]
 8004fe0:	681b      	ldr	r3, [r3, #0]
 8004fe2:	691b      	ldr	r3, [r3, #16]
 8004fe4:	2220      	movs	r2, #32
 8004fe6:	4013      	ands	r3, r2
 8004fe8:	2b20      	cmp	r3, #32
 8004fea:	d10f      	bne.n	800500c <HAL_TIM_IRQHandler+0x224>
 8004fec:	687b      	ldr	r3, [r7, #4]
 8004fee:	681b      	ldr	r3, [r3, #0]
 8004ff0:	68db      	ldr	r3, [r3, #12]
 8004ff2:	2220      	movs	r2, #32
 8004ff4:	4013      	ands	r3, r2
 8004ff6:	2b20      	cmp	r3, #32
 8004ff8:	d108      	bne.n	800500c <HAL_TIM_IRQHandler+0x224>
 8004ffa:	687b      	ldr	r3, [r7, #4]
 8004ffc:	681b      	ldr	r3, [r3, #0]
 8004ffe:	2221      	movs	r2, #33	; 0x21
 8005000:	4252      	negs	r2, r2
 8005002:	611a      	str	r2, [r3, #16]
 8005004:	687b      	ldr	r3, [r7, #4]
 8005006:	0018      	movs	r0, r3
 8005008:	f000 f89a 	bl	8005140 <HAL_TIMEx_CommutCallback>
 800500c:	46c0      	nop			; (mov r8, r8)
 800500e:	46bd      	mov	sp, r7
 8005010:	b002      	add	sp, #8
 8005012:	bd80      	pop	{r7, pc}

08005014 <HAL_TIM_OC_DelayElapsedCallback>:
 8005014:	b580      	push	{r7, lr}
 8005016:	b082      	sub	sp, #8
 8005018:	af00      	add	r7, sp, #0
 800501a:	6078      	str	r0, [r7, #4]
 800501c:	46c0      	nop			; (mov r8, r8)
 800501e:	46bd      	mov	sp, r7
 8005020:	b002      	add	sp, #8
 8005022:	bd80      	pop	{r7, pc}

08005024 <HAL_TIM_IC_CaptureCallback>:
 8005024:	b580      	push	{r7, lr}
 8005026:	b082      	sub	sp, #8
 8005028:	af00      	add	r7, sp, #0
 800502a:	6078      	str	r0, [r7, #4]
 800502c:	46c0      	nop			; (mov r8, r8)
 800502e:	46bd      	mov	sp, r7
 8005030:	b002      	add	sp, #8
 8005032:	bd80      	pop	{r7, pc}

08005034 <HAL_TIM_PWM_PulseFinishedCallback>:
 8005034:	b580      	push	{r7, lr}
 8005036:	b082      	sub	sp, #8
 8005038:	af00      	add	r7, sp, #0
 800503a:	6078      	str	r0, [r7, #4]
 800503c:	46c0      	nop			; (mov r8, r8)
 800503e:	46bd      	mov	sp, r7
 8005040:	b002      	add	sp, #8
 8005042:	bd80      	pop	{r7, pc}

08005044 <HAL_TIM_TriggerCallback>:
 8005044:	b580      	push	{r7, lr}
 8005046:	b082      	sub	sp, #8
 8005048:	af00      	add	r7, sp, #0
 800504a:	6078      	str	r0, [r7, #4]
 800504c:	46c0      	nop			; (mov r8, r8)
 800504e:	46bd      	mov	sp, r7
 8005050:	b002      	add	sp, #8
 8005052:	bd80      	pop	{r7, pc}

08005054 <TIM_Base_SetConfig>:
 8005054:	b580      	push	{r7, lr}
 8005056:	b084      	sub	sp, #16
 8005058:	af00      	add	r7, sp, #0
 800505a:	6078      	str	r0, [r7, #4]
 800505c:	6039      	str	r1, [r7, #0]
 800505e:	687b      	ldr	r3, [r7, #4]
 8005060:	681b      	ldr	r3, [r3, #0]
 8005062:	60fb      	str	r3, [r7, #12]
 8005064:	687b      	ldr	r3, [r7, #4]
 8005066:	4a2f      	ldr	r2, [pc, #188]	; (8005124 <TIM_Base_SetConfig+0xd0>)
 8005068:	4293      	cmp	r3, r2
 800506a:	d003      	beq.n	8005074 <TIM_Base_SetConfig+0x20>
 800506c:	687b      	ldr	r3, [r7, #4]
 800506e:	4a2e      	ldr	r2, [pc, #184]	; (8005128 <TIM_Base_SetConfig+0xd4>)
 8005070:	4293      	cmp	r3, r2
 8005072:	d108      	bne.n	8005086 <TIM_Base_SetConfig+0x32>
 8005074:	68fb      	ldr	r3, [r7, #12]
 8005076:	2270      	movs	r2, #112	; 0x70
 8005078:	4393      	bics	r3, r2
 800507a:	60fb      	str	r3, [r7, #12]
 800507c:	683b      	ldr	r3, [r7, #0]
 800507e:	685b      	ldr	r3, [r3, #4]
 8005080:	68fa      	ldr	r2, [r7, #12]
 8005082:	4313      	orrs	r3, r2
 8005084:	60fb      	str	r3, [r7, #12]
 8005086:	687b      	ldr	r3, [r7, #4]
 8005088:	4a26      	ldr	r2, [pc, #152]	; (8005124 <TIM_Base_SetConfig+0xd0>)
 800508a:	4293      	cmp	r3, r2
 800508c:	d013      	beq.n	80050b6 <TIM_Base_SetConfig+0x62>
 800508e:	687b      	ldr	r3, [r7, #4]
 8005090:	4a25      	ldr	r2, [pc, #148]	; (8005128 <TIM_Base_SetConfig+0xd4>)
 8005092:	4293      	cmp	r3, r2
 8005094:	d00f      	beq.n	80050b6 <TIM_Base_SetConfig+0x62>
 8005096:	687b      	ldr	r3, [r7, #4]
 8005098:	4a24      	ldr	r2, [pc, #144]	; (800512c <TIM_Base_SetConfig+0xd8>)
 800509a:	4293      	cmp	r3, r2
 800509c:	d00b      	beq.n	80050b6 <TIM_Base_SetConfig+0x62>
 800509e:	687b      	ldr	r3, [r7, #4]
 80050a0:	4a23      	ldr	r2, [pc, #140]	; (8005130 <TIM_Base_SetConfig+0xdc>)
 80050a2:	4293      	cmp	r3, r2
 80050a4:	d007      	beq.n	80050b6 <TIM_Base_SetConfig+0x62>
 80050a6:	687b      	ldr	r3, [r7, #4]
 80050a8:	4a22      	ldr	r2, [pc, #136]	; (8005134 <TIM_Base_SetConfig+0xe0>)
 80050aa:	4293      	cmp	r3, r2
 80050ac:	d003      	beq.n	80050b6 <TIM_Base_SetConfig+0x62>
 80050ae:	687b      	ldr	r3, [r7, #4]
 80050b0:	4a21      	ldr	r2, [pc, #132]	; (8005138 <TIM_Base_SetConfig+0xe4>)
 80050b2:	4293      	cmp	r3, r2
 80050b4:	d108      	bne.n	80050c8 <TIM_Base_SetConfig+0x74>
 80050b6:	68fb      	ldr	r3, [r7, #12]
 80050b8:	4a20      	ldr	r2, [pc, #128]	; (800513c <TIM_Base_SetConfig+0xe8>)
 80050ba:	4013      	ands	r3, r2
 80050bc:	60fb      	str	r3, [r7, #12]
 80050be:	683b      	ldr	r3, [r7, #0]
 80050c0:	68db      	ldr	r3, [r3, #12]
 80050c2:	68fa      	ldr	r2, [r7, #12]
 80050c4:	4313      	orrs	r3, r2
 80050c6:	60fb      	str	r3, [r7, #12]
 80050c8:	68fb      	ldr	r3, [r7, #12]
 80050ca:	2280      	movs	r2, #128	; 0x80
 80050cc:	4393      	bics	r3, r2
 80050ce:	001a      	movs	r2, r3
 80050d0:	683b      	ldr	r3, [r7, #0]
 80050d2:	695b      	ldr	r3, [r3, #20]
 80050d4:	4313      	orrs	r3, r2
 80050d6:	60fb      	str	r3, [r7, #12]
 80050d8:	687b      	ldr	r3, [r7, #4]
 80050da:	68fa      	ldr	r2, [r7, #12]
 80050dc:	601a      	str	r2, [r3, #0]
 80050de:	683b      	ldr	r3, [r7, #0]
 80050e0:	689a      	ldr	r2, [r3, #8]
 80050e2:	687b      	ldr	r3, [r7, #4]
 80050e4:	62da      	str	r2, [r3, #44]	; 0x2c
 80050e6:	683b      	ldr	r3, [r7, #0]
 80050e8:	681a      	ldr	r2, [r3, #0]
 80050ea:	687b      	ldr	r3, [r7, #4]
 80050ec:	629a      	str	r2, [r3, #40]	; 0x28
 80050ee:	687b      	ldr	r3, [r7, #4]
 80050f0:	4a0c      	ldr	r2, [pc, #48]	; (8005124 <TIM_Base_SetConfig+0xd0>)
 80050f2:	4293      	cmp	r3, r2
 80050f4:	d00b      	beq.n	800510e <TIM_Base_SetConfig+0xba>
 80050f6:	687b      	ldr	r3, [r7, #4]
 80050f8:	4a0d      	ldr	r2, [pc, #52]	; (8005130 <TIM_Base_SetConfig+0xdc>)
 80050fa:	4293      	cmp	r3, r2
 80050fc:	d007      	beq.n	800510e <TIM_Base_SetConfig+0xba>
 80050fe:	687b      	ldr	r3, [r7, #4]
 8005100:	4a0c      	ldr	r2, [pc, #48]	; (8005134 <TIM_Base_SetConfig+0xe0>)
 8005102:	4293      	cmp	r3, r2
 8005104:	d003      	beq.n	800510e <TIM_Base_SetConfig+0xba>
 8005106:	687b      	ldr	r3, [r7, #4]
 8005108:	4a0b      	ldr	r2, [pc, #44]	; (8005138 <TIM_Base_SetConfig+0xe4>)
 800510a:	4293      	cmp	r3, r2
 800510c:	d103      	bne.n	8005116 <TIM_Base_SetConfig+0xc2>
 800510e:	683b      	ldr	r3, [r7, #0]
 8005110:	691a      	ldr	r2, [r3, #16]
 8005112:	687b      	ldr	r3, [r7, #4]
 8005114:	631a      	str	r2, [r3, #48]	; 0x30
 8005116:	687b      	ldr	r3, [r7, #4]
 8005118:	2201      	movs	r2, #1
 800511a:	615a      	str	r2, [r3, #20]
 800511c:	46c0      	nop			; (mov r8, r8)
 800511e:	46bd      	mov	sp, r7
 8005120:	b004      	add	sp, #16
 8005122:	bd80      	pop	{r7, pc}
 8005124:	40012c00 	.word	0x40012c00
 8005128:	40000400 	.word	0x40000400
 800512c:	40002000 	.word	0x40002000
 8005130:	40014000 	.word	0x40014000
 8005134:	40014400 	.word	0x40014400
 8005138:	40014800 	.word	0x40014800
 800513c:	fffffcff 	.word	0xfffffcff

08005140 <HAL_TIMEx_CommutCallback>:
 8005140:	b580      	push	{r7, lr}
 8005142:	b082      	sub	sp, #8
 8005144:	af00      	add	r7, sp, #0
 8005146:	6078      	str	r0, [r7, #4]
 8005148:	46c0      	nop			; (mov r8, r8)
 800514a:	46bd      	mov	sp, r7
 800514c:	b002      	add	sp, #8
 800514e:	bd80      	pop	{r7, pc}

08005150 <HAL_TIMEx_BreakCallback>:
 8005150:	b580      	push	{r7, lr}
 8005152:	b082      	sub	sp, #8
 8005154:	af00      	add	r7, sp, #0
 8005156:	6078      	str	r0, [r7, #4]
 8005158:	46c0      	nop			; (mov r8, r8)
 800515a:	46bd      	mov	sp, r7
 800515c:	b002      	add	sp, #8
 800515e:	bd80      	pop	{r7, pc}

08005160 <HAL_UART_Init>:
 8005160:	b580      	push	{r7, lr}
 8005162:	b082      	sub	sp, #8
 8005164:	af00      	add	r7, sp, #0
 8005166:	6078      	str	r0, [r7, #4]
 8005168:	687b      	ldr	r3, [r7, #4]
 800516a:	2b00      	cmp	r3, #0
 800516c:	d101      	bne.n	8005172 <HAL_UART_Init+0x12>
 800516e:	2301      	movs	r3, #1
 8005170:	e044      	b.n	80051fc <HAL_UART_Init+0x9c>
 8005172:	687b      	ldr	r3, [r7, #4]
 8005174:	6f9b      	ldr	r3, [r3, #120]	; 0x78
 8005176:	2b00      	cmp	r3, #0
 8005178:	d107      	bne.n	800518a <HAL_UART_Init+0x2a>
 800517a:	687b      	ldr	r3, [r7, #4]
 800517c:	2274      	movs	r2, #116	; 0x74
 800517e:	2100      	movs	r1, #0
 8005180:	5499      	strb	r1, [r3, r2]
 8005182:	687b      	ldr	r3, [r7, #4]
 8005184:	0018      	movs	r0, r3
 8005186:	f7fd ff03 	bl	8002f90 <HAL_UART_MspInit>
 800518a:	687b      	ldr	r3, [r7, #4]
 800518c:	2224      	movs	r2, #36	; 0x24
 800518e:	679a      	str	r2, [r3, #120]	; 0x78
 8005190:	687b      	ldr	r3, [r7, #4]
 8005192:	681b      	ldr	r3, [r3, #0]
 8005194:	681a      	ldr	r2, [r3, #0]
 8005196:	687b      	ldr	r3, [r7, #4]
 8005198:	681b      	ldr	r3, [r3, #0]
 800519a:	2101      	movs	r1, #1
 800519c:	438a      	bics	r2, r1
 800519e:	601a      	str	r2, [r3, #0]
 80051a0:	687b      	ldr	r3, [r7, #4]
 80051a2:	0018      	movs	r0, r3
 80051a4:	f000 f9b6 	bl	8005514 <UART_SetConfig>
 80051a8:	0003      	movs	r3, r0
 80051aa:	2b01      	cmp	r3, #1
 80051ac:	d101      	bne.n	80051b2 <HAL_UART_Init+0x52>
 80051ae:	2301      	movs	r3, #1
 80051b0:	e024      	b.n	80051fc <HAL_UART_Init+0x9c>
 80051b2:	687b      	ldr	r3, [r7, #4]
 80051b4:	6a5b      	ldr	r3, [r3, #36]	; 0x24
 80051b6:	2b00      	cmp	r3, #0
 80051b8:	d003      	beq.n	80051c2 <HAL_UART_Init+0x62>
 80051ba:	687b      	ldr	r3, [r7, #4]
 80051bc:	0018      	movs	r0, r3
 80051be:	f000 fae9 	bl	8005794 <UART_AdvFeatureConfig>
 80051c2:	687b      	ldr	r3, [r7, #4]
 80051c4:	681b      	ldr	r3, [r3, #0]
 80051c6:	685a      	ldr	r2, [r3, #4]
 80051c8:	687b      	ldr	r3, [r7, #4]
 80051ca:	681b      	ldr	r3, [r3, #0]
 80051cc:	490d      	ldr	r1, [pc, #52]	; (8005204 <HAL_UART_Init+0xa4>)
 80051ce:	400a      	ands	r2, r1
 80051d0:	605a      	str	r2, [r3, #4]
 80051d2:	687b      	ldr	r3, [r7, #4]
 80051d4:	681b      	ldr	r3, [r3, #0]
 80051d6:	689a      	ldr	r2, [r3, #8]
 80051d8:	687b      	ldr	r3, [r7, #4]
 80051da:	681b      	ldr	r3, [r3, #0]
 80051dc:	2108      	movs	r1, #8
 80051de:	438a      	bics	r2, r1
 80051e0:	609a      	str	r2, [r3, #8]
 80051e2:	687b      	ldr	r3, [r7, #4]
 80051e4:	681b      	ldr	r3, [r3, #0]
 80051e6:	681a      	ldr	r2, [r3, #0]
 80051e8:	687b      	ldr	r3, [r7, #4]
 80051ea:	681b      	ldr	r3, [r3, #0]
 80051ec:	2101      	movs	r1, #1
 80051ee:	430a      	orrs	r2, r1
 80051f0:	601a      	str	r2, [r3, #0]
 80051f2:	687b      	ldr	r3, [r7, #4]
 80051f4:	0018      	movs	r0, r3
 80051f6:	f000 fb81 	bl	80058fc <UART_CheckIdleState>
 80051fa:	0003      	movs	r3, r0
 80051fc:	0018      	movs	r0, r3
 80051fe:	46bd      	mov	sp, r7
 8005200:	b002      	add	sp, #8
 8005202:	bd80      	pop	{r7, pc}
 8005204:	fffff7ff 	.word	0xfffff7ff

08005208 <HAL_UART_Transmit>:
 8005208:	b580      	push	{r7, lr}
 800520a:	b08a      	sub	sp, #40	; 0x28
 800520c:	af02      	add	r7, sp, #8
 800520e:	60f8      	str	r0, [r7, #12]
 8005210:	60b9      	str	r1, [r7, #8]
 8005212:	603b      	str	r3, [r7, #0]
 8005214:	1dbb      	adds	r3, r7, #6
 8005216:	801a      	strh	r2, [r3, #0]
 8005218:	68fb      	ldr	r3, [r7, #12]
 800521a:	6f9b      	ldr	r3, [r3, #120]	; 0x78
 800521c:	2b20      	cmp	r3, #32
 800521e:	d000      	beq.n	8005222 <HAL_UART_Transmit+0x1a>
 8005220:	e096      	b.n	8005350 <HAL_UART_Transmit+0x148>
 8005222:	68bb      	ldr	r3, [r7, #8]
 8005224:	2b00      	cmp	r3, #0
 8005226:	d003      	beq.n	8005230 <HAL_UART_Transmit+0x28>
 8005228:	1dbb      	adds	r3, r7, #6
 800522a:	881b      	ldrh	r3, [r3, #0]
 800522c:	2b00      	cmp	r3, #0
 800522e:	d101      	bne.n	8005234 <HAL_UART_Transmit+0x2c>
 8005230:	2301      	movs	r3, #1
 8005232:	e08e      	b.n	8005352 <HAL_UART_Transmit+0x14a>
 8005234:	68fb      	ldr	r3, [r7, #12]
 8005236:	689a      	ldr	r2, [r3, #8]
 8005238:	2380      	movs	r3, #128	; 0x80
 800523a:	015b      	lsls	r3, r3, #5
 800523c:	429a      	cmp	r2, r3
 800523e:	d109      	bne.n	8005254 <HAL_UART_Transmit+0x4c>
 8005240:	68fb      	ldr	r3, [r7, #12]
 8005242:	691b      	ldr	r3, [r3, #16]
 8005244:	2b00      	cmp	r3, #0
 8005246:	d105      	bne.n	8005254 <HAL_UART_Transmit+0x4c>
 8005248:	68bb      	ldr	r3, [r7, #8]
 800524a:	2201      	movs	r2, #1
 800524c:	4013      	ands	r3, r2
 800524e:	d001      	beq.n	8005254 <HAL_UART_Transmit+0x4c>
 8005250:	2301      	movs	r3, #1
 8005252:	e07e      	b.n	8005352 <HAL_UART_Transmit+0x14a>
 8005254:	68fb      	ldr	r3, [r7, #12]
 8005256:	2274      	movs	r2, #116	; 0x74
 8005258:	5c9b      	ldrb	r3, [r3, r2]
 800525a:	2b01      	cmp	r3, #1
 800525c:	d101      	bne.n	8005262 <HAL_UART_Transmit+0x5a>
 800525e:	2302      	movs	r3, #2
 8005260:	e077      	b.n	8005352 <HAL_UART_Transmit+0x14a>
 8005262:	68fb      	ldr	r3, [r7, #12]
 8005264:	2274      	movs	r2, #116	; 0x74
 8005266:	2101      	movs	r1, #1
 8005268:	5499      	strb	r1, [r3, r2]
 800526a:	68fb      	ldr	r3, [r7, #12]
 800526c:	2280      	movs	r2, #128	; 0x80
 800526e:	2100      	movs	r1, #0
 8005270:	5099      	str	r1, [r3, r2]
 8005272:	68fb      	ldr	r3, [r7, #12]
 8005274:	2221      	movs	r2, #33	; 0x21
 8005276:	679a      	str	r2, [r3, #120]	; 0x78
 8005278:	f7fe f80e 	bl	8003298 <HAL_GetTick>
 800527c:	0003      	movs	r3, r0
 800527e:	617b      	str	r3, [r7, #20]
 8005280:	68fb      	ldr	r3, [r7, #12]
 8005282:	1dba      	adds	r2, r7, #6
 8005284:	2150      	movs	r1, #80	; 0x50
 8005286:	8812      	ldrh	r2, [r2, #0]
 8005288:	525a      	strh	r2, [r3, r1]
 800528a:	68fb      	ldr	r3, [r7, #12]
 800528c:	1dba      	adds	r2, r7, #6
 800528e:	2152      	movs	r1, #82	; 0x52
 8005290:	8812      	ldrh	r2, [r2, #0]
 8005292:	525a      	strh	r2, [r3, r1]
 8005294:	68fb      	ldr	r3, [r7, #12]
 8005296:	689a      	ldr	r2, [r3, #8]
 8005298:	2380      	movs	r3, #128	; 0x80
 800529a:	015b      	lsls	r3, r3, #5
 800529c:	429a      	cmp	r2, r3
 800529e:	d108      	bne.n	80052b2 <HAL_UART_Transmit+0xaa>
 80052a0:	68fb      	ldr	r3, [r7, #12]
 80052a2:	691b      	ldr	r3, [r3, #16]
 80052a4:	2b00      	cmp	r3, #0
 80052a6:	d104      	bne.n	80052b2 <HAL_UART_Transmit+0xaa>
 80052a8:	2300      	movs	r3, #0
 80052aa:	61fb      	str	r3, [r7, #28]
 80052ac:	68bb      	ldr	r3, [r7, #8]
 80052ae:	61bb      	str	r3, [r7, #24]
 80052b0:	e003      	b.n	80052ba <HAL_UART_Transmit+0xb2>
 80052b2:	68bb      	ldr	r3, [r7, #8]
 80052b4:	61fb      	str	r3, [r7, #28]
 80052b6:	2300      	movs	r3, #0
 80052b8:	61bb      	str	r3, [r7, #24]
 80052ba:	68fb      	ldr	r3, [r7, #12]
 80052bc:	2274      	movs	r2, #116	; 0x74
 80052be:	2100      	movs	r1, #0
 80052c0:	5499      	strb	r1, [r3, r2]
 80052c2:	e02d      	b.n	8005320 <HAL_UART_Transmit+0x118>
 80052c4:	697a      	ldr	r2, [r7, #20]
 80052c6:	68f8      	ldr	r0, [r7, #12]
 80052c8:	683b      	ldr	r3, [r7, #0]
 80052ca:	9300      	str	r3, [sp, #0]
 80052cc:	0013      	movs	r3, r2
 80052ce:	2200      	movs	r2, #0
 80052d0:	2180      	movs	r1, #128	; 0x80
 80052d2:	f000 fb5b 	bl	800598c <UART_WaitOnFlagUntilTimeout>
 80052d6:	1e03      	subs	r3, r0, #0
 80052d8:	d001      	beq.n	80052de <HAL_UART_Transmit+0xd6>
 80052da:	2303      	movs	r3, #3
 80052dc:	e039      	b.n	8005352 <HAL_UART_Transmit+0x14a>
 80052de:	69fb      	ldr	r3, [r7, #28]
 80052e0:	2b00      	cmp	r3, #0
 80052e2:	d10b      	bne.n	80052fc <HAL_UART_Transmit+0xf4>
 80052e4:	69bb      	ldr	r3, [r7, #24]
 80052e6:	881a      	ldrh	r2, [r3, #0]
 80052e8:	68fb      	ldr	r3, [r7, #12]
 80052ea:	681b      	ldr	r3, [r3, #0]
 80052ec:	05d2      	lsls	r2, r2, #23
 80052ee:	0dd2      	lsrs	r2, r2, #23
 80052f0:	b292      	uxth	r2, r2
 80052f2:	851a      	strh	r2, [r3, #40]	; 0x28
 80052f4:	69bb      	ldr	r3, [r7, #24]
 80052f6:	3302      	adds	r3, #2
 80052f8:	61bb      	str	r3, [r7, #24]
 80052fa:	e008      	b.n	800530e <HAL_UART_Transmit+0x106>
 80052fc:	69fb      	ldr	r3, [r7, #28]
 80052fe:	781a      	ldrb	r2, [r3, #0]
 8005300:	68fb      	ldr	r3, [r7, #12]
 8005302:	681b      	ldr	r3, [r3, #0]
 8005304:	b292      	uxth	r2, r2
 8005306:	851a      	strh	r2, [r3, #40]	; 0x28
 8005308:	69fb      	ldr	r3, [r7, #28]
 800530a:	3301      	adds	r3, #1
 800530c:	61fb      	str	r3, [r7, #28]
 800530e:	68fb      	ldr	r3, [r7, #12]
 8005310:	2252      	movs	r2, #82	; 0x52
 8005312:	5a9b      	ldrh	r3, [r3, r2]
 8005314:	b29b      	uxth	r3, r3
 8005316:	3b01      	subs	r3, #1
 8005318:	b299      	uxth	r1, r3
 800531a:	68fb      	ldr	r3, [r7, #12]
 800531c:	2252      	movs	r2, #82	; 0x52
 800531e:	5299      	strh	r1, [r3, r2]
 8005320:	68fb      	ldr	r3, [r7, #12]
 8005322:	2252      	movs	r2, #82	; 0x52
 8005324:	5a9b      	ldrh	r3, [r3, r2]
 8005326:	b29b      	uxth	r3, r3
 8005328:	2b00      	cmp	r3, #0
 800532a:	d1cb      	bne.n	80052c4 <HAL_UART_Transmit+0xbc>
 800532c:	697a      	ldr	r2, [r7, #20]
 800532e:	68f8      	ldr	r0, [r7, #12]
 8005330:	683b      	ldr	r3, [r7, #0]
 8005332:	9300      	str	r3, [sp, #0]
 8005334:	0013      	movs	r3, r2
 8005336:	2200      	movs	r2, #0
 8005338:	2140      	movs	r1, #64	; 0x40
 800533a:	f000 fb27 	bl	800598c <UART_WaitOnFlagUntilTimeout>
 800533e:	1e03      	subs	r3, r0, #0
 8005340:	d001      	beq.n	8005346 <HAL_UART_Transmit+0x13e>
 8005342:	2303      	movs	r3, #3
 8005344:	e005      	b.n	8005352 <HAL_UART_Transmit+0x14a>
 8005346:	68fb      	ldr	r3, [r7, #12]
 8005348:	2220      	movs	r2, #32
 800534a:	679a      	str	r2, [r3, #120]	; 0x78
 800534c:	2300      	movs	r3, #0
 800534e:	e000      	b.n	8005352 <HAL_UART_Transmit+0x14a>
 8005350:	2302      	movs	r3, #2
 8005352:	0018      	movs	r0, r3
 8005354:	46bd      	mov	sp, r7
 8005356:	b008      	add	sp, #32
 8005358:	bd80      	pop	{r7, pc}
	...

0800535c <HAL_UART_Receive>:
 800535c:	b580      	push	{r7, lr}
 800535e:	b08a      	sub	sp, #40	; 0x28
 8005360:	af02      	add	r7, sp, #8
 8005362:	60f8      	str	r0, [r7, #12]
 8005364:	60b9      	str	r1, [r7, #8]
 8005366:	603b      	str	r3, [r7, #0]
 8005368:	1dbb      	adds	r3, r7, #6
 800536a:	801a      	strh	r2, [r3, #0]
 800536c:	68fb      	ldr	r3, [r7, #12]
 800536e:	6fdb      	ldr	r3, [r3, #124]	; 0x7c
 8005370:	2b20      	cmp	r3, #32
 8005372:	d000      	beq.n	8005376 <HAL_UART_Receive+0x1a>
 8005374:	e0c6      	b.n	8005504 <HAL_UART_Receive+0x1a8>
 8005376:	68bb      	ldr	r3, [r7, #8]
 8005378:	2b00      	cmp	r3, #0
 800537a:	d003      	beq.n	8005384 <HAL_UART_Receive+0x28>
 800537c:	1dbb      	adds	r3, r7, #6
 800537e:	881b      	ldrh	r3, [r3, #0]
 8005380:	2b00      	cmp	r3, #0
 8005382:	d101      	bne.n	8005388 <HAL_UART_Receive+0x2c>
 8005384:	2301      	movs	r3, #1
 8005386:	e0be      	b.n	8005506 <HAL_UART_Receive+0x1aa>
 8005388:	68fb      	ldr	r3, [r7, #12]
 800538a:	689a      	ldr	r2, [r3, #8]
 800538c:	2380      	movs	r3, #128	; 0x80
 800538e:	015b      	lsls	r3, r3, #5
 8005390:	429a      	cmp	r2, r3
 8005392:	d109      	bne.n	80053a8 <HAL_UART_Receive+0x4c>
 8005394:	68fb      	ldr	r3, [r7, #12]
 8005396:	691b      	ldr	r3, [r3, #16]
 8005398:	2b00      	cmp	r3, #0
 800539a:	d105      	bne.n	80053a8 <HAL_UART_Receive+0x4c>
 800539c:	68bb      	ldr	r3, [r7, #8]
 800539e:	2201      	movs	r2, #1
 80053a0:	4013      	ands	r3, r2
 80053a2:	d001      	beq.n	80053a8 <HAL_UART_Receive+0x4c>
 80053a4:	2301      	movs	r3, #1
 80053a6:	e0ae      	b.n	8005506 <HAL_UART_Receive+0x1aa>
 80053a8:	68fb      	ldr	r3, [r7, #12]
 80053aa:	2274      	movs	r2, #116	; 0x74
 80053ac:	5c9b      	ldrb	r3, [r3, r2]
 80053ae:	2b01      	cmp	r3, #1
 80053b0:	d101      	bne.n	80053b6 <HAL_UART_Receive+0x5a>
 80053b2:	2302      	movs	r3, #2
 80053b4:	e0a7      	b.n	8005506 <HAL_UART_Receive+0x1aa>
 80053b6:	68fb      	ldr	r3, [r7, #12]
 80053b8:	2274      	movs	r2, #116	; 0x74
 80053ba:	2101      	movs	r1, #1
 80053bc:	5499      	strb	r1, [r3, r2]
 80053be:	68fb      	ldr	r3, [r7, #12]
 80053c0:	2280      	movs	r2, #128	; 0x80
 80053c2:	2100      	movs	r1, #0
 80053c4:	5099      	str	r1, [r3, r2]
 80053c6:	68fb      	ldr	r3, [r7, #12]
 80053c8:	2222      	movs	r2, #34	; 0x22
 80053ca:	67da      	str	r2, [r3, #124]	; 0x7c
 80053cc:	68fb      	ldr	r3, [r7, #12]
 80053ce:	2200      	movs	r2, #0
 80053d0:	661a      	str	r2, [r3, #96]	; 0x60
 80053d2:	f7fd ff61 	bl	8003298 <HAL_GetTick>
 80053d6:	0003      	movs	r3, r0
 80053d8:	617b      	str	r3, [r7, #20]
 80053da:	68fb      	ldr	r3, [r7, #12]
 80053dc:	1dba      	adds	r2, r7, #6
 80053de:	2158      	movs	r1, #88	; 0x58
 80053e0:	8812      	ldrh	r2, [r2, #0]
 80053e2:	525a      	strh	r2, [r3, r1]
 80053e4:	68fb      	ldr	r3, [r7, #12]
 80053e6:	1dba      	adds	r2, r7, #6
 80053e8:	215a      	movs	r1, #90	; 0x5a
 80053ea:	8812      	ldrh	r2, [r2, #0]
 80053ec:	525a      	strh	r2, [r3, r1]
 80053ee:	68fb      	ldr	r3, [r7, #12]
 80053f0:	689a      	ldr	r2, [r3, #8]
 80053f2:	2380      	movs	r3, #128	; 0x80
 80053f4:	015b      	lsls	r3, r3, #5
 80053f6:	429a      	cmp	r2, r3
 80053f8:	d10d      	bne.n	8005416 <HAL_UART_Receive+0xba>
 80053fa:	68fb      	ldr	r3, [r7, #12]
 80053fc:	691b      	ldr	r3, [r3, #16]
 80053fe:	2b00      	cmp	r3, #0
 8005400:	d104      	bne.n	800540c <HAL_UART_Receive+0xb0>
 8005402:	68fb      	ldr	r3, [r7, #12]
 8005404:	225c      	movs	r2, #92	; 0x5c
 8005406:	4942      	ldr	r1, [pc, #264]	; (8005510 <HAL_UART_Receive+0x1b4>)
 8005408:	5299      	strh	r1, [r3, r2]
 800540a:	e01a      	b.n	8005442 <HAL_UART_Receive+0xe6>
 800540c:	68fb      	ldr	r3, [r7, #12]
 800540e:	225c      	movs	r2, #92	; 0x5c
 8005410:	21ff      	movs	r1, #255	; 0xff
 8005412:	5299      	strh	r1, [r3, r2]
 8005414:	e015      	b.n	8005442 <HAL_UART_Receive+0xe6>
 8005416:	68fb      	ldr	r3, [r7, #12]
 8005418:	689b      	ldr	r3, [r3, #8]
 800541a:	2b00      	cmp	r3, #0
 800541c:	d10d      	bne.n	800543a <HAL_UART_Receive+0xde>
 800541e:	68fb      	ldr	r3, [r7, #12]
 8005420:	691b      	ldr	r3, [r3, #16]
 8005422:	2b00      	cmp	r3, #0
 8005424:	d104      	bne.n	8005430 <HAL_UART_Receive+0xd4>
 8005426:	68fb      	ldr	r3, [r7, #12]
 8005428:	225c      	movs	r2, #92	; 0x5c
 800542a:	21ff      	movs	r1, #255	; 0xff
 800542c:	5299      	strh	r1, [r3, r2]
 800542e:	e008      	b.n	8005442 <HAL_UART_Receive+0xe6>
 8005430:	68fb      	ldr	r3, [r7, #12]
 8005432:	225c      	movs	r2, #92	; 0x5c
 8005434:	217f      	movs	r1, #127	; 0x7f
 8005436:	5299      	strh	r1, [r3, r2]
 8005438:	e003      	b.n	8005442 <HAL_UART_Receive+0xe6>
 800543a:	68fb      	ldr	r3, [r7, #12]
 800543c:	225c      	movs	r2, #92	; 0x5c
 800543e:	2100      	movs	r1, #0
 8005440:	5299      	strh	r1, [r3, r2]
 8005442:	2312      	movs	r3, #18
 8005444:	18fb      	adds	r3, r7, r3
 8005446:	68fa      	ldr	r2, [r7, #12]
 8005448:	215c      	movs	r1, #92	; 0x5c
 800544a:	5a52      	ldrh	r2, [r2, r1]
 800544c:	801a      	strh	r2, [r3, #0]
 800544e:	68fb      	ldr	r3, [r7, #12]
 8005450:	689a      	ldr	r2, [r3, #8]
 8005452:	2380      	movs	r3, #128	; 0x80
 8005454:	015b      	lsls	r3, r3, #5
 8005456:	429a      	cmp	r2, r3
 8005458:	d108      	bne.n	800546c <HAL_UART_Receive+0x110>
 800545a:	68fb      	ldr	r3, [r7, #12]
 800545c:	691b      	ldr	r3, [r3, #16]
 800545e:	2b00      	cmp	r3, #0
 8005460:	d104      	bne.n	800546c <HAL_UART_Receive+0x110>
 8005462:	2300      	movs	r3, #0
 8005464:	61fb      	str	r3, [r7, #28]
 8005466:	68bb      	ldr	r3, [r7, #8]
 8005468:	61bb      	str	r3, [r7, #24]
 800546a:	e003      	b.n	8005474 <HAL_UART_Receive+0x118>
 800546c:	68bb      	ldr	r3, [r7, #8]
 800546e:	61fb      	str	r3, [r7, #28]
 8005470:	2300      	movs	r3, #0
 8005472:	61bb      	str	r3, [r7, #24]
 8005474:	68fb      	ldr	r3, [r7, #12]
 8005476:	2274      	movs	r2, #116	; 0x74
 8005478:	2100      	movs	r1, #0
 800547a:	5499      	strb	r1, [r3, r2]
 800547c:	e037      	b.n	80054ee <HAL_UART_Receive+0x192>
 800547e:	697a      	ldr	r2, [r7, #20]
 8005480:	68f8      	ldr	r0, [r7, #12]
 8005482:	683b      	ldr	r3, [r7, #0]
 8005484:	9300      	str	r3, [sp, #0]
 8005486:	0013      	movs	r3, r2
 8005488:	2200      	movs	r2, #0
 800548a:	2120      	movs	r1, #32
 800548c:	f000 fa7e 	bl	800598c <UART_WaitOnFlagUntilTimeout>
 8005490:	1e03      	subs	r3, r0, #0
 8005492:	d001      	beq.n	8005498 <HAL_UART_Receive+0x13c>
 8005494:	2303      	movs	r3, #3
 8005496:	e036      	b.n	8005506 <HAL_UART_Receive+0x1aa>
 8005498:	69fb      	ldr	r3, [r7, #28]
 800549a:	2b00      	cmp	r3, #0
 800549c:	d10e      	bne.n	80054bc <HAL_UART_Receive+0x160>
 800549e:	68fb      	ldr	r3, [r7, #12]
 80054a0:	681b      	ldr	r3, [r3, #0]
 80054a2:	8c9b      	ldrh	r3, [r3, #36]	; 0x24
 80054a4:	b29b      	uxth	r3, r3
 80054a6:	2212      	movs	r2, #18
 80054a8:	18ba      	adds	r2, r7, r2
 80054aa:	8812      	ldrh	r2, [r2, #0]
 80054ac:	4013      	ands	r3, r2
 80054ae:	b29a      	uxth	r2, r3
 80054b0:	69bb      	ldr	r3, [r7, #24]
 80054b2:	801a      	strh	r2, [r3, #0]
 80054b4:	69bb      	ldr	r3, [r7, #24]
 80054b6:	3302      	adds	r3, #2
 80054b8:	61bb      	str	r3, [r7, #24]
 80054ba:	e00f      	b.n	80054dc <HAL_UART_Receive+0x180>
 80054bc:	68fb      	ldr	r3, [r7, #12]
 80054be:	681b      	ldr	r3, [r3, #0]
 80054c0:	8c9b      	ldrh	r3, [r3, #36]	; 0x24
 80054c2:	b29b      	uxth	r3, r3
 80054c4:	b2db      	uxtb	r3, r3
 80054c6:	2212      	movs	r2, #18
 80054c8:	18ba      	adds	r2, r7, r2
 80054ca:	8812      	ldrh	r2, [r2, #0]
 80054cc:	b2d2      	uxtb	r2, r2
 80054ce:	4013      	ands	r3, r2
 80054d0:	b2da      	uxtb	r2, r3
 80054d2:	69fb      	ldr	r3, [r7, #28]
 80054d4:	701a      	strb	r2, [r3, #0]
 80054d6:	69fb      	ldr	r3, [r7, #28]
 80054d8:	3301      	adds	r3, #1
 80054da:	61fb      	str	r3, [r7, #28]
 80054dc:	68fb      	ldr	r3, [r7, #12]
 80054de:	225a      	movs	r2, #90	; 0x5a
 80054e0:	5a9b      	ldrh	r3, [r3, r2]
 80054e2:	b29b      	uxth	r3, r3
 80054e4:	3b01      	subs	r3, #1
 80054e6:	b299      	uxth	r1, r3
 80054e8:	68fb      	ldr	r3, [r7, #12]
 80054ea:	225a      	movs	r2, #90	; 0x5a
 80054ec:	5299      	strh	r1, [r3, r2]
 80054ee:	68fb      	ldr	r3, [r7, #12]
 80054f0:	225a      	movs	r2, #90	; 0x5a
 80054f2:	5a9b      	ldrh	r3, [r3, r2]
 80054f4:	b29b      	uxth	r3, r3
 80054f6:	2b00      	cmp	r3, #0
 80054f8:	d1c1      	bne.n	800547e <HAL_UART_Receive+0x122>
 80054fa:	68fb      	ldr	r3, [r7, #12]
 80054fc:	2220      	movs	r2, #32
 80054fe:	67da      	str	r2, [r3, #124]	; 0x7c
 8005500:	2300      	movs	r3, #0
 8005502:	e000      	b.n	8005506 <HAL_UART_Receive+0x1aa>
 8005504:	2302      	movs	r3, #2
 8005506:	0018      	movs	r0, r3
 8005508:	46bd      	mov	sp, r7
 800550a:	b008      	add	sp, #32
 800550c:	bd80      	pop	{r7, pc}
 800550e:	46c0      	nop			; (mov r8, r8)
 8005510:	000001ff 	.word	0x000001ff

08005514 <UART_SetConfig>:
 8005514:	b580      	push	{r7, lr}
 8005516:	b088      	sub	sp, #32
 8005518:	af00      	add	r7, sp, #0
 800551a:	6078      	str	r0, [r7, #4]
 800551c:	231e      	movs	r3, #30
 800551e:	18fb      	adds	r3, r7, r3
 8005520:	2200      	movs	r2, #0
 8005522:	701a      	strb	r2, [r3, #0]
 8005524:	687b      	ldr	r3, [r7, #4]
 8005526:	689a      	ldr	r2, [r3, #8]
 8005528:	687b      	ldr	r3, [r7, #4]
 800552a:	691b      	ldr	r3, [r3, #16]
 800552c:	431a      	orrs	r2, r3
 800552e:	687b      	ldr	r3, [r7, #4]
 8005530:	695b      	ldr	r3, [r3, #20]
 8005532:	431a      	orrs	r2, r3
 8005534:	687b      	ldr	r3, [r7, #4]
 8005536:	69db      	ldr	r3, [r3, #28]
 8005538:	4313      	orrs	r3, r2
 800553a:	617b      	str	r3, [r7, #20]
 800553c:	687b      	ldr	r3, [r7, #4]
 800553e:	681b      	ldr	r3, [r3, #0]
 8005540:	681b      	ldr	r3, [r3, #0]
 8005542:	4a8d      	ldr	r2, [pc, #564]	; (8005778 <UART_SetConfig+0x264>)
 8005544:	4013      	ands	r3, r2
 8005546:	0019      	movs	r1, r3
 8005548:	687b      	ldr	r3, [r7, #4]
 800554a:	681b      	ldr	r3, [r3, #0]
 800554c:	697a      	ldr	r2, [r7, #20]
 800554e:	430a      	orrs	r2, r1
 8005550:	601a      	str	r2, [r3, #0]
 8005552:	687b      	ldr	r3, [r7, #4]
 8005554:	681b      	ldr	r3, [r3, #0]
 8005556:	685b      	ldr	r3, [r3, #4]
 8005558:	4a88      	ldr	r2, [pc, #544]	; (800577c <UART_SetConfig+0x268>)
 800555a:	4013      	ands	r3, r2
 800555c:	0019      	movs	r1, r3
 800555e:	687b      	ldr	r3, [r7, #4]
 8005560:	68da      	ldr	r2, [r3, #12]
 8005562:	687b      	ldr	r3, [r7, #4]
 8005564:	681b      	ldr	r3, [r3, #0]
 8005566:	430a      	orrs	r2, r1
 8005568:	605a      	str	r2, [r3, #4]
 800556a:	687b      	ldr	r3, [r7, #4]
 800556c:	699b      	ldr	r3, [r3, #24]
 800556e:	617b      	str	r3, [r7, #20]
 8005570:	687b      	ldr	r3, [r7, #4]
 8005572:	6a1b      	ldr	r3, [r3, #32]
 8005574:	697a      	ldr	r2, [r7, #20]
 8005576:	4313      	orrs	r3, r2
 8005578:	617b      	str	r3, [r7, #20]
 800557a:	687b      	ldr	r3, [r7, #4]
 800557c:	681b      	ldr	r3, [r3, #0]
 800557e:	689b      	ldr	r3, [r3, #8]
 8005580:	4a7f      	ldr	r2, [pc, #508]	; (8005780 <UART_SetConfig+0x26c>)
 8005582:	4013      	ands	r3, r2
 8005584:	0019      	movs	r1, r3
 8005586:	687b      	ldr	r3, [r7, #4]
 8005588:	681b      	ldr	r3, [r3, #0]
 800558a:	697a      	ldr	r2, [r7, #20]
 800558c:	430a      	orrs	r2, r1
 800558e:	609a      	str	r2, [r3, #8]
 8005590:	687b      	ldr	r3, [r7, #4]
 8005592:	681b      	ldr	r3, [r3, #0]
 8005594:	4a7b      	ldr	r2, [pc, #492]	; (8005784 <UART_SetConfig+0x270>)
 8005596:	4293      	cmp	r3, r2
 8005598:	d127      	bne.n	80055ea <UART_SetConfig+0xd6>
 800559a:	4b7b      	ldr	r3, [pc, #492]	; (8005788 <UART_SetConfig+0x274>)
 800559c:	6b1b      	ldr	r3, [r3, #48]	; 0x30
 800559e:	2203      	movs	r2, #3
 80055a0:	4013      	ands	r3, r2
 80055a2:	2b03      	cmp	r3, #3
 80055a4:	d00d      	beq.n	80055c2 <UART_SetConfig+0xae>
 80055a6:	d81b      	bhi.n	80055e0 <UART_SetConfig+0xcc>
 80055a8:	2b02      	cmp	r3, #2
 80055aa:	d014      	beq.n	80055d6 <UART_SetConfig+0xc2>
 80055ac:	d818      	bhi.n	80055e0 <UART_SetConfig+0xcc>
 80055ae:	2b00      	cmp	r3, #0
 80055b0:	d002      	beq.n	80055b8 <UART_SetConfig+0xa4>
 80055b2:	2b01      	cmp	r3, #1
 80055b4:	d00a      	beq.n	80055cc <UART_SetConfig+0xb8>
 80055b6:	e013      	b.n	80055e0 <UART_SetConfig+0xcc>
 80055b8:	231f      	movs	r3, #31
 80055ba:	18fb      	adds	r3, r7, r3
 80055bc:	2200      	movs	r2, #0
 80055be:	701a      	strb	r2, [r3, #0]
 80055c0:	e021      	b.n	8005606 <UART_SetConfig+0xf2>
 80055c2:	231f      	movs	r3, #31
 80055c4:	18fb      	adds	r3, r7, r3
 80055c6:	2202      	movs	r2, #2
 80055c8:	701a      	strb	r2, [r3, #0]
 80055ca:	e01c      	b.n	8005606 <UART_SetConfig+0xf2>
 80055cc:	231f      	movs	r3, #31
 80055ce:	18fb      	adds	r3, r7, r3
 80055d0:	2204      	movs	r2, #4
 80055d2:	701a      	strb	r2, [r3, #0]
 80055d4:	e017      	b.n	8005606 <UART_SetConfig+0xf2>
 80055d6:	231f      	movs	r3, #31
 80055d8:	18fb      	adds	r3, r7, r3
 80055da:	2208      	movs	r2, #8
 80055dc:	701a      	strb	r2, [r3, #0]
 80055de:	e012      	b.n	8005606 <UART_SetConfig+0xf2>
 80055e0:	231f      	movs	r3, #31
 80055e2:	18fb      	adds	r3, r7, r3
 80055e4:	2210      	movs	r2, #16
 80055e6:	701a      	strb	r2, [r3, #0]
 80055e8:	e00d      	b.n	8005606 <UART_SetConfig+0xf2>
 80055ea:	687b      	ldr	r3, [r7, #4]
 80055ec:	681b      	ldr	r3, [r3, #0]
 80055ee:	4a67      	ldr	r2, [pc, #412]	; (800578c <UART_SetConfig+0x278>)
 80055f0:	4293      	cmp	r3, r2
 80055f2:	d104      	bne.n	80055fe <UART_SetConfig+0xea>
 80055f4:	231f      	movs	r3, #31
 80055f6:	18fb      	adds	r3, r7, r3
 80055f8:	2200      	movs	r2, #0
 80055fa:	701a      	strb	r2, [r3, #0]
 80055fc:	e003      	b.n	8005606 <UART_SetConfig+0xf2>
 80055fe:	231f      	movs	r3, #31
 8005600:	18fb      	adds	r3, r7, r3
 8005602:	2210      	movs	r2, #16
 8005604:	701a      	strb	r2, [r3, #0]
 8005606:	687b      	ldr	r3, [r7, #4]
 8005608:	69da      	ldr	r2, [r3, #28]
 800560a:	2380      	movs	r3, #128	; 0x80
 800560c:	021b      	lsls	r3, r3, #8
 800560e:	429a      	cmp	r2, r3
 8005610:	d15d      	bne.n	80056ce <UART_SetConfig+0x1ba>
 8005612:	231f      	movs	r3, #31
 8005614:	18fb      	adds	r3, r7, r3
 8005616:	781b      	ldrb	r3, [r3, #0]
 8005618:	2b08      	cmp	r3, #8
 800561a:	d015      	beq.n	8005648 <UART_SetConfig+0x134>
 800561c:	dc18      	bgt.n	8005650 <UART_SetConfig+0x13c>
 800561e:	2b04      	cmp	r3, #4
 8005620:	d00d      	beq.n	800563e <UART_SetConfig+0x12a>
 8005622:	dc15      	bgt.n	8005650 <UART_SetConfig+0x13c>
 8005624:	2b00      	cmp	r3, #0
 8005626:	d002      	beq.n	800562e <UART_SetConfig+0x11a>
 8005628:	2b02      	cmp	r3, #2
 800562a:	d005      	beq.n	8005638 <UART_SetConfig+0x124>
 800562c:	e010      	b.n	8005650 <UART_SetConfig+0x13c>
 800562e:	f7ff fa29 	bl	8004a84 <HAL_RCC_GetPCLK1Freq>
 8005632:	0003      	movs	r3, r0
 8005634:	61bb      	str	r3, [r7, #24]
 8005636:	e012      	b.n	800565e <UART_SetConfig+0x14a>
 8005638:	4b55      	ldr	r3, [pc, #340]	; (8005790 <UART_SetConfig+0x27c>)
 800563a:	61bb      	str	r3, [r7, #24]
 800563c:	e00f      	b.n	800565e <UART_SetConfig+0x14a>
 800563e:	f7ff f9b3 	bl	80049a8 <HAL_RCC_GetSysClockFreq>
 8005642:	0003      	movs	r3, r0
 8005644:	61bb      	str	r3, [r7, #24]
 8005646:	e00a      	b.n	800565e <UART_SetConfig+0x14a>
 8005648:	2380      	movs	r3, #128	; 0x80
 800564a:	021b      	lsls	r3, r3, #8
 800564c:	61bb      	str	r3, [r7, #24]
 800564e:	e006      	b.n	800565e <UART_SetConfig+0x14a>
 8005650:	2300      	movs	r3, #0
 8005652:	61bb      	str	r3, [r7, #24]
 8005654:	231e      	movs	r3, #30
 8005656:	18fb      	adds	r3, r7, r3
 8005658:	2201      	movs	r2, #1
 800565a:	701a      	strb	r2, [r3, #0]
 800565c:	46c0      	nop			; (mov r8, r8)
 800565e:	69bb      	ldr	r3, [r7, #24]
 8005660:	2b00      	cmp	r3, #0
 8005662:	d100      	bne.n	8005666 <UART_SetConfig+0x152>
 8005664:	e07b      	b.n	800575e <UART_SetConfig+0x24a>
 8005666:	69bb      	ldr	r3, [r7, #24]
 8005668:	005a      	lsls	r2, r3, #1
 800566a:	687b      	ldr	r3, [r7, #4]
 800566c:	685b      	ldr	r3, [r3, #4]
 800566e:	085b      	lsrs	r3, r3, #1
 8005670:	18d2      	adds	r2, r2, r3
 8005672:	687b      	ldr	r3, [r7, #4]
 8005674:	685b      	ldr	r3, [r3, #4]
 8005676:	0019      	movs	r1, r3
 8005678:	0010      	movs	r0, r2
 800567a:	f7fa fd57 	bl	800012c <__udivsi3>
 800567e:	0003      	movs	r3, r0
 8005680:	b29b      	uxth	r3, r3
 8005682:	613b      	str	r3, [r7, #16]
 8005684:	693b      	ldr	r3, [r7, #16]
 8005686:	2b0f      	cmp	r3, #15
 8005688:	d91c      	bls.n	80056c4 <UART_SetConfig+0x1b0>
 800568a:	693a      	ldr	r2, [r7, #16]
 800568c:	2380      	movs	r3, #128	; 0x80
 800568e:	025b      	lsls	r3, r3, #9
 8005690:	429a      	cmp	r2, r3
 8005692:	d217      	bcs.n	80056c4 <UART_SetConfig+0x1b0>
 8005694:	693b      	ldr	r3, [r7, #16]
 8005696:	b29a      	uxth	r2, r3
 8005698:	200e      	movs	r0, #14
 800569a:	183b      	adds	r3, r7, r0
 800569c:	210f      	movs	r1, #15
 800569e:	438a      	bics	r2, r1
 80056a0:	801a      	strh	r2, [r3, #0]
 80056a2:	693b      	ldr	r3, [r7, #16]
 80056a4:	085b      	lsrs	r3, r3, #1
 80056a6:	b29b      	uxth	r3, r3
 80056a8:	2207      	movs	r2, #7
 80056aa:	4013      	ands	r3, r2
 80056ac:	b299      	uxth	r1, r3
 80056ae:	183b      	adds	r3, r7, r0
 80056b0:	183a      	adds	r2, r7, r0
 80056b2:	8812      	ldrh	r2, [r2, #0]
 80056b4:	430a      	orrs	r2, r1
 80056b6:	801a      	strh	r2, [r3, #0]
 80056b8:	687b      	ldr	r3, [r7, #4]
 80056ba:	681b      	ldr	r3, [r3, #0]
 80056bc:	183a      	adds	r2, r7, r0
 80056be:	8812      	ldrh	r2, [r2, #0]
 80056c0:	60da      	str	r2, [r3, #12]
 80056c2:	e04c      	b.n	800575e <UART_SetConfig+0x24a>
 80056c4:	231e      	movs	r3, #30
 80056c6:	18fb      	adds	r3, r7, r3
 80056c8:	2201      	movs	r2, #1
 80056ca:	701a      	strb	r2, [r3, #0]
 80056cc:	e047      	b.n	800575e <UART_SetConfig+0x24a>
 80056ce:	231f      	movs	r3, #31
 80056d0:	18fb      	adds	r3, r7, r3
 80056d2:	781b      	ldrb	r3, [r3, #0]
 80056d4:	2b08      	cmp	r3, #8
 80056d6:	d015      	beq.n	8005704 <UART_SetConfig+0x1f0>
 80056d8:	dc18      	bgt.n	800570c <UART_SetConfig+0x1f8>
 80056da:	2b04      	cmp	r3, #4
 80056dc:	d00d      	beq.n	80056fa <UART_SetConfig+0x1e6>
 80056de:	dc15      	bgt.n	800570c <UART_SetConfig+0x1f8>
 80056e0:	2b00      	cmp	r3, #0
 80056e2:	d002      	beq.n	80056ea <UART_SetConfig+0x1d6>
 80056e4:	2b02      	cmp	r3, #2
 80056e6:	d005      	beq.n	80056f4 <UART_SetConfig+0x1e0>
 80056e8:	e010      	b.n	800570c <UART_SetConfig+0x1f8>
 80056ea:	f7ff f9cb 	bl	8004a84 <HAL_RCC_GetPCLK1Freq>
 80056ee:	0003      	movs	r3, r0
 80056f0:	61bb      	str	r3, [r7, #24]
 80056f2:	e012      	b.n	800571a <UART_SetConfig+0x206>
 80056f4:	4b26      	ldr	r3, [pc, #152]	; (8005790 <UART_SetConfig+0x27c>)
 80056f6:	61bb      	str	r3, [r7, #24]
 80056f8:	e00f      	b.n	800571a <UART_SetConfig+0x206>
 80056fa:	f7ff f955 	bl	80049a8 <HAL_RCC_GetSysClockFreq>
 80056fe:	0003      	movs	r3, r0
 8005700:	61bb      	str	r3, [r7, #24]
 8005702:	e00a      	b.n	800571a <UART_SetConfig+0x206>
 8005704:	2380      	movs	r3, #128	; 0x80
 8005706:	021b      	lsls	r3, r3, #8
 8005708:	61bb      	str	r3, [r7, #24]
 800570a:	e006      	b.n	800571a <UART_SetConfig+0x206>
 800570c:	2300      	movs	r3, #0
 800570e:	61bb      	str	r3, [r7, #24]
 8005710:	231e      	movs	r3, #30
 8005712:	18fb      	adds	r3, r7, r3
 8005714:	2201      	movs	r2, #1
 8005716:	701a      	strb	r2, [r3, #0]
 8005718:	46c0      	nop			; (mov r8, r8)
 800571a:	69bb      	ldr	r3, [r7, #24]
 800571c:	2b00      	cmp	r3, #0
 800571e:	d01e      	beq.n	800575e <UART_SetConfig+0x24a>
 8005720:	687b      	ldr	r3, [r7, #4]
 8005722:	685b      	ldr	r3, [r3, #4]
 8005724:	085a      	lsrs	r2, r3, #1
 8005726:	69bb      	ldr	r3, [r7, #24]
 8005728:	18d2      	adds	r2, r2, r3
 800572a:	687b      	ldr	r3, [r7, #4]
 800572c:	685b      	ldr	r3, [r3, #4]
 800572e:	0019      	movs	r1, r3
 8005730:	0010      	movs	r0, r2
 8005732:	f7fa fcfb 	bl	800012c <__udivsi3>
 8005736:	0003      	movs	r3, r0
 8005738:	b29b      	uxth	r3, r3
 800573a:	613b      	str	r3, [r7, #16]
 800573c:	693b      	ldr	r3, [r7, #16]
 800573e:	2b0f      	cmp	r3, #15
 8005740:	d909      	bls.n	8005756 <UART_SetConfig+0x242>
 8005742:	693a      	ldr	r2, [r7, #16]
 8005744:	2380      	movs	r3, #128	; 0x80
 8005746:	025b      	lsls	r3, r3, #9
 8005748:	429a      	cmp	r2, r3
 800574a:	d204      	bcs.n	8005756 <UART_SetConfig+0x242>
 800574c:	687b      	ldr	r3, [r7, #4]
 800574e:	681b      	ldr	r3, [r3, #0]
 8005750:	693a      	ldr	r2, [r7, #16]
 8005752:	60da      	str	r2, [r3, #12]
 8005754:	e003      	b.n	800575e <UART_SetConfig+0x24a>
 8005756:	231e      	movs	r3, #30
 8005758:	18fb      	adds	r3, r7, r3
 800575a:	2201      	movs	r2, #1
 800575c:	701a      	strb	r2, [r3, #0]
 800575e:	687b      	ldr	r3, [r7, #4]
 8005760:	2200      	movs	r2, #0
 8005762:	665a      	str	r2, [r3, #100]	; 0x64
 8005764:	687b      	ldr	r3, [r7, #4]
 8005766:	2200      	movs	r2, #0
 8005768:	669a      	str	r2, [r3, #104]	; 0x68
 800576a:	231e      	movs	r3, #30
 800576c:	18fb      	adds	r3, r7, r3
 800576e:	781b      	ldrb	r3, [r3, #0]
 8005770:	0018      	movs	r0, r3
 8005772:	46bd      	mov	sp, r7
 8005774:	b008      	add	sp, #32
 8005776:	bd80      	pop	{r7, pc}
 8005778:	ffff69f3 	.word	0xffff69f3
 800577c:	ffffcfff 	.word	0xffffcfff
 8005780:	fffff4ff 	.word	0xfffff4ff
 8005784:	40013800 	.word	0x40013800
 8005788:	40021000 	.word	0x40021000
 800578c:	40004400 	.word	0x40004400
 8005790:	007a1200 	.word	0x007a1200

08005794 <UART_AdvFeatureConfig>:
 8005794:	b580      	push	{r7, lr}
 8005796:	b082      	sub	sp, #8
 8005798:	af00      	add	r7, sp, #0
 800579a:	6078      	str	r0, [r7, #4]
 800579c:	687b      	ldr	r3, [r7, #4]
 800579e:	6a5b      	ldr	r3, [r3, #36]	; 0x24
 80057a0:	2201      	movs	r2, #1
 80057a2:	4013      	ands	r3, r2
 80057a4:	d00b      	beq.n	80057be <UART_AdvFeatureConfig+0x2a>
 80057a6:	687b      	ldr	r3, [r7, #4]
 80057a8:	681b      	ldr	r3, [r3, #0]
 80057aa:	685b      	ldr	r3, [r3, #4]
 80057ac:	4a4a      	ldr	r2, [pc, #296]	; (80058d8 <UART_AdvFeatureConfig+0x144>)
 80057ae:	4013      	ands	r3, r2
 80057b0:	0019      	movs	r1, r3
 80057b2:	687b      	ldr	r3, [r7, #4]
 80057b4:	6a9a      	ldr	r2, [r3, #40]	; 0x28
 80057b6:	687b      	ldr	r3, [r7, #4]
 80057b8:	681b      	ldr	r3, [r3, #0]
 80057ba:	430a      	orrs	r2, r1
 80057bc:	605a      	str	r2, [r3, #4]
 80057be:	687b      	ldr	r3, [r7, #4]
 80057c0:	6a5b      	ldr	r3, [r3, #36]	; 0x24
 80057c2:	2202      	movs	r2, #2
 80057c4:	4013      	ands	r3, r2
 80057c6:	d00b      	beq.n	80057e0 <UART_AdvFeatureConfig+0x4c>
 80057c8:	687b      	ldr	r3, [r7, #4]
 80057ca:	681b      	ldr	r3, [r3, #0]
 80057cc:	685b      	ldr	r3, [r3, #4]
 80057ce:	4a43      	ldr	r2, [pc, #268]	; (80058dc <UART_AdvFeatureConfig+0x148>)
 80057d0:	4013      	ands	r3, r2
 80057d2:	0019      	movs	r1, r3
 80057d4:	687b      	ldr	r3, [r7, #4]
 80057d6:	6ada      	ldr	r2, [r3, #44]	; 0x2c
 80057d8:	687b      	ldr	r3, [r7, #4]
 80057da:	681b      	ldr	r3, [r3, #0]
 80057dc:	430a      	orrs	r2, r1
 80057de:	605a      	str	r2, [r3, #4]
 80057e0:	687b      	ldr	r3, [r7, #4]
 80057e2:	6a5b      	ldr	r3, [r3, #36]	; 0x24
 80057e4:	2204      	movs	r2, #4
 80057e6:	4013      	ands	r3, r2
 80057e8:	d00b      	beq.n	8005802 <UART_AdvFeatureConfig+0x6e>
 80057ea:	687b      	ldr	r3, [r7, #4]
 80057ec:	681b      	ldr	r3, [r3, #0]
 80057ee:	685b      	ldr	r3, [r3, #4]
 80057f0:	4a3b      	ldr	r2, [pc, #236]	; (80058e0 <UART_AdvFeatureConfig+0x14c>)
 80057f2:	4013      	ands	r3, r2
 80057f4:	0019      	movs	r1, r3
 80057f6:	687b      	ldr	r3, [r7, #4]
 80057f8:	6b1a      	ldr	r2, [r3, #48]	; 0x30
 80057fa:	687b      	ldr	r3, [r7, #4]
 80057fc:	681b      	ldr	r3, [r3, #0]
 80057fe:	430a      	orrs	r2, r1
 8005800:	605a      	str	r2, [r3, #4]
 8005802:	687b      	ldr	r3, [r7, #4]
 8005804:	6a5b      	ldr	r3, [r3, #36]	; 0x24
 8005806:	2208      	movs	r2, #8
 8005808:	4013      	ands	r3, r2
 800580a:	d00b      	beq.n	8005824 <UART_AdvFeatureConfig+0x90>
 800580c:	687b      	ldr	r3, [r7, #4]
 800580e:	681b      	ldr	r3, [r3, #0]
 8005810:	685b      	ldr	r3, [r3, #4]
 8005812:	4a34      	ldr	r2, [pc, #208]	; (80058e4 <UART_AdvFeatureConfig+0x150>)
 8005814:	4013      	ands	r3, r2
 8005816:	0019      	movs	r1, r3
 8005818:	687b      	ldr	r3, [r7, #4]
 800581a:	6b5a      	ldr	r2, [r3, #52]	; 0x34
 800581c:	687b      	ldr	r3, [r7, #4]
 800581e:	681b      	ldr	r3, [r3, #0]
 8005820:	430a      	orrs	r2, r1
 8005822:	605a      	str	r2, [r3, #4]
 8005824:	687b      	ldr	r3, [r7, #4]
 8005826:	6a5b      	ldr	r3, [r3, #36]	; 0x24
 8005828:	2210      	movs	r2, #16
 800582a:	4013      	ands	r3, r2
 800582c:	d00b      	beq.n	8005846 <UART_AdvFeatureConfig+0xb2>
 800582e:	687b      	ldr	r3, [r7, #4]
 8005830:	681b      	ldr	r3, [r3, #0]
 8005832:	689b      	ldr	r3, [r3, #8]
 8005834:	4a2c      	ldr	r2, [pc, #176]	; (80058e8 <UART_AdvFeatureConfig+0x154>)
 8005836:	4013      	ands	r3, r2
 8005838:	0019      	movs	r1, r3
 800583a:	687b      	ldr	r3, [r7, #4]
 800583c:	6b9a      	ldr	r2, [r3, #56]	; 0x38
 800583e:	687b      	ldr	r3, [r7, #4]
 8005840:	681b      	ldr	r3, [r3, #0]
 8005842:	430a      	orrs	r2, r1
 8005844:	609a      	str	r2, [r3, #8]
 8005846:	687b      	ldr	r3, [r7, #4]
 8005848:	6a5b      	ldr	r3, [r3, #36]	; 0x24
 800584a:	2220      	movs	r2, #32
 800584c:	4013      	ands	r3, r2
 800584e:	d00b      	beq.n	8005868 <UART_AdvFeatureConfig+0xd4>
 8005850:	687b      	ldr	r3, [r7, #4]
 8005852:	681b      	ldr	r3, [r3, #0]
 8005854:	689b      	ldr	r3, [r3, #8]
 8005856:	4a25      	ldr	r2, [pc, #148]	; (80058ec <UART_AdvFeatureConfig+0x158>)
 8005858:	4013      	ands	r3, r2
 800585a:	0019      	movs	r1, r3
 800585c:	687b      	ldr	r3, [r7, #4]
 800585e:	6bda      	ldr	r2, [r3, #60]	; 0x3c
 8005860:	687b      	ldr	r3, [r7, #4]
 8005862:	681b      	ldr	r3, [r3, #0]
 8005864:	430a      	orrs	r2, r1
 8005866:	609a      	str	r2, [r3, #8]
 8005868:	687b      	ldr	r3, [r7, #4]
 800586a:	6a5b      	ldr	r3, [r3, #36]	; 0x24
 800586c:	2240      	movs	r2, #64	; 0x40
 800586e:	4013      	ands	r3, r2
 8005870:	d01d      	beq.n	80058ae <UART_AdvFeatureConfig+0x11a>
 8005872:	687b      	ldr	r3, [r7, #4]
 8005874:	681b      	ldr	r3, [r3, #0]
 8005876:	685b      	ldr	r3, [r3, #4]
 8005878:	4a1d      	ldr	r2, [pc, #116]	; (80058f0 <UART_AdvFeatureConfig+0x15c>)
 800587a:	4013      	ands	r3, r2
 800587c:	0019      	movs	r1, r3
 800587e:	687b      	ldr	r3, [r7, #4]
 8005880:	6c1a      	ldr	r2, [r3, #64]	; 0x40
 8005882:	687b      	ldr	r3, [r7, #4]
 8005884:	681b      	ldr	r3, [r3, #0]
 8005886:	430a      	orrs	r2, r1
 8005888:	605a      	str	r2, [r3, #4]
 800588a:	687b      	ldr	r3, [r7, #4]
 800588c:	6c1a      	ldr	r2, [r3, #64]	; 0x40
 800588e:	2380      	movs	r3, #128	; 0x80
 8005890:	035b      	lsls	r3, r3, #13
 8005892:	429a      	cmp	r2, r3
 8005894:	d10b      	bne.n	80058ae <UART_AdvFeatureConfig+0x11a>
 8005896:	687b      	ldr	r3, [r7, #4]
 8005898:	681b      	ldr	r3, [r3, #0]
 800589a:	685b      	ldr	r3, [r3, #4]
 800589c:	4a15      	ldr	r2, [pc, #84]	; (80058f4 <UART_AdvFeatureConfig+0x160>)
 800589e:	4013      	ands	r3, r2
 80058a0:	0019      	movs	r1, r3
 80058a2:	687b      	ldr	r3, [r7, #4]
 80058a4:	6c5a      	ldr	r2, [r3, #68]	; 0x44
 80058a6:	687b      	ldr	r3, [r7, #4]
 80058a8:	681b      	ldr	r3, [r3, #0]
 80058aa:	430a      	orrs	r2, r1
 80058ac:	605a      	str	r2, [r3, #4]
 80058ae:	687b      	ldr	r3, [r7, #4]
 80058b0:	6a5b      	ldr	r3, [r3, #36]	; 0x24
 80058b2:	2280      	movs	r2, #128	; 0x80
 80058b4:	4013      	ands	r3, r2
 80058b6:	d00b      	beq.n	80058d0 <UART_AdvFeatureConfig+0x13c>
 80058b8:	687b      	ldr	r3, [r7, #4]
 80058ba:	681b      	ldr	r3, [r3, #0]
 80058bc:	685b      	ldr	r3, [r3, #4]
 80058be:	4a0e      	ldr	r2, [pc, #56]	; (80058f8 <UART_AdvFeatureConfig+0x164>)
 80058c0:	4013      	ands	r3, r2
 80058c2:	0019      	movs	r1, r3
 80058c4:	687b      	ldr	r3, [r7, #4]
 80058c6:	6c9a      	ldr	r2, [r3, #72]	; 0x48
 80058c8:	687b      	ldr	r3, [r7, #4]
 80058ca:	681b      	ldr	r3, [r3, #0]
 80058cc:	430a      	orrs	r2, r1
 80058ce:	605a      	str	r2, [r3, #4]
 80058d0:	46c0      	nop			; (mov r8, r8)
 80058d2:	46bd      	mov	sp, r7
 80058d4:	b002      	add	sp, #8
 80058d6:	bd80      	pop	{r7, pc}
 80058d8:	fffdffff 	.word	0xfffdffff
 80058dc:	fffeffff 	.word	0xfffeffff
 80058e0:	fffbffff 	.word	0xfffbffff
 80058e4:	ffff7fff 	.word	0xffff7fff
 80058e8:	ffffefff 	.word	0xffffefff
 80058ec:	ffffdfff 	.word	0xffffdfff
 80058f0:	ffefffff 	.word	0xffefffff
 80058f4:	ff9fffff 	.word	0xff9fffff
 80058f8:	fff7ffff 	.word	0xfff7ffff

080058fc <UART_CheckIdleState>:
 80058fc:	b580      	push	{r7, lr}
 80058fe:	b086      	sub	sp, #24
 8005900:	af02      	add	r7, sp, #8
 8005902:	6078      	str	r0, [r7, #4]
 8005904:	687b      	ldr	r3, [r7, #4]
 8005906:	2280      	movs	r2, #128	; 0x80
 8005908:	2100      	movs	r1, #0
 800590a:	5099      	str	r1, [r3, r2]
 800590c:	f7fd fcc4 	bl	8003298 <HAL_GetTick>
 8005910:	0003      	movs	r3, r0
 8005912:	60fb      	str	r3, [r7, #12]
 8005914:	687b      	ldr	r3, [r7, #4]
 8005916:	681b      	ldr	r3, [r3, #0]
 8005918:	681b      	ldr	r3, [r3, #0]
 800591a:	2208      	movs	r2, #8
 800591c:	4013      	ands	r3, r2
 800591e:	2b08      	cmp	r3, #8
 8005920:	d10c      	bne.n	800593c <UART_CheckIdleState+0x40>
 8005922:	68fb      	ldr	r3, [r7, #12]
 8005924:	2280      	movs	r2, #128	; 0x80
 8005926:	0391      	lsls	r1, r2, #14
 8005928:	6878      	ldr	r0, [r7, #4]
 800592a:	4a17      	ldr	r2, [pc, #92]	; (8005988 <UART_CheckIdleState+0x8c>)
 800592c:	9200      	str	r2, [sp, #0]
 800592e:	2200      	movs	r2, #0
 8005930:	f000 f82c 	bl	800598c <UART_WaitOnFlagUntilTimeout>
 8005934:	1e03      	subs	r3, r0, #0
 8005936:	d001      	beq.n	800593c <UART_CheckIdleState+0x40>
 8005938:	2303      	movs	r3, #3
 800593a:	e021      	b.n	8005980 <UART_CheckIdleState+0x84>
 800593c:	687b      	ldr	r3, [r7, #4]
 800593e:	681b      	ldr	r3, [r3, #0]
 8005940:	681b      	ldr	r3, [r3, #0]
 8005942:	2204      	movs	r2, #4
 8005944:	4013      	ands	r3, r2
 8005946:	2b04      	cmp	r3, #4
 8005948:	d10c      	bne.n	8005964 <UART_CheckIdleState+0x68>
 800594a:	68fb      	ldr	r3, [r7, #12]
 800594c:	2280      	movs	r2, #128	; 0x80
 800594e:	03d1      	lsls	r1, r2, #15
 8005950:	6878      	ldr	r0, [r7, #4]
 8005952:	4a0d      	ldr	r2, [pc, #52]	; (8005988 <UART_CheckIdleState+0x8c>)
 8005954:	9200      	str	r2, [sp, #0]
 8005956:	2200      	movs	r2, #0
 8005958:	f000 f818 	bl	800598c <UART_WaitOnFlagUntilTimeout>
 800595c:	1e03      	subs	r3, r0, #0
 800595e:	d001      	beq.n	8005964 <UART_CheckIdleState+0x68>
 8005960:	2303      	movs	r3, #3
 8005962:	e00d      	b.n	8005980 <UART_CheckIdleState+0x84>
 8005964:	687b      	ldr	r3, [r7, #4]
 8005966:	2220      	movs	r2, #32
 8005968:	679a      	str	r2, [r3, #120]	; 0x78
 800596a:	687b      	ldr	r3, [r7, #4]
 800596c:	2220      	movs	r2, #32
 800596e:	67da      	str	r2, [r3, #124]	; 0x7c
 8005970:	687b      	ldr	r3, [r7, #4]
 8005972:	2200      	movs	r2, #0
 8005974:	661a      	str	r2, [r3, #96]	; 0x60
 8005976:	687b      	ldr	r3, [r7, #4]
 8005978:	2274      	movs	r2, #116	; 0x74
 800597a:	2100      	movs	r1, #0
 800597c:	5499      	strb	r1, [r3, r2]
 800597e:	2300      	movs	r3, #0
 8005980:	0018      	movs	r0, r3
 8005982:	46bd      	mov	sp, r7
 8005984:	b004      	add	sp, #16
 8005986:	bd80      	pop	{r7, pc}
 8005988:	01ffffff 	.word	0x01ffffff

0800598c <UART_WaitOnFlagUntilTimeout>:
 800598c:	b580      	push	{r7, lr}
 800598e:	b094      	sub	sp, #80	; 0x50
 8005990:	af00      	add	r7, sp, #0
 8005992:	60f8      	str	r0, [r7, #12]
 8005994:	60b9      	str	r1, [r7, #8]
 8005996:	603b      	str	r3, [r7, #0]
 8005998:	1dfb      	adds	r3, r7, #7
 800599a:	701a      	strb	r2, [r3, #0]
 800599c:	e0a3      	b.n	8005ae6 <UART_WaitOnFlagUntilTimeout+0x15a>
 800599e:	6dbb      	ldr	r3, [r7, #88]	; 0x58
 80059a0:	3301      	adds	r3, #1
 80059a2:	d100      	bne.n	80059a6 <UART_WaitOnFlagUntilTimeout+0x1a>
 80059a4:	e09f      	b.n	8005ae6 <UART_WaitOnFlagUntilTimeout+0x15a>
 80059a6:	f7fd fc77 	bl	8003298 <HAL_GetTick>
 80059aa:	0002      	movs	r2, r0
 80059ac:	683b      	ldr	r3, [r7, #0]
 80059ae:	1ad3      	subs	r3, r2, r3
 80059b0:	6dba      	ldr	r2, [r7, #88]	; 0x58
 80059b2:	429a      	cmp	r2, r3
 80059b4:	d302      	bcc.n	80059bc <UART_WaitOnFlagUntilTimeout+0x30>
 80059b6:	6dbb      	ldr	r3, [r7, #88]	; 0x58
 80059b8:	2b00      	cmp	r3, #0
 80059ba:	d13d      	bne.n	8005a38 <UART_WaitOnFlagUntilTimeout+0xac>
 80059bc:	f3ef 8310 	mrs	r3, PRIMASK
 80059c0:	62bb      	str	r3, [r7, #40]	; 0x28
 80059c2:	6abb      	ldr	r3, [r7, #40]	; 0x28
 80059c4:	647b      	str	r3, [r7, #68]	; 0x44
 80059c6:	2301      	movs	r3, #1
 80059c8:	62fb      	str	r3, [r7, #44]	; 0x2c
 80059ca:	6afb      	ldr	r3, [r7, #44]	; 0x2c
 80059cc:	f383 8810 	msr	PRIMASK, r3
 80059d0:	46c0      	nop			; (mov r8, r8)
 80059d2:	68fb      	ldr	r3, [r7, #12]
 80059d4:	681b      	ldr	r3, [r3, #0]
 80059d6:	681a      	ldr	r2, [r3, #0]
 80059d8:	68fb      	ldr	r3, [r7, #12]
 80059da:	681b      	ldr	r3, [r3, #0]
 80059dc:	494c      	ldr	r1, [pc, #304]	; (8005b10 <UART_WaitOnFlagUntilTimeout+0x184>)
 80059de:	400a      	ands	r2, r1
 80059e0:	601a      	str	r2, [r3, #0]
 80059e2:	6c7b      	ldr	r3, [r7, #68]	; 0x44
 80059e4:	633b      	str	r3, [r7, #48]	; 0x30
 80059e6:	6b3b      	ldr	r3, [r7, #48]	; 0x30
 80059e8:	f383 8810 	msr	PRIMASK, r3
 80059ec:	46c0      	nop			; (mov r8, r8)
 80059ee:	f3ef 8310 	mrs	r3, PRIMASK
 80059f2:	637b      	str	r3, [r7, #52]	; 0x34
 80059f4:	6b7b      	ldr	r3, [r7, #52]	; 0x34
 80059f6:	643b      	str	r3, [r7, #64]	; 0x40
 80059f8:	2301      	movs	r3, #1
 80059fa:	63bb      	str	r3, [r7, #56]	; 0x38
 80059fc:	6bbb      	ldr	r3, [r7, #56]	; 0x38
 80059fe:	f383 8810 	msr	PRIMASK, r3
 8005a02:	46c0      	nop			; (mov r8, r8)
 8005a04:	68fb      	ldr	r3, [r7, #12]
 8005a06:	681b      	ldr	r3, [r3, #0]
 8005a08:	689a      	ldr	r2, [r3, #8]
 8005a0a:	68fb      	ldr	r3, [r7, #12]
 8005a0c:	681b      	ldr	r3, [r3, #0]
 8005a0e:	2101      	movs	r1, #1
 8005a10:	438a      	bics	r2, r1
 8005a12:	609a      	str	r2, [r3, #8]
 8005a14:	6c3b      	ldr	r3, [r7, #64]	; 0x40
 8005a16:	63fb      	str	r3, [r7, #60]	; 0x3c
 8005a18:	6bfb      	ldr	r3, [r7, #60]	; 0x3c
 8005a1a:	f383 8810 	msr	PRIMASK, r3
 8005a1e:	46c0      	nop			; (mov r8, r8)
 8005a20:	68fb      	ldr	r3, [r7, #12]
 8005a22:	2220      	movs	r2, #32
 8005a24:	679a      	str	r2, [r3, #120]	; 0x78
 8005a26:	68fb      	ldr	r3, [r7, #12]
 8005a28:	2220      	movs	r2, #32
 8005a2a:	67da      	str	r2, [r3, #124]	; 0x7c
 8005a2c:	68fb      	ldr	r3, [r7, #12]
 8005a2e:	2274      	movs	r2, #116	; 0x74
 8005a30:	2100      	movs	r1, #0
 8005a32:	5499      	strb	r1, [r3, r2]
 8005a34:	2303      	movs	r3, #3
 8005a36:	e067      	b.n	8005b08 <UART_WaitOnFlagUntilTimeout+0x17c>
 8005a38:	68fb      	ldr	r3, [r7, #12]
 8005a3a:	681b      	ldr	r3, [r3, #0]
 8005a3c:	681b      	ldr	r3, [r3, #0]
 8005a3e:	2204      	movs	r2, #4
 8005a40:	4013      	ands	r3, r2
 8005a42:	d050      	beq.n	8005ae6 <UART_WaitOnFlagUntilTimeout+0x15a>
 8005a44:	68fb      	ldr	r3, [r7, #12]
 8005a46:	681b      	ldr	r3, [r3, #0]
 8005a48:	69da      	ldr	r2, [r3, #28]
 8005a4a:	2380      	movs	r3, #128	; 0x80
 8005a4c:	011b      	lsls	r3, r3, #4
 8005a4e:	401a      	ands	r2, r3
 8005a50:	2380      	movs	r3, #128	; 0x80
 8005a52:	011b      	lsls	r3, r3, #4
 8005a54:	429a      	cmp	r2, r3
 8005a56:	d146      	bne.n	8005ae6 <UART_WaitOnFlagUntilTimeout+0x15a>
 8005a58:	68fb      	ldr	r3, [r7, #12]
 8005a5a:	681b      	ldr	r3, [r3, #0]
 8005a5c:	2280      	movs	r2, #128	; 0x80
 8005a5e:	0112      	lsls	r2, r2, #4
 8005a60:	621a      	str	r2, [r3, #32]
 8005a62:	f3ef 8310 	mrs	r3, PRIMASK
 8005a66:	613b      	str	r3, [r7, #16]
 8005a68:	693b      	ldr	r3, [r7, #16]
 8005a6a:	64fb      	str	r3, [r7, #76]	; 0x4c
 8005a6c:	2301      	movs	r3, #1
 8005a6e:	617b      	str	r3, [r7, #20]
 8005a70:	697b      	ldr	r3, [r7, #20]
 8005a72:	f383 8810 	msr	PRIMASK, r3
 8005a76:	46c0      	nop			; (mov r8, r8)
 8005a78:	68fb      	ldr	r3, [r7, #12]
 8005a7a:	681b      	ldr	r3, [r3, #0]
 8005a7c:	681a      	ldr	r2, [r3, #0]
 8005a7e:	68fb      	ldr	r3, [r7, #12]
 8005a80:	681b      	ldr	r3, [r3, #0]
 8005a82:	4923      	ldr	r1, [pc, #140]	; (8005b10 <UART_WaitOnFlagUntilTimeout+0x184>)
 8005a84:	400a      	ands	r2, r1
 8005a86:	601a      	str	r2, [r3, #0]
 8005a88:	6cfb      	ldr	r3, [r7, #76]	; 0x4c
 8005a8a:	61bb      	str	r3, [r7, #24]
 8005a8c:	69bb      	ldr	r3, [r7, #24]
 8005a8e:	f383 8810 	msr	PRIMASK, r3
 8005a92:	46c0      	nop			; (mov r8, r8)
 8005a94:	f3ef 8310 	mrs	r3, PRIMASK
 8005a98:	61fb      	str	r3, [r7, #28]
 8005a9a:	69fb      	ldr	r3, [r7, #28]
 8005a9c:	64bb      	str	r3, [r7, #72]	; 0x48
 8005a9e:	2301      	movs	r3, #1
 8005aa0:	623b      	str	r3, [r7, #32]
 8005aa2:	6a3b      	ldr	r3, [r7, #32]
 8005aa4:	f383 8810 	msr	PRIMASK, r3
 8005aa8:	46c0      	nop			; (mov r8, r8)
 8005aaa:	68fb      	ldr	r3, [r7, #12]
 8005aac:	681b      	ldr	r3, [r3, #0]
 8005aae:	689a      	ldr	r2, [r3, #8]
 8005ab0:	68fb      	ldr	r3, [r7, #12]
 8005ab2:	681b      	ldr	r3, [r3, #0]
 8005ab4:	2101      	movs	r1, #1
 8005ab6:	438a      	bics	r2, r1
 8005ab8:	609a      	str	r2, [r3, #8]
 8005aba:	6cbb      	ldr	r3, [r7, #72]	; 0x48
 8005abc:	627b      	str	r3, [r7, #36]	; 0x24
 8005abe:	6a7b      	ldr	r3, [r7, #36]	; 0x24
 8005ac0:	f383 8810 	msr	PRIMASK, r3
 8005ac4:	46c0      	nop			; (mov r8, r8)
 8005ac6:	68fb      	ldr	r3, [r7, #12]
 8005ac8:	2220      	movs	r2, #32
 8005aca:	679a      	str	r2, [r3, #120]	; 0x78
 8005acc:	68fb      	ldr	r3, [r7, #12]
 8005ace:	2220      	movs	r2, #32
 8005ad0:	67da      	str	r2, [r3, #124]	; 0x7c
 8005ad2:	68fb      	ldr	r3, [r7, #12]
 8005ad4:	2280      	movs	r2, #128	; 0x80
 8005ad6:	2120      	movs	r1, #32
 8005ad8:	5099      	str	r1, [r3, r2]
 8005ada:	68fb      	ldr	r3, [r7, #12]
 8005adc:	2274      	movs	r2, #116	; 0x74
 8005ade:	2100      	movs	r1, #0
 8005ae0:	5499      	strb	r1, [r3, r2]
 8005ae2:	2303      	movs	r3, #3
 8005ae4:	e010      	b.n	8005b08 <UART_WaitOnFlagUntilTimeout+0x17c>
 8005ae6:	68fb      	ldr	r3, [r7, #12]
 8005ae8:	681b      	ldr	r3, [r3, #0]
 8005aea:	69db      	ldr	r3, [r3, #28]
 8005aec:	68ba      	ldr	r2, [r7, #8]
 8005aee:	4013      	ands	r3, r2
 8005af0:	68ba      	ldr	r2, [r7, #8]
 8005af2:	1ad3      	subs	r3, r2, r3
 8005af4:	425a      	negs	r2, r3
 8005af6:	4153      	adcs	r3, r2
 8005af8:	b2db      	uxtb	r3, r3
 8005afa:	001a      	movs	r2, r3
 8005afc:	1dfb      	adds	r3, r7, #7
 8005afe:	781b      	ldrb	r3, [r3, #0]
 8005b00:	429a      	cmp	r2, r3
 8005b02:	d100      	bne.n	8005b06 <UART_WaitOnFlagUntilTimeout+0x17a>
 8005b04:	e74b      	b.n	800599e <UART_WaitOnFlagUntilTimeout+0x12>
 8005b06:	2300      	movs	r3, #0
 8005b08:	0018      	movs	r0, r3
 8005b0a:	46bd      	mov	sp, r7
 8005b0c:	b014      	add	sp, #80	; 0x50
 8005b0e:	bd80      	pop	{r7, pc}
 8005b10:	fffffe5f 	.word	0xfffffe5f

08005b14 <osKernelInitialize>:
 8005b14:	b580      	push	{r7, lr}
 8005b16:	b084      	sub	sp, #16
 8005b18:	af00      	add	r7, sp, #0
 8005b1a:	f3ef 8305 	mrs	r3, IPSR
 8005b1e:	60bb      	str	r3, [r7, #8]
 8005b20:	68bb      	ldr	r3, [r7, #8]
 8005b22:	2b00      	cmp	r3, #0
 8005b24:	d109      	bne.n	8005b3a <osKernelInitialize+0x26>
 8005b26:	f3ef 8310 	mrs	r3, PRIMASK
 8005b2a:	607b      	str	r3, [r7, #4]
 8005b2c:	687b      	ldr	r3, [r7, #4]
 8005b2e:	2b00      	cmp	r3, #0
 8005b30:	d007      	beq.n	8005b42 <osKernelInitialize+0x2e>
 8005b32:	4b0d      	ldr	r3, [pc, #52]	; (8005b68 <osKernelInitialize+0x54>)
 8005b34:	681b      	ldr	r3, [r3, #0]
 8005b36:	2b02      	cmp	r3, #2
 8005b38:	d103      	bne.n	8005b42 <osKernelInitialize+0x2e>
 8005b3a:	2306      	movs	r3, #6
 8005b3c:	425b      	negs	r3, r3
 8005b3e:	60fb      	str	r3, [r7, #12]
 8005b40:	e00c      	b.n	8005b5c <osKernelInitialize+0x48>
 8005b42:	4b09      	ldr	r3, [pc, #36]	; (8005b68 <osKernelInitialize+0x54>)
 8005b44:	681b      	ldr	r3, [r3, #0]
 8005b46:	2b00      	cmp	r3, #0
 8005b48:	d105      	bne.n	8005b56 <osKernelInitialize+0x42>
 8005b4a:	4b07      	ldr	r3, [pc, #28]	; (8005b68 <osKernelInitialize+0x54>)
 8005b4c:	2201      	movs	r2, #1
 8005b4e:	601a      	str	r2, [r3, #0]
 8005b50:	2300      	movs	r3, #0
 8005b52:	60fb      	str	r3, [r7, #12]
 8005b54:	e002      	b.n	8005b5c <osKernelInitialize+0x48>
 8005b56:	2301      	movs	r3, #1
 8005b58:	425b      	negs	r3, r3
 8005b5a:	60fb      	str	r3, [r7, #12]
 8005b5c:	68fb      	ldr	r3, [r7, #12]
 8005b5e:	0018      	movs	r0, r3
 8005b60:	46bd      	mov	sp, r7
 8005b62:	b004      	add	sp, #16
 8005b64:	bd80      	pop	{r7, pc}
 8005b66:	46c0      	nop			; (mov r8, r8)
 8005b68:	20000130 	.word	0x20000130

08005b6c <osKernelStart>:
 8005b6c:	b580      	push	{r7, lr}
 8005b6e:	b084      	sub	sp, #16
 8005b70:	af00      	add	r7, sp, #0
 8005b72:	f3ef 8305 	mrs	r3, IPSR
 8005b76:	60bb      	str	r3, [r7, #8]
 8005b78:	68bb      	ldr	r3, [r7, #8]
 8005b7a:	2b00      	cmp	r3, #0
 8005b7c:	d109      	bne.n	8005b92 <osKernelStart+0x26>
 8005b7e:	f3ef 8310 	mrs	r3, PRIMASK
 8005b82:	607b      	str	r3, [r7, #4]
 8005b84:	687b      	ldr	r3, [r7, #4]
 8005b86:	2b00      	cmp	r3, #0
 8005b88:	d007      	beq.n	8005b9a <osKernelStart+0x2e>
 8005b8a:	4b0e      	ldr	r3, [pc, #56]	; (8005bc4 <osKernelStart+0x58>)
 8005b8c:	681b      	ldr	r3, [r3, #0]
 8005b8e:	2b02      	cmp	r3, #2
 8005b90:	d103      	bne.n	8005b9a <osKernelStart+0x2e>
 8005b92:	2306      	movs	r3, #6
 8005b94:	425b      	negs	r3, r3
 8005b96:	60fb      	str	r3, [r7, #12]
 8005b98:	e00e      	b.n	8005bb8 <osKernelStart+0x4c>
 8005b9a:	4b0a      	ldr	r3, [pc, #40]	; (8005bc4 <osKernelStart+0x58>)
 8005b9c:	681b      	ldr	r3, [r3, #0]
 8005b9e:	2b01      	cmp	r3, #1
 8005ba0:	d107      	bne.n	8005bb2 <osKernelStart+0x46>
 8005ba2:	4b08      	ldr	r3, [pc, #32]	; (8005bc4 <osKernelStart+0x58>)
 8005ba4:	2202      	movs	r2, #2
 8005ba6:	601a      	str	r2, [r3, #0]
 8005ba8:	f000 ff7e 	bl	8006aa8 <vTaskStartScheduler>
 8005bac:	2300      	movs	r3, #0
 8005bae:	60fb      	str	r3, [r7, #12]
 8005bb0:	e002      	b.n	8005bb8 <osKernelStart+0x4c>
 8005bb2:	2301      	movs	r3, #1
 8005bb4:	425b      	negs	r3, r3
 8005bb6:	60fb      	str	r3, [r7, #12]
 8005bb8:	68fb      	ldr	r3, [r7, #12]
 8005bba:	0018      	movs	r0, r3
 8005bbc:	46bd      	mov	sp, r7
 8005bbe:	b004      	add	sp, #16
 8005bc0:	bd80      	pop	{r7, pc}
 8005bc2:	46c0      	nop			; (mov r8, r8)
 8005bc4:	20000130 	.word	0x20000130

08005bc8 <osThreadNew>:
 8005bc8:	b5b0      	push	{r4, r5, r7, lr}
 8005bca:	b090      	sub	sp, #64	; 0x40
 8005bcc:	af04      	add	r7, sp, #16
 8005bce:	60f8      	str	r0, [r7, #12]
 8005bd0:	60b9      	str	r1, [r7, #8]
 8005bd2:	607a      	str	r2, [r7, #4]
 8005bd4:	2300      	movs	r3, #0
 8005bd6:	613b      	str	r3, [r7, #16]
 8005bd8:	f3ef 8305 	mrs	r3, IPSR
 8005bdc:	61fb      	str	r3, [r7, #28]
 8005bde:	69fb      	ldr	r3, [r7, #28]
 8005be0:	2b00      	cmp	r3, #0
 8005be2:	d000      	beq.n	8005be6 <osThreadNew+0x1e>
 8005be4:	e090      	b.n	8005d08 <osThreadNew+0x140>
 8005be6:	f3ef 8310 	mrs	r3, PRIMASK
 8005bea:	61bb      	str	r3, [r7, #24]
 8005bec:	69bb      	ldr	r3, [r7, #24]
 8005bee:	2b00      	cmp	r3, #0
 8005bf0:	d004      	beq.n	8005bfc <osThreadNew+0x34>
 8005bf2:	4b48      	ldr	r3, [pc, #288]	; (8005d14 <osThreadNew+0x14c>)
 8005bf4:	681b      	ldr	r3, [r3, #0]
 8005bf6:	2b02      	cmp	r3, #2
 8005bf8:	d100      	bne.n	8005bfc <osThreadNew+0x34>
 8005bfa:	e085      	b.n	8005d08 <osThreadNew+0x140>
 8005bfc:	68fb      	ldr	r3, [r7, #12]
 8005bfe:	2b00      	cmp	r3, #0
 8005c00:	d100      	bne.n	8005c04 <osThreadNew+0x3c>
 8005c02:	e081      	b.n	8005d08 <osThreadNew+0x140>
 8005c04:	2340      	movs	r3, #64	; 0x40
 8005c06:	62bb      	str	r3, [r7, #40]	; 0x28
 8005c08:	2318      	movs	r3, #24
 8005c0a:	627b      	str	r3, [r7, #36]	; 0x24
 8005c0c:	2117      	movs	r1, #23
 8005c0e:	187b      	adds	r3, r7, r1
 8005c10:	2200      	movs	r2, #0
 8005c12:	701a      	strb	r2, [r3, #0]
 8005c14:	187b      	adds	r3, r7, r1
 8005c16:	62fb      	str	r3, [r7, #44]	; 0x2c
 8005c18:	2301      	movs	r3, #1
 8005c1a:	425b      	negs	r3, r3
 8005c1c:	623b      	str	r3, [r7, #32]
 8005c1e:	687b      	ldr	r3, [r7, #4]
 8005c20:	2b00      	cmp	r3, #0
 8005c22:	d044      	beq.n	8005cae <osThreadNew+0xe6>
 8005c24:	687b      	ldr	r3, [r7, #4]
 8005c26:	681b      	ldr	r3, [r3, #0]
 8005c28:	2b00      	cmp	r3, #0
 8005c2a:	d002      	beq.n	8005c32 <osThreadNew+0x6a>
 8005c2c:	687b      	ldr	r3, [r7, #4]
 8005c2e:	681b      	ldr	r3, [r3, #0]
 8005c30:	62fb      	str	r3, [r7, #44]	; 0x2c
 8005c32:	687b      	ldr	r3, [r7, #4]
 8005c34:	699b      	ldr	r3, [r3, #24]
 8005c36:	2b00      	cmp	r3, #0
 8005c38:	d002      	beq.n	8005c40 <osThreadNew+0x78>
 8005c3a:	687b      	ldr	r3, [r7, #4]
 8005c3c:	699b      	ldr	r3, [r3, #24]
 8005c3e:	627b      	str	r3, [r7, #36]	; 0x24
 8005c40:	6a7b      	ldr	r3, [r7, #36]	; 0x24
 8005c42:	2b00      	cmp	r3, #0
 8005c44:	d007      	beq.n	8005c56 <osThreadNew+0x8e>
 8005c46:	6a7b      	ldr	r3, [r7, #36]	; 0x24
 8005c48:	2b38      	cmp	r3, #56	; 0x38
 8005c4a:	d804      	bhi.n	8005c56 <osThreadNew+0x8e>
 8005c4c:	687b      	ldr	r3, [r7, #4]
 8005c4e:	685b      	ldr	r3, [r3, #4]
 8005c50:	2201      	movs	r2, #1
 8005c52:	4013      	ands	r3, r2
 8005c54:	d001      	beq.n	8005c5a <osThreadNew+0x92>
 8005c56:	2300      	movs	r3, #0
 8005c58:	e057      	b.n	8005d0a <osThreadNew+0x142>
 8005c5a:	687b      	ldr	r3, [r7, #4]
 8005c5c:	695b      	ldr	r3, [r3, #20]
 8005c5e:	2b00      	cmp	r3, #0
 8005c60:	d003      	beq.n	8005c6a <osThreadNew+0xa2>
 8005c62:	687b      	ldr	r3, [r7, #4]
 8005c64:	695b      	ldr	r3, [r3, #20]
 8005c66:	089b      	lsrs	r3, r3, #2
 8005c68:	62bb      	str	r3, [r7, #40]	; 0x28
 8005c6a:	687b      	ldr	r3, [r7, #4]
 8005c6c:	689b      	ldr	r3, [r3, #8]
 8005c6e:	2b00      	cmp	r3, #0
 8005c70:	d00e      	beq.n	8005c90 <osThreadNew+0xc8>
 8005c72:	687b      	ldr	r3, [r7, #4]
 8005c74:	68db      	ldr	r3, [r3, #12]
 8005c76:	2b5b      	cmp	r3, #91	; 0x5b
 8005c78:	d90a      	bls.n	8005c90 <osThreadNew+0xc8>
 8005c7a:	687b      	ldr	r3, [r7, #4]
 8005c7c:	691b      	ldr	r3, [r3, #16]
 8005c7e:	2b00      	cmp	r3, #0
 8005c80:	d006      	beq.n	8005c90 <osThreadNew+0xc8>
 8005c82:	687b      	ldr	r3, [r7, #4]
 8005c84:	695b      	ldr	r3, [r3, #20]
 8005c86:	2b00      	cmp	r3, #0
 8005c88:	d002      	beq.n	8005c90 <osThreadNew+0xc8>
 8005c8a:	2301      	movs	r3, #1
 8005c8c:	623b      	str	r3, [r7, #32]
 8005c8e:	e010      	b.n	8005cb2 <osThreadNew+0xea>
 8005c90:	687b      	ldr	r3, [r7, #4]
 8005c92:	689b      	ldr	r3, [r3, #8]
 8005c94:	2b00      	cmp	r3, #0
 8005c96:	d10c      	bne.n	8005cb2 <osThreadNew+0xea>
 8005c98:	687b      	ldr	r3, [r7, #4]
 8005c9a:	68db      	ldr	r3, [r3, #12]
 8005c9c:	2b00      	cmp	r3, #0
 8005c9e:	d108      	bne.n	8005cb2 <osThreadNew+0xea>
 8005ca0:	687b      	ldr	r3, [r7, #4]
 8005ca2:	691b      	ldr	r3, [r3, #16]
 8005ca4:	2b00      	cmp	r3, #0
 8005ca6:	d104      	bne.n	8005cb2 <osThreadNew+0xea>
 8005ca8:	2300      	movs	r3, #0
 8005caa:	623b      	str	r3, [r7, #32]
 8005cac:	e001      	b.n	8005cb2 <osThreadNew+0xea>
 8005cae:	2300      	movs	r3, #0
 8005cb0:	623b      	str	r3, [r7, #32]
 8005cb2:	6a3b      	ldr	r3, [r7, #32]
 8005cb4:	2b01      	cmp	r3, #1
 8005cb6:	d112      	bne.n	8005cde <osThreadNew+0x116>
 8005cb8:	687b      	ldr	r3, [r7, #4]
 8005cba:	691a      	ldr	r2, [r3, #16]
 8005cbc:	687b      	ldr	r3, [r7, #4]
 8005cbe:	689b      	ldr	r3, [r3, #8]
 8005cc0:	68bd      	ldr	r5, [r7, #8]
 8005cc2:	6abc      	ldr	r4, [r7, #40]	; 0x28
 8005cc4:	6af9      	ldr	r1, [r7, #44]	; 0x2c
 8005cc6:	68f8      	ldr	r0, [r7, #12]
 8005cc8:	9302      	str	r3, [sp, #8]
 8005cca:	9201      	str	r2, [sp, #4]
 8005ccc:	6a7b      	ldr	r3, [r7, #36]	; 0x24
 8005cce:	9300      	str	r3, [sp, #0]
 8005cd0:	002b      	movs	r3, r5
 8005cd2:	0022      	movs	r2, r4
 8005cd4:	f000 fd49 	bl	800676a <xTaskCreateStatic>
 8005cd8:	0003      	movs	r3, r0
 8005cda:	613b      	str	r3, [r7, #16]
 8005cdc:	e014      	b.n	8005d08 <osThreadNew+0x140>
 8005cde:	6a3b      	ldr	r3, [r7, #32]
 8005ce0:	2b00      	cmp	r3, #0
 8005ce2:	d111      	bne.n	8005d08 <osThreadNew+0x140>
 8005ce4:	6abb      	ldr	r3, [r7, #40]	; 0x28
 8005ce6:	b29a      	uxth	r2, r3
 8005ce8:	68bc      	ldr	r4, [r7, #8]
 8005cea:	6af9      	ldr	r1, [r7, #44]	; 0x2c
 8005cec:	68f8      	ldr	r0, [r7, #12]
 8005cee:	2310      	movs	r3, #16
 8005cf0:	18fb      	adds	r3, r7, r3
 8005cf2:	9301      	str	r3, [sp, #4]
 8005cf4:	6a7b      	ldr	r3, [r7, #36]	; 0x24
 8005cf6:	9300      	str	r3, [sp, #0]
 8005cf8:	0023      	movs	r3, r4
 8005cfa:	f000 fd79 	bl	80067f0 <xTaskCreate>
 8005cfe:	0003      	movs	r3, r0
 8005d00:	2b01      	cmp	r3, #1
 8005d02:	d001      	beq.n	8005d08 <osThreadNew+0x140>
 8005d04:	2300      	movs	r3, #0
 8005d06:	613b      	str	r3, [r7, #16]
 8005d08:	693b      	ldr	r3, [r7, #16]
 8005d0a:	0018      	movs	r0, r3
 8005d0c:	46bd      	mov	sp, r7
 8005d0e:	b00c      	add	sp, #48	; 0x30
 8005d10:	bdb0      	pop	{r4, r5, r7, pc}
 8005d12:	46c0      	nop			; (mov r8, r8)
 8005d14:	20000130 	.word	0x20000130

08005d18 <osDelay>:
 8005d18:	b580      	push	{r7, lr}
 8005d1a:	b086      	sub	sp, #24
 8005d1c:	af00      	add	r7, sp, #0
 8005d1e:	6078      	str	r0, [r7, #4]
 8005d20:	f3ef 8305 	mrs	r3, IPSR
 8005d24:	613b      	str	r3, [r7, #16]
 8005d26:	693b      	ldr	r3, [r7, #16]
 8005d28:	2b00      	cmp	r3, #0
 8005d2a:	d109      	bne.n	8005d40 <osDelay+0x28>
 8005d2c:	f3ef 8310 	mrs	r3, PRIMASK
 8005d30:	60fb      	str	r3, [r7, #12]
 8005d32:	68fb      	ldr	r3, [r7, #12]
 8005d34:	2b00      	cmp	r3, #0
 8005d36:	d007      	beq.n	8005d48 <osDelay+0x30>
 8005d38:	4b0a      	ldr	r3, [pc, #40]	; (8005d64 <osDelay+0x4c>)
 8005d3a:	681b      	ldr	r3, [r3, #0]
 8005d3c:	2b02      	cmp	r3, #2
 8005d3e:	d103      	bne.n	8005d48 <osDelay+0x30>
 8005d40:	2306      	movs	r3, #6
 8005d42:	425b      	negs	r3, r3
 8005d44:	617b      	str	r3, [r7, #20]
 8005d46:	e008      	b.n	8005d5a <osDelay+0x42>
 8005d48:	2300      	movs	r3, #0
 8005d4a:	617b      	str	r3, [r7, #20]
 8005d4c:	687b      	ldr	r3, [r7, #4]
 8005d4e:	2b00      	cmp	r3, #0
 8005d50:	d003      	beq.n	8005d5a <osDelay+0x42>
 8005d52:	687b      	ldr	r3, [r7, #4]
 8005d54:	0018      	movs	r0, r3
 8005d56:	f000 fe81 	bl	8006a5c <vTaskDelay>
 8005d5a:	697b      	ldr	r3, [r7, #20]
 8005d5c:	0018      	movs	r0, r3
 8005d5e:	46bd      	mov	sp, r7
 8005d60:	b006      	add	sp, #24
 8005d62:	bd80      	pop	{r7, pc}
 8005d64:	20000130 	.word	0x20000130

08005d68 <vApplicationGetIdleTaskMemory>:
 8005d68:	b580      	push	{r7, lr}
 8005d6a:	b084      	sub	sp, #16
 8005d6c:	af00      	add	r7, sp, #0
 8005d6e:	60f8      	str	r0, [r7, #12]
 8005d70:	60b9      	str	r1, [r7, #8]
 8005d72:	607a      	str	r2, [r7, #4]
 8005d74:	68fb      	ldr	r3, [r7, #12]
 8005d76:	4a06      	ldr	r2, [pc, #24]	; (8005d90 <vApplicationGetIdleTaskMemory+0x28>)
 8005d78:	601a      	str	r2, [r3, #0]
 8005d7a:	68bb      	ldr	r3, [r7, #8]
 8005d7c:	4a05      	ldr	r2, [pc, #20]	; (8005d94 <vApplicationGetIdleTaskMemory+0x2c>)
 8005d7e:	601a      	str	r2, [r3, #0]
 8005d80:	687b      	ldr	r3, [r7, #4]
 8005d82:	2240      	movs	r2, #64	; 0x40
 8005d84:	601a      	str	r2, [r3, #0]
 8005d86:	46c0      	nop			; (mov r8, r8)
 8005d88:	46bd      	mov	sp, r7
 8005d8a:	b004      	add	sp, #16
 8005d8c:	bd80      	pop	{r7, pc}
 8005d8e:	46c0      	nop			; (mov r8, r8)
 8005d90:	20000134 	.word	0x20000134
 8005d94:	20000190 	.word	0x20000190

08005d98 <vApplicationGetTimerTaskMemory>:
 8005d98:	b580      	push	{r7, lr}
 8005d9a:	b084      	sub	sp, #16
 8005d9c:	af00      	add	r7, sp, #0
 8005d9e:	60f8      	str	r0, [r7, #12]
 8005da0:	60b9      	str	r1, [r7, #8]
 8005da2:	607a      	str	r2, [r7, #4]
 8005da4:	68fb      	ldr	r3, [r7, #12]
 8005da6:	4a06      	ldr	r2, [pc, #24]	; (8005dc0 <vApplicationGetTimerTaskMemory+0x28>)
 8005da8:	601a      	str	r2, [r3, #0]
 8005daa:	68bb      	ldr	r3, [r7, #8]
 8005dac:	4a05      	ldr	r2, [pc, #20]	; (8005dc4 <vApplicationGetTimerTaskMemory+0x2c>)
 8005dae:	601a      	str	r2, [r3, #0]
 8005db0:	687b      	ldr	r3, [r7, #4]
 8005db2:	2280      	movs	r2, #128	; 0x80
 8005db4:	601a      	str	r2, [r3, #0]
 8005db6:	46c0      	nop			; (mov r8, r8)
 8005db8:	46bd      	mov	sp, r7
 8005dba:	b004      	add	sp, #16
 8005dbc:	bd80      	pop	{r7, pc}
 8005dbe:	46c0      	nop			; (mov r8, r8)
 8005dc0:	20000290 	.word	0x20000290
 8005dc4:	200002ec 	.word	0x200002ec

08005dc8 <vListInitialise>:
 8005dc8:	b580      	push	{r7, lr}
 8005dca:	b082      	sub	sp, #8
 8005dcc:	af00      	add	r7, sp, #0
 8005dce:	6078      	str	r0, [r7, #4]
 8005dd0:	687b      	ldr	r3, [r7, #4]
 8005dd2:	3308      	adds	r3, #8
 8005dd4:	001a      	movs	r2, r3
 8005dd6:	687b      	ldr	r3, [r7, #4]
 8005dd8:	605a      	str	r2, [r3, #4]
 8005dda:	687b      	ldr	r3, [r7, #4]
 8005ddc:	2201      	movs	r2, #1
 8005dde:	4252      	negs	r2, r2
 8005de0:	609a      	str	r2, [r3, #8]
 8005de2:	687b      	ldr	r3, [r7, #4]
 8005de4:	3308      	adds	r3, #8
 8005de6:	001a      	movs	r2, r3
 8005de8:	687b      	ldr	r3, [r7, #4]
 8005dea:	60da      	str	r2, [r3, #12]
 8005dec:	687b      	ldr	r3, [r7, #4]
 8005dee:	3308      	adds	r3, #8
 8005df0:	001a      	movs	r2, r3
 8005df2:	687b      	ldr	r3, [r7, #4]
 8005df4:	611a      	str	r2, [r3, #16]
 8005df6:	687b      	ldr	r3, [r7, #4]
 8005df8:	2200      	movs	r2, #0
 8005dfa:	601a      	str	r2, [r3, #0]
 8005dfc:	46c0      	nop			; (mov r8, r8)
 8005dfe:	46bd      	mov	sp, r7
 8005e00:	b002      	add	sp, #8
 8005e02:	bd80      	pop	{r7, pc}

08005e04 <vListInitialiseItem>:
 8005e04:	b580      	push	{r7, lr}
 8005e06:	b082      	sub	sp, #8
 8005e08:	af00      	add	r7, sp, #0
 8005e0a:	6078      	str	r0, [r7, #4]
 8005e0c:	687b      	ldr	r3, [r7, #4]
 8005e0e:	2200      	movs	r2, #0
 8005e10:	611a      	str	r2, [r3, #16]
 8005e12:	46c0      	nop			; (mov r8, r8)
 8005e14:	46bd      	mov	sp, r7
 8005e16:	b002      	add	sp, #8
 8005e18:	bd80      	pop	{r7, pc}

08005e1a <vListInsertEnd>:
 8005e1a:	b580      	push	{r7, lr}
 8005e1c:	b084      	sub	sp, #16
 8005e1e:	af00      	add	r7, sp, #0
 8005e20:	6078      	str	r0, [r7, #4]
 8005e22:	6039      	str	r1, [r7, #0]
 8005e24:	687b      	ldr	r3, [r7, #4]
 8005e26:	685b      	ldr	r3, [r3, #4]
 8005e28:	60fb      	str	r3, [r7, #12]
 8005e2a:	683b      	ldr	r3, [r7, #0]
 8005e2c:	68fa      	ldr	r2, [r7, #12]
 8005e2e:	605a      	str	r2, [r3, #4]
 8005e30:	68fb      	ldr	r3, [r7, #12]
 8005e32:	689a      	ldr	r2, [r3, #8]
 8005e34:	683b      	ldr	r3, [r7, #0]
 8005e36:	609a      	str	r2, [r3, #8]
 8005e38:	68fb      	ldr	r3, [r7, #12]
 8005e3a:	689b      	ldr	r3, [r3, #8]
 8005e3c:	683a      	ldr	r2, [r7, #0]
 8005e3e:	605a      	str	r2, [r3, #4]
 8005e40:	68fb      	ldr	r3, [r7, #12]
 8005e42:	683a      	ldr	r2, [r7, #0]
 8005e44:	609a      	str	r2, [r3, #8]
 8005e46:	683b      	ldr	r3, [r7, #0]
 8005e48:	687a      	ldr	r2, [r7, #4]
 8005e4a:	611a      	str	r2, [r3, #16]
 8005e4c:	687b      	ldr	r3, [r7, #4]
 8005e4e:	681b      	ldr	r3, [r3, #0]
 8005e50:	1c5a      	adds	r2, r3, #1
 8005e52:	687b      	ldr	r3, [r7, #4]
 8005e54:	601a      	str	r2, [r3, #0]
 8005e56:	46c0      	nop			; (mov r8, r8)
 8005e58:	46bd      	mov	sp, r7
 8005e5a:	b004      	add	sp, #16
 8005e5c:	bd80      	pop	{r7, pc}

08005e5e <vListInsert>:
 8005e5e:	b580      	push	{r7, lr}
 8005e60:	b084      	sub	sp, #16
 8005e62:	af00      	add	r7, sp, #0
 8005e64:	6078      	str	r0, [r7, #4]
 8005e66:	6039      	str	r1, [r7, #0]
 8005e68:	683b      	ldr	r3, [r7, #0]
 8005e6a:	681b      	ldr	r3, [r3, #0]
 8005e6c:	60bb      	str	r3, [r7, #8]
 8005e6e:	68bb      	ldr	r3, [r7, #8]
 8005e70:	3301      	adds	r3, #1
 8005e72:	d103      	bne.n	8005e7c <vListInsert+0x1e>
 8005e74:	687b      	ldr	r3, [r7, #4]
 8005e76:	691b      	ldr	r3, [r3, #16]
 8005e78:	60fb      	str	r3, [r7, #12]
 8005e7a:	e00c      	b.n	8005e96 <vListInsert+0x38>
 8005e7c:	687b      	ldr	r3, [r7, #4]
 8005e7e:	3308      	adds	r3, #8
 8005e80:	60fb      	str	r3, [r7, #12]
 8005e82:	e002      	b.n	8005e8a <vListInsert+0x2c>
 8005e84:	68fb      	ldr	r3, [r7, #12]
 8005e86:	685b      	ldr	r3, [r3, #4]
 8005e88:	60fb      	str	r3, [r7, #12]
 8005e8a:	68fb      	ldr	r3, [r7, #12]
 8005e8c:	685b      	ldr	r3, [r3, #4]
 8005e8e:	681b      	ldr	r3, [r3, #0]
 8005e90:	68ba      	ldr	r2, [r7, #8]
 8005e92:	429a      	cmp	r2, r3
 8005e94:	d2f6      	bcs.n	8005e84 <vListInsert+0x26>
 8005e96:	68fb      	ldr	r3, [r7, #12]
 8005e98:	685a      	ldr	r2, [r3, #4]
 8005e9a:	683b      	ldr	r3, [r7, #0]
 8005e9c:	605a      	str	r2, [r3, #4]
 8005e9e:	683b      	ldr	r3, [r7, #0]
 8005ea0:	685b      	ldr	r3, [r3, #4]
 8005ea2:	683a      	ldr	r2, [r7, #0]
 8005ea4:	609a      	str	r2, [r3, #8]
 8005ea6:	683b      	ldr	r3, [r7, #0]
 8005ea8:	68fa      	ldr	r2, [r7, #12]
 8005eaa:	609a      	str	r2, [r3, #8]
 8005eac:	68fb      	ldr	r3, [r7, #12]
 8005eae:	683a      	ldr	r2, [r7, #0]
 8005eb0:	605a      	str	r2, [r3, #4]
 8005eb2:	683b      	ldr	r3, [r7, #0]
 8005eb4:	687a      	ldr	r2, [r7, #4]
 8005eb6:	611a      	str	r2, [r3, #16]
 8005eb8:	687b      	ldr	r3, [r7, #4]
 8005eba:	681b      	ldr	r3, [r3, #0]
 8005ebc:	1c5a      	adds	r2, r3, #1
 8005ebe:	687b      	ldr	r3, [r7, #4]
 8005ec0:	601a      	str	r2, [r3, #0]
 8005ec2:	46c0      	nop			; (mov r8, r8)
 8005ec4:	46bd      	mov	sp, r7
 8005ec6:	b004      	add	sp, #16
 8005ec8:	bd80      	pop	{r7, pc}

08005eca <uxListRemove>:
 8005eca:	b580      	push	{r7, lr}
 8005ecc:	b084      	sub	sp, #16
 8005ece:	af00      	add	r7, sp, #0
 8005ed0:	6078      	str	r0, [r7, #4]
 8005ed2:	687b      	ldr	r3, [r7, #4]
 8005ed4:	691b      	ldr	r3, [r3, #16]
 8005ed6:	60fb      	str	r3, [r7, #12]
 8005ed8:	687b      	ldr	r3, [r7, #4]
 8005eda:	685b      	ldr	r3, [r3, #4]
 8005edc:	687a      	ldr	r2, [r7, #4]
 8005ede:	6892      	ldr	r2, [r2, #8]
 8005ee0:	609a      	str	r2, [r3, #8]
 8005ee2:	687b      	ldr	r3, [r7, #4]
 8005ee4:	689b      	ldr	r3, [r3, #8]
 8005ee6:	687a      	ldr	r2, [r7, #4]
 8005ee8:	6852      	ldr	r2, [r2, #4]
 8005eea:	605a      	str	r2, [r3, #4]
 8005eec:	68fb      	ldr	r3, [r7, #12]
 8005eee:	685b      	ldr	r3, [r3, #4]
 8005ef0:	687a      	ldr	r2, [r7, #4]
 8005ef2:	429a      	cmp	r2, r3
 8005ef4:	d103      	bne.n	8005efe <uxListRemove+0x34>
 8005ef6:	687b      	ldr	r3, [r7, #4]
 8005ef8:	689a      	ldr	r2, [r3, #8]
 8005efa:	68fb      	ldr	r3, [r7, #12]
 8005efc:	605a      	str	r2, [r3, #4]
 8005efe:	687b      	ldr	r3, [r7, #4]
 8005f00:	2200      	movs	r2, #0
 8005f02:	611a      	str	r2, [r3, #16]
 8005f04:	68fb      	ldr	r3, [r7, #12]
 8005f06:	681b      	ldr	r3, [r3, #0]
 8005f08:	1e5a      	subs	r2, r3, #1
 8005f0a:	68fb      	ldr	r3, [r7, #12]
 8005f0c:	601a      	str	r2, [r3, #0]
 8005f0e:	68fb      	ldr	r3, [r7, #12]
 8005f10:	681b      	ldr	r3, [r3, #0]
 8005f12:	0018      	movs	r0, r3
 8005f14:	46bd      	mov	sp, r7
 8005f16:	b004      	add	sp, #16
 8005f18:	bd80      	pop	{r7, pc}

08005f1a <xQueueGenericReset>:
 8005f1a:	b580      	push	{r7, lr}
 8005f1c:	b084      	sub	sp, #16
 8005f1e:	af00      	add	r7, sp, #0
 8005f20:	6078      	str	r0, [r7, #4]
 8005f22:	6039      	str	r1, [r7, #0]
 8005f24:	687b      	ldr	r3, [r7, #4]
 8005f26:	60fb      	str	r3, [r7, #12]
 8005f28:	68fb      	ldr	r3, [r7, #12]
 8005f2a:	2b00      	cmp	r3, #0
 8005f2c:	d101      	bne.n	8005f32 <xQueueGenericReset+0x18>
 8005f2e:	b672      	cpsid	i
 8005f30:	e7fe      	b.n	8005f30 <xQueueGenericReset+0x16>
 8005f32:	f001 fdcd 	bl	8007ad0 <vPortEnterCritical>
 8005f36:	68fb      	ldr	r3, [r7, #12]
 8005f38:	681a      	ldr	r2, [r3, #0]
 8005f3a:	68fb      	ldr	r3, [r7, #12]
 8005f3c:	6bd9      	ldr	r1, [r3, #60]	; 0x3c
 8005f3e:	68fb      	ldr	r3, [r7, #12]
 8005f40:	6c1b      	ldr	r3, [r3, #64]	; 0x40
 8005f42:	434b      	muls	r3, r1
 8005f44:	18d2      	adds	r2, r2, r3
 8005f46:	68fb      	ldr	r3, [r7, #12]
 8005f48:	605a      	str	r2, [r3, #4]
 8005f4a:	68fb      	ldr	r3, [r7, #12]
 8005f4c:	2200      	movs	r2, #0
 8005f4e:	639a      	str	r2, [r3, #56]	; 0x38
 8005f50:	68fb      	ldr	r3, [r7, #12]
 8005f52:	681a      	ldr	r2, [r3, #0]
 8005f54:	68fb      	ldr	r3, [r7, #12]
 8005f56:	609a      	str	r2, [r3, #8]
 8005f58:	68fb      	ldr	r3, [r7, #12]
 8005f5a:	681a      	ldr	r2, [r3, #0]
 8005f5c:	68fb      	ldr	r3, [r7, #12]
 8005f5e:	6bdb      	ldr	r3, [r3, #60]	; 0x3c
 8005f60:	1e59      	subs	r1, r3, #1
 8005f62:	68fb      	ldr	r3, [r7, #12]
 8005f64:	6c1b      	ldr	r3, [r3, #64]	; 0x40
 8005f66:	434b      	muls	r3, r1
 8005f68:	18d2      	adds	r2, r2, r3
 8005f6a:	68fb      	ldr	r3, [r7, #12]
 8005f6c:	60da      	str	r2, [r3, #12]
 8005f6e:	68fb      	ldr	r3, [r7, #12]
 8005f70:	2244      	movs	r2, #68	; 0x44
 8005f72:	21ff      	movs	r1, #255	; 0xff
 8005f74:	5499      	strb	r1, [r3, r2]
 8005f76:	68fb      	ldr	r3, [r7, #12]
 8005f78:	2245      	movs	r2, #69	; 0x45
 8005f7a:	21ff      	movs	r1, #255	; 0xff
 8005f7c:	5499      	strb	r1, [r3, r2]
 8005f7e:	683b      	ldr	r3, [r7, #0]
 8005f80:	2b00      	cmp	r3, #0
 8005f82:	d10d      	bne.n	8005fa0 <xQueueGenericReset+0x86>
 8005f84:	68fb      	ldr	r3, [r7, #12]
 8005f86:	691b      	ldr	r3, [r3, #16]
 8005f88:	2b00      	cmp	r3, #0
 8005f8a:	d013      	beq.n	8005fb4 <xQueueGenericReset+0x9a>
 8005f8c:	68fb      	ldr	r3, [r7, #12]
 8005f8e:	3310      	adds	r3, #16
 8005f90:	0018      	movs	r0, r3
 8005f92:	f000 ffcd 	bl	8006f30 <xTaskRemoveFromEventList>
 8005f96:	1e03      	subs	r3, r0, #0
 8005f98:	d00c      	beq.n	8005fb4 <xQueueGenericReset+0x9a>
 8005f9a:	f001 fd89 	bl	8007ab0 <vPortYield>
 8005f9e:	e009      	b.n	8005fb4 <xQueueGenericReset+0x9a>
 8005fa0:	68fb      	ldr	r3, [r7, #12]
 8005fa2:	3310      	adds	r3, #16
 8005fa4:	0018      	movs	r0, r3
 8005fa6:	f7ff ff0f 	bl	8005dc8 <vListInitialise>
 8005faa:	68fb      	ldr	r3, [r7, #12]
 8005fac:	3324      	adds	r3, #36	; 0x24
 8005fae:	0018      	movs	r0, r3
 8005fb0:	f7ff ff0a 	bl	8005dc8 <vListInitialise>
 8005fb4:	f001 fd9e 	bl	8007af4 <vPortExitCritical>
 8005fb8:	2301      	movs	r3, #1
 8005fba:	0018      	movs	r0, r3
 8005fbc:	46bd      	mov	sp, r7
 8005fbe:	b004      	add	sp, #16
 8005fc0:	bd80      	pop	{r7, pc}

08005fc2 <xQueueGenericCreateStatic>:
 8005fc2:	b590      	push	{r4, r7, lr}
 8005fc4:	b089      	sub	sp, #36	; 0x24
 8005fc6:	af02      	add	r7, sp, #8
 8005fc8:	60f8      	str	r0, [r7, #12]
 8005fca:	60b9      	str	r1, [r7, #8]
 8005fcc:	607a      	str	r2, [r7, #4]
 8005fce:	603b      	str	r3, [r7, #0]
 8005fd0:	68fb      	ldr	r3, [r7, #12]
 8005fd2:	2b00      	cmp	r3, #0
 8005fd4:	d101      	bne.n	8005fda <xQueueGenericCreateStatic+0x18>
 8005fd6:	b672      	cpsid	i
 8005fd8:	e7fe      	b.n	8005fd8 <xQueueGenericCreateStatic+0x16>
 8005fda:	683b      	ldr	r3, [r7, #0]
 8005fdc:	2b00      	cmp	r3, #0
 8005fde:	d101      	bne.n	8005fe4 <xQueueGenericCreateStatic+0x22>
 8005fe0:	b672      	cpsid	i
 8005fe2:	e7fe      	b.n	8005fe2 <xQueueGenericCreateStatic+0x20>
 8005fe4:	687b      	ldr	r3, [r7, #4]
 8005fe6:	2b00      	cmp	r3, #0
 8005fe8:	d002      	beq.n	8005ff0 <xQueueGenericCreateStatic+0x2e>
 8005fea:	68bb      	ldr	r3, [r7, #8]
 8005fec:	2b00      	cmp	r3, #0
 8005fee:	d001      	beq.n	8005ff4 <xQueueGenericCreateStatic+0x32>
 8005ff0:	2301      	movs	r3, #1
 8005ff2:	e000      	b.n	8005ff6 <xQueueGenericCreateStatic+0x34>
 8005ff4:	2300      	movs	r3, #0
 8005ff6:	2b00      	cmp	r3, #0
 8005ff8:	d101      	bne.n	8005ffe <xQueueGenericCreateStatic+0x3c>
 8005ffa:	b672      	cpsid	i
 8005ffc:	e7fe      	b.n	8005ffc <xQueueGenericCreateStatic+0x3a>
 8005ffe:	687b      	ldr	r3, [r7, #4]
 8006000:	2b00      	cmp	r3, #0
 8006002:	d102      	bne.n	800600a <xQueueGenericCreateStatic+0x48>
 8006004:	68bb      	ldr	r3, [r7, #8]
 8006006:	2b00      	cmp	r3, #0
 8006008:	d101      	bne.n	800600e <xQueueGenericCreateStatic+0x4c>
 800600a:	2301      	movs	r3, #1
 800600c:	e000      	b.n	8006010 <xQueueGenericCreateStatic+0x4e>
 800600e:	2300      	movs	r3, #0
 8006010:	2b00      	cmp	r3, #0
 8006012:	d101      	bne.n	8006018 <xQueueGenericCreateStatic+0x56>
 8006014:	b672      	cpsid	i
 8006016:	e7fe      	b.n	8006016 <xQueueGenericCreateStatic+0x54>
 8006018:	2350      	movs	r3, #80	; 0x50
 800601a:	613b      	str	r3, [r7, #16]
 800601c:	693b      	ldr	r3, [r7, #16]
 800601e:	2b50      	cmp	r3, #80	; 0x50
 8006020:	d001      	beq.n	8006026 <xQueueGenericCreateStatic+0x64>
 8006022:	b672      	cpsid	i
 8006024:	e7fe      	b.n	8006024 <xQueueGenericCreateStatic+0x62>
 8006026:	683b      	ldr	r3, [r7, #0]
 8006028:	617b      	str	r3, [r7, #20]
 800602a:	697b      	ldr	r3, [r7, #20]
 800602c:	2b00      	cmp	r3, #0
 800602e:	d00e      	beq.n	800604e <xQueueGenericCreateStatic+0x8c>
 8006030:	697b      	ldr	r3, [r7, #20]
 8006032:	2246      	movs	r2, #70	; 0x46
 8006034:	2101      	movs	r1, #1
 8006036:	5499      	strb	r1, [r3, r2]
 8006038:	2328      	movs	r3, #40	; 0x28
 800603a:	18fb      	adds	r3, r7, r3
 800603c:	781c      	ldrb	r4, [r3, #0]
 800603e:	687a      	ldr	r2, [r7, #4]
 8006040:	68b9      	ldr	r1, [r7, #8]
 8006042:	68f8      	ldr	r0, [r7, #12]
 8006044:	697b      	ldr	r3, [r7, #20]
 8006046:	9300      	str	r3, [sp, #0]
 8006048:	0023      	movs	r3, r4
 800604a:	f000 f805 	bl	8006058 <prvInitialiseNewQueue>
 800604e:	697b      	ldr	r3, [r7, #20]
 8006050:	0018      	movs	r0, r3
 8006052:	46bd      	mov	sp, r7
 8006054:	b007      	add	sp, #28
 8006056:	bd90      	pop	{r4, r7, pc}

08006058 <prvInitialiseNewQueue>:
 8006058:	b580      	push	{r7, lr}
 800605a:	b084      	sub	sp, #16
 800605c:	af00      	add	r7, sp, #0
 800605e:	60f8      	str	r0, [r7, #12]
 8006060:	60b9      	str	r1, [r7, #8]
 8006062:	607a      	str	r2, [r7, #4]
 8006064:	001a      	movs	r2, r3
 8006066:	1cfb      	adds	r3, r7, #3
 8006068:	701a      	strb	r2, [r3, #0]
 800606a:	68bb      	ldr	r3, [r7, #8]
 800606c:	2b00      	cmp	r3, #0
 800606e:	d103      	bne.n	8006078 <prvInitialiseNewQueue+0x20>
 8006070:	69bb      	ldr	r3, [r7, #24]
 8006072:	69ba      	ldr	r2, [r7, #24]
 8006074:	601a      	str	r2, [r3, #0]
 8006076:	e002      	b.n	800607e <prvInitialiseNewQueue+0x26>
 8006078:	69bb      	ldr	r3, [r7, #24]
 800607a:	687a      	ldr	r2, [r7, #4]
 800607c:	601a      	str	r2, [r3, #0]
 800607e:	69bb      	ldr	r3, [r7, #24]
 8006080:	68fa      	ldr	r2, [r7, #12]
 8006082:	63da      	str	r2, [r3, #60]	; 0x3c
 8006084:	69bb      	ldr	r3, [r7, #24]
 8006086:	68ba      	ldr	r2, [r7, #8]
 8006088:	641a      	str	r2, [r3, #64]	; 0x40
 800608a:	69bb      	ldr	r3, [r7, #24]
 800608c:	2101      	movs	r1, #1
 800608e:	0018      	movs	r0, r3
 8006090:	f7ff ff43 	bl	8005f1a <xQueueGenericReset>
 8006094:	69bb      	ldr	r3, [r7, #24]
 8006096:	1cfa      	adds	r2, r7, #3
 8006098:	214c      	movs	r1, #76	; 0x4c
 800609a:	7812      	ldrb	r2, [r2, #0]
 800609c:	545a      	strb	r2, [r3, r1]
 800609e:	46c0      	nop			; (mov r8, r8)
 80060a0:	46bd      	mov	sp, r7
 80060a2:	b004      	add	sp, #16
 80060a4:	bd80      	pop	{r7, pc}

080060a6 <xQueueGenericSend>:
 80060a6:	b580      	push	{r7, lr}
 80060a8:	b08a      	sub	sp, #40	; 0x28
 80060aa:	af00      	add	r7, sp, #0
 80060ac:	60f8      	str	r0, [r7, #12]
 80060ae:	60b9      	str	r1, [r7, #8]
 80060b0:	607a      	str	r2, [r7, #4]
 80060b2:	603b      	str	r3, [r7, #0]
 80060b4:	2300      	movs	r3, #0
 80060b6:	627b      	str	r3, [r7, #36]	; 0x24
 80060b8:	68fb      	ldr	r3, [r7, #12]
 80060ba:	623b      	str	r3, [r7, #32]
 80060bc:	6a3b      	ldr	r3, [r7, #32]
 80060be:	2b00      	cmp	r3, #0
 80060c0:	d101      	bne.n	80060c6 <xQueueGenericSend+0x20>
 80060c2:	b672      	cpsid	i
 80060c4:	e7fe      	b.n	80060c4 <xQueueGenericSend+0x1e>
 80060c6:	68bb      	ldr	r3, [r7, #8]
 80060c8:	2b00      	cmp	r3, #0
 80060ca:	d103      	bne.n	80060d4 <xQueueGenericSend+0x2e>
 80060cc:	6a3b      	ldr	r3, [r7, #32]
 80060ce:	6c1b      	ldr	r3, [r3, #64]	; 0x40
 80060d0:	2b00      	cmp	r3, #0
 80060d2:	d101      	bne.n	80060d8 <xQueueGenericSend+0x32>
 80060d4:	2301      	movs	r3, #1
 80060d6:	e000      	b.n	80060da <xQueueGenericSend+0x34>
 80060d8:	2300      	movs	r3, #0
 80060da:	2b00      	cmp	r3, #0
 80060dc:	d101      	bne.n	80060e2 <xQueueGenericSend+0x3c>
 80060de:	b672      	cpsid	i
 80060e0:	e7fe      	b.n	80060e0 <xQueueGenericSend+0x3a>
 80060e2:	683b      	ldr	r3, [r7, #0]
 80060e4:	2b02      	cmp	r3, #2
 80060e6:	d103      	bne.n	80060f0 <xQueueGenericSend+0x4a>
 80060e8:	6a3b      	ldr	r3, [r7, #32]
 80060ea:	6bdb      	ldr	r3, [r3, #60]	; 0x3c
 80060ec:	2b01      	cmp	r3, #1
 80060ee:	d101      	bne.n	80060f4 <xQueueGenericSend+0x4e>
 80060f0:	2301      	movs	r3, #1
 80060f2:	e000      	b.n	80060f6 <xQueueGenericSend+0x50>
 80060f4:	2300      	movs	r3, #0
 80060f6:	2b00      	cmp	r3, #0
 80060f8:	d101      	bne.n	80060fe <xQueueGenericSend+0x58>
 80060fa:	b672      	cpsid	i
 80060fc:	e7fe      	b.n	80060fc <xQueueGenericSend+0x56>
 80060fe:	f001 f8af 	bl	8007260 <xTaskGetSchedulerState>
 8006102:	1e03      	subs	r3, r0, #0
 8006104:	d102      	bne.n	800610c <xQueueGenericSend+0x66>
 8006106:	687b      	ldr	r3, [r7, #4]
 8006108:	2b00      	cmp	r3, #0
 800610a:	d101      	bne.n	8006110 <xQueueGenericSend+0x6a>
 800610c:	2301      	movs	r3, #1
 800610e:	e000      	b.n	8006112 <xQueueGenericSend+0x6c>
 8006110:	2300      	movs	r3, #0
 8006112:	2b00      	cmp	r3, #0
 8006114:	d101      	bne.n	800611a <xQueueGenericSend+0x74>
 8006116:	b672      	cpsid	i
 8006118:	e7fe      	b.n	8006118 <xQueueGenericSend+0x72>
 800611a:	f001 fcd9 	bl	8007ad0 <vPortEnterCritical>
 800611e:	6a3b      	ldr	r3, [r7, #32]
 8006120:	6b9a      	ldr	r2, [r3, #56]	; 0x38
 8006122:	6a3b      	ldr	r3, [r7, #32]
 8006124:	6bdb      	ldr	r3, [r3, #60]	; 0x3c
 8006126:	429a      	cmp	r2, r3
 8006128:	d302      	bcc.n	8006130 <xQueueGenericSend+0x8a>
 800612a:	683b      	ldr	r3, [r7, #0]
 800612c:	2b02      	cmp	r3, #2
 800612e:	d11e      	bne.n	800616e <xQueueGenericSend+0xc8>
 8006130:	683a      	ldr	r2, [r7, #0]
 8006132:	68b9      	ldr	r1, [r7, #8]
 8006134:	6a3b      	ldr	r3, [r7, #32]
 8006136:	0018      	movs	r0, r3
 8006138:	f000 f99f 	bl	800647a <prvCopyDataToQueue>
 800613c:	0003      	movs	r3, r0
 800613e:	61fb      	str	r3, [r7, #28]
 8006140:	6a3b      	ldr	r3, [r7, #32]
 8006142:	6a5b      	ldr	r3, [r3, #36]	; 0x24
 8006144:	2b00      	cmp	r3, #0
 8006146:	d009      	beq.n	800615c <xQueueGenericSend+0xb6>
 8006148:	6a3b      	ldr	r3, [r7, #32]
 800614a:	3324      	adds	r3, #36	; 0x24
 800614c:	0018      	movs	r0, r3
 800614e:	f000 feef 	bl	8006f30 <xTaskRemoveFromEventList>
 8006152:	1e03      	subs	r3, r0, #0
 8006154:	d007      	beq.n	8006166 <xQueueGenericSend+0xc0>
 8006156:	f001 fcab 	bl	8007ab0 <vPortYield>
 800615a:	e004      	b.n	8006166 <xQueueGenericSend+0xc0>
 800615c:	69fb      	ldr	r3, [r7, #28]
 800615e:	2b00      	cmp	r3, #0
 8006160:	d001      	beq.n	8006166 <xQueueGenericSend+0xc0>
 8006162:	f001 fca5 	bl	8007ab0 <vPortYield>
 8006166:	f001 fcc5 	bl	8007af4 <vPortExitCritical>
 800616a:	2301      	movs	r3, #1
 800616c:	e05b      	b.n	8006226 <xQueueGenericSend+0x180>
 800616e:	687b      	ldr	r3, [r7, #4]
 8006170:	2b00      	cmp	r3, #0
 8006172:	d103      	bne.n	800617c <xQueueGenericSend+0xd6>
 8006174:	f001 fcbe 	bl	8007af4 <vPortExitCritical>
 8006178:	2300      	movs	r3, #0
 800617a:	e054      	b.n	8006226 <xQueueGenericSend+0x180>
 800617c:	6a7b      	ldr	r3, [r7, #36]	; 0x24
 800617e:	2b00      	cmp	r3, #0
 8006180:	d106      	bne.n	8006190 <xQueueGenericSend+0xea>
 8006182:	2314      	movs	r3, #20
 8006184:	18fb      	adds	r3, r7, r3
 8006186:	0018      	movs	r0, r3
 8006188:	f000 ff2e 	bl	8006fe8 <vTaskInternalSetTimeOutState>
 800618c:	2301      	movs	r3, #1
 800618e:	627b      	str	r3, [r7, #36]	; 0x24
 8006190:	f001 fcb0 	bl	8007af4 <vPortExitCritical>
 8006194:	f000 fcdc 	bl	8006b50 <vTaskSuspendAll>
 8006198:	f001 fc9a 	bl	8007ad0 <vPortEnterCritical>
 800619c:	6a3b      	ldr	r3, [r7, #32]
 800619e:	2244      	movs	r2, #68	; 0x44
 80061a0:	5c9b      	ldrb	r3, [r3, r2]
 80061a2:	b25b      	sxtb	r3, r3
 80061a4:	3301      	adds	r3, #1
 80061a6:	d103      	bne.n	80061b0 <xQueueGenericSend+0x10a>
 80061a8:	6a3b      	ldr	r3, [r7, #32]
 80061aa:	2244      	movs	r2, #68	; 0x44
 80061ac:	2100      	movs	r1, #0
 80061ae:	5499      	strb	r1, [r3, r2]
 80061b0:	6a3b      	ldr	r3, [r7, #32]
 80061b2:	2245      	movs	r2, #69	; 0x45
 80061b4:	5c9b      	ldrb	r3, [r3, r2]
 80061b6:	b25b      	sxtb	r3, r3
 80061b8:	3301      	adds	r3, #1
 80061ba:	d103      	bne.n	80061c4 <xQueueGenericSend+0x11e>
 80061bc:	6a3b      	ldr	r3, [r7, #32]
 80061be:	2245      	movs	r2, #69	; 0x45
 80061c0:	2100      	movs	r1, #0
 80061c2:	5499      	strb	r1, [r3, r2]
 80061c4:	f001 fc96 	bl	8007af4 <vPortExitCritical>
 80061c8:	1d3a      	adds	r2, r7, #4
 80061ca:	2314      	movs	r3, #20
 80061cc:	18fb      	adds	r3, r7, r3
 80061ce:	0011      	movs	r1, r2
 80061d0:	0018      	movs	r0, r3
 80061d2:	f000 ff1d 	bl	8007010 <xTaskCheckForTimeOut>
 80061d6:	1e03      	subs	r3, r0, #0
 80061d8:	d11e      	bne.n	8006218 <xQueueGenericSend+0x172>
 80061da:	6a3b      	ldr	r3, [r7, #32]
 80061dc:	0018      	movs	r0, r3
 80061de:	f000 fa51 	bl	8006684 <prvIsQueueFull>
 80061e2:	1e03      	subs	r3, r0, #0
 80061e4:	d011      	beq.n	800620a <xQueueGenericSend+0x164>
 80061e6:	6a3b      	ldr	r3, [r7, #32]
 80061e8:	3310      	adds	r3, #16
 80061ea:	687a      	ldr	r2, [r7, #4]
 80061ec:	0011      	movs	r1, r2
 80061ee:	0018      	movs	r0, r3
 80061f0:	f000 fe5a 	bl	8006ea8 <vTaskPlaceOnEventList>
 80061f4:	6a3b      	ldr	r3, [r7, #32]
 80061f6:	0018      	movs	r0, r3
 80061f8:	f000 f9d0 	bl	800659c <prvUnlockQueue>
 80061fc:	f000 fcb4 	bl	8006b68 <xTaskResumeAll>
 8006200:	1e03      	subs	r3, r0, #0
 8006202:	d18a      	bne.n	800611a <xQueueGenericSend+0x74>
 8006204:	f001 fc54 	bl	8007ab0 <vPortYield>
 8006208:	e787      	b.n	800611a <xQueueGenericSend+0x74>
 800620a:	6a3b      	ldr	r3, [r7, #32]
 800620c:	0018      	movs	r0, r3
 800620e:	f000 f9c5 	bl	800659c <prvUnlockQueue>
 8006212:	f000 fca9 	bl	8006b68 <xTaskResumeAll>
 8006216:	e780      	b.n	800611a <xQueueGenericSend+0x74>
 8006218:	6a3b      	ldr	r3, [r7, #32]
 800621a:	0018      	movs	r0, r3
 800621c:	f000 f9be 	bl	800659c <prvUnlockQueue>
 8006220:	f000 fca2 	bl	8006b68 <xTaskResumeAll>
 8006224:	2300      	movs	r3, #0
 8006226:	0018      	movs	r0, r3
 8006228:	46bd      	mov	sp, r7
 800622a:	b00a      	add	sp, #40	; 0x28
 800622c:	bd80      	pop	{r7, pc}

0800622e <xQueueGenericSendFromISR>:
 800622e:	b590      	push	{r4, r7, lr}
 8006230:	b089      	sub	sp, #36	; 0x24
 8006232:	af00      	add	r7, sp, #0
 8006234:	60f8      	str	r0, [r7, #12]
 8006236:	60b9      	str	r1, [r7, #8]
 8006238:	607a      	str	r2, [r7, #4]
 800623a:	603b      	str	r3, [r7, #0]
 800623c:	68fb      	ldr	r3, [r7, #12]
 800623e:	61bb      	str	r3, [r7, #24]
 8006240:	69bb      	ldr	r3, [r7, #24]
 8006242:	2b00      	cmp	r3, #0
 8006244:	d101      	bne.n	800624a <xQueueGenericSendFromISR+0x1c>
 8006246:	b672      	cpsid	i
 8006248:	e7fe      	b.n	8006248 <xQueueGenericSendFromISR+0x1a>
 800624a:	68bb      	ldr	r3, [r7, #8]
 800624c:	2b00      	cmp	r3, #0
 800624e:	d103      	bne.n	8006258 <xQueueGenericSendFromISR+0x2a>
 8006250:	69bb      	ldr	r3, [r7, #24]
 8006252:	6c1b      	ldr	r3, [r3, #64]	; 0x40
 8006254:	2b00      	cmp	r3, #0
 8006256:	d101      	bne.n	800625c <xQueueGenericSendFromISR+0x2e>
 8006258:	2301      	movs	r3, #1
 800625a:	e000      	b.n	800625e <xQueueGenericSendFromISR+0x30>
 800625c:	2300      	movs	r3, #0
 800625e:	2b00      	cmp	r3, #0
 8006260:	d101      	bne.n	8006266 <xQueueGenericSendFromISR+0x38>
 8006262:	b672      	cpsid	i
 8006264:	e7fe      	b.n	8006264 <xQueueGenericSendFromISR+0x36>
 8006266:	683b      	ldr	r3, [r7, #0]
 8006268:	2b02      	cmp	r3, #2
 800626a:	d103      	bne.n	8006274 <xQueueGenericSendFromISR+0x46>
 800626c:	69bb      	ldr	r3, [r7, #24]
 800626e:	6bdb      	ldr	r3, [r3, #60]	; 0x3c
 8006270:	2b01      	cmp	r3, #1
 8006272:	d101      	bne.n	8006278 <xQueueGenericSendFromISR+0x4a>
 8006274:	2301      	movs	r3, #1
 8006276:	e000      	b.n	800627a <xQueueGenericSendFromISR+0x4c>
 8006278:	2300      	movs	r3, #0
 800627a:	2b00      	cmp	r3, #0
 800627c:	d101      	bne.n	8006282 <xQueueGenericSendFromISR+0x54>
 800627e:	b672      	cpsid	i
 8006280:	e7fe      	b.n	8006280 <xQueueGenericSendFromISR+0x52>
 8006282:	f001 fc4f 	bl	8007b24 <ulSetInterruptMaskFromISR>
 8006286:	0003      	movs	r3, r0
 8006288:	617b      	str	r3, [r7, #20]
 800628a:	69bb      	ldr	r3, [r7, #24]
 800628c:	6b9a      	ldr	r2, [r3, #56]	; 0x38
 800628e:	69bb      	ldr	r3, [r7, #24]
 8006290:	6bdb      	ldr	r3, [r3, #60]	; 0x3c
 8006292:	429a      	cmp	r2, r3
 8006294:	d302      	bcc.n	800629c <xQueueGenericSendFromISR+0x6e>
 8006296:	683b      	ldr	r3, [r7, #0]
 8006298:	2b02      	cmp	r3, #2
 800629a:	d12e      	bne.n	80062fa <xQueueGenericSendFromISR+0xcc>
 800629c:	2413      	movs	r4, #19
 800629e:	193b      	adds	r3, r7, r4
 80062a0:	69ba      	ldr	r2, [r7, #24]
 80062a2:	2145      	movs	r1, #69	; 0x45
 80062a4:	5c52      	ldrb	r2, [r2, r1]
 80062a6:	701a      	strb	r2, [r3, #0]
 80062a8:	683a      	ldr	r2, [r7, #0]
 80062aa:	68b9      	ldr	r1, [r7, #8]
 80062ac:	69bb      	ldr	r3, [r7, #24]
 80062ae:	0018      	movs	r0, r3
 80062b0:	f000 f8e3 	bl	800647a <prvCopyDataToQueue>
 80062b4:	193b      	adds	r3, r7, r4
 80062b6:	781b      	ldrb	r3, [r3, #0]
 80062b8:	b25b      	sxtb	r3, r3
 80062ba:	3301      	adds	r3, #1
 80062bc:	d111      	bne.n	80062e2 <xQueueGenericSendFromISR+0xb4>
 80062be:	69bb      	ldr	r3, [r7, #24]
 80062c0:	6a5b      	ldr	r3, [r3, #36]	; 0x24
 80062c2:	2b00      	cmp	r3, #0
 80062c4:	d016      	beq.n	80062f4 <xQueueGenericSendFromISR+0xc6>
 80062c6:	69bb      	ldr	r3, [r7, #24]
 80062c8:	3324      	adds	r3, #36	; 0x24
 80062ca:	0018      	movs	r0, r3
 80062cc:	f000 fe30 	bl	8006f30 <xTaskRemoveFromEventList>
 80062d0:	1e03      	subs	r3, r0, #0
 80062d2:	d00f      	beq.n	80062f4 <xQueueGenericSendFromISR+0xc6>
 80062d4:	687b      	ldr	r3, [r7, #4]
 80062d6:	2b00      	cmp	r3, #0
 80062d8:	d00c      	beq.n	80062f4 <xQueueGenericSendFromISR+0xc6>
 80062da:	687b      	ldr	r3, [r7, #4]
 80062dc:	2201      	movs	r2, #1
 80062de:	601a      	str	r2, [r3, #0]
 80062e0:	e008      	b.n	80062f4 <xQueueGenericSendFromISR+0xc6>
 80062e2:	2313      	movs	r3, #19
 80062e4:	18fb      	adds	r3, r7, r3
 80062e6:	781b      	ldrb	r3, [r3, #0]
 80062e8:	3301      	adds	r3, #1
 80062ea:	b2db      	uxtb	r3, r3
 80062ec:	b259      	sxtb	r1, r3
 80062ee:	69bb      	ldr	r3, [r7, #24]
 80062f0:	2245      	movs	r2, #69	; 0x45
 80062f2:	5499      	strb	r1, [r3, r2]
 80062f4:	2301      	movs	r3, #1
 80062f6:	61fb      	str	r3, [r7, #28]
 80062f8:	e001      	b.n	80062fe <xQueueGenericSendFromISR+0xd0>
 80062fa:	2300      	movs	r3, #0
 80062fc:	61fb      	str	r3, [r7, #28]
 80062fe:	697b      	ldr	r3, [r7, #20]
 8006300:	0018      	movs	r0, r3
 8006302:	f001 fc15 	bl	8007b30 <vClearInterruptMaskFromISR>
 8006306:	69fb      	ldr	r3, [r7, #28]
 8006308:	0018      	movs	r0, r3
 800630a:	46bd      	mov	sp, r7
 800630c:	b009      	add	sp, #36	; 0x24
 800630e:	bd90      	pop	{r4, r7, pc}

08006310 <xQueueReceive>:
 8006310:	b580      	push	{r7, lr}
 8006312:	b08a      	sub	sp, #40	; 0x28
 8006314:	af00      	add	r7, sp, #0
 8006316:	60f8      	str	r0, [r7, #12]
 8006318:	60b9      	str	r1, [r7, #8]
 800631a:	607a      	str	r2, [r7, #4]
 800631c:	2300      	movs	r3, #0
 800631e:	627b      	str	r3, [r7, #36]	; 0x24
 8006320:	68fb      	ldr	r3, [r7, #12]
 8006322:	623b      	str	r3, [r7, #32]
 8006324:	6a3b      	ldr	r3, [r7, #32]
 8006326:	2b00      	cmp	r3, #0
 8006328:	d101      	bne.n	800632e <xQueueReceive+0x1e>
 800632a:	b672      	cpsid	i
 800632c:	e7fe      	b.n	800632c <xQueueReceive+0x1c>
 800632e:	68bb      	ldr	r3, [r7, #8]
 8006330:	2b00      	cmp	r3, #0
 8006332:	d103      	bne.n	800633c <xQueueReceive+0x2c>
 8006334:	6a3b      	ldr	r3, [r7, #32]
 8006336:	6c1b      	ldr	r3, [r3, #64]	; 0x40
 8006338:	2b00      	cmp	r3, #0
 800633a:	d101      	bne.n	8006340 <xQueueReceive+0x30>
 800633c:	2301      	movs	r3, #1
 800633e:	e000      	b.n	8006342 <xQueueReceive+0x32>
 8006340:	2300      	movs	r3, #0
 8006342:	2b00      	cmp	r3, #0
 8006344:	d101      	bne.n	800634a <xQueueReceive+0x3a>
 8006346:	b672      	cpsid	i
 8006348:	e7fe      	b.n	8006348 <xQueueReceive+0x38>
 800634a:	f000 ff89 	bl	8007260 <xTaskGetSchedulerState>
 800634e:	1e03      	subs	r3, r0, #0
 8006350:	d102      	bne.n	8006358 <xQueueReceive+0x48>
 8006352:	687b      	ldr	r3, [r7, #4]
 8006354:	2b00      	cmp	r3, #0
 8006356:	d101      	bne.n	800635c <xQueueReceive+0x4c>
 8006358:	2301      	movs	r3, #1
 800635a:	e000      	b.n	800635e <xQueueReceive+0x4e>
 800635c:	2300      	movs	r3, #0
 800635e:	2b00      	cmp	r3, #0
 8006360:	d101      	bne.n	8006366 <xQueueReceive+0x56>
 8006362:	b672      	cpsid	i
 8006364:	e7fe      	b.n	8006364 <xQueueReceive+0x54>
 8006366:	f001 fbb3 	bl	8007ad0 <vPortEnterCritical>
 800636a:	6a3b      	ldr	r3, [r7, #32]
 800636c:	6b9b      	ldr	r3, [r3, #56]	; 0x38
 800636e:	61fb      	str	r3, [r7, #28]
 8006370:	69fb      	ldr	r3, [r7, #28]
 8006372:	2b00      	cmp	r3, #0
 8006374:	d01a      	beq.n	80063ac <xQueueReceive+0x9c>
 8006376:	68ba      	ldr	r2, [r7, #8]
 8006378:	6a3b      	ldr	r3, [r7, #32]
 800637a:	0011      	movs	r1, r2
 800637c:	0018      	movs	r0, r3
 800637e:	f000 f8e7 	bl	8006550 <prvCopyDataFromQueue>
 8006382:	69fb      	ldr	r3, [r7, #28]
 8006384:	1e5a      	subs	r2, r3, #1
 8006386:	6a3b      	ldr	r3, [r7, #32]
 8006388:	639a      	str	r2, [r3, #56]	; 0x38
 800638a:	6a3b      	ldr	r3, [r7, #32]
 800638c:	691b      	ldr	r3, [r3, #16]
 800638e:	2b00      	cmp	r3, #0
 8006390:	d008      	beq.n	80063a4 <xQueueReceive+0x94>
 8006392:	6a3b      	ldr	r3, [r7, #32]
 8006394:	3310      	adds	r3, #16
 8006396:	0018      	movs	r0, r3
 8006398:	f000 fdca 	bl	8006f30 <xTaskRemoveFromEventList>
 800639c:	1e03      	subs	r3, r0, #0
 800639e:	d001      	beq.n	80063a4 <xQueueReceive+0x94>
 80063a0:	f001 fb86 	bl	8007ab0 <vPortYield>
 80063a4:	f001 fba6 	bl	8007af4 <vPortExitCritical>
 80063a8:	2301      	movs	r3, #1
 80063aa:	e062      	b.n	8006472 <xQueueReceive+0x162>
 80063ac:	687b      	ldr	r3, [r7, #4]
 80063ae:	2b00      	cmp	r3, #0
 80063b0:	d103      	bne.n	80063ba <xQueueReceive+0xaa>
 80063b2:	f001 fb9f 	bl	8007af4 <vPortExitCritical>
 80063b6:	2300      	movs	r3, #0
 80063b8:	e05b      	b.n	8006472 <xQueueReceive+0x162>
 80063ba:	6a7b      	ldr	r3, [r7, #36]	; 0x24
 80063bc:	2b00      	cmp	r3, #0
 80063be:	d106      	bne.n	80063ce <xQueueReceive+0xbe>
 80063c0:	2314      	movs	r3, #20
 80063c2:	18fb      	adds	r3, r7, r3
 80063c4:	0018      	movs	r0, r3
 80063c6:	f000 fe0f 	bl	8006fe8 <vTaskInternalSetTimeOutState>
 80063ca:	2301      	movs	r3, #1
 80063cc:	627b      	str	r3, [r7, #36]	; 0x24
 80063ce:	f001 fb91 	bl	8007af4 <vPortExitCritical>
 80063d2:	f000 fbbd 	bl	8006b50 <vTaskSuspendAll>
 80063d6:	f001 fb7b 	bl	8007ad0 <vPortEnterCritical>
 80063da:	6a3b      	ldr	r3, [r7, #32]
 80063dc:	2244      	movs	r2, #68	; 0x44
 80063de:	5c9b      	ldrb	r3, [r3, r2]
 80063e0:	b25b      	sxtb	r3, r3
 80063e2:	3301      	adds	r3, #1
 80063e4:	d103      	bne.n	80063ee <xQueueReceive+0xde>
 80063e6:	6a3b      	ldr	r3, [r7, #32]
 80063e8:	2244      	movs	r2, #68	; 0x44
 80063ea:	2100      	movs	r1, #0
 80063ec:	5499      	strb	r1, [r3, r2]
 80063ee:	6a3b      	ldr	r3, [r7, #32]
 80063f0:	2245      	movs	r2, #69	; 0x45
 80063f2:	5c9b      	ldrb	r3, [r3, r2]
 80063f4:	b25b      	sxtb	r3, r3
 80063f6:	3301      	adds	r3, #1
 80063f8:	d103      	bne.n	8006402 <xQueueReceive+0xf2>
 80063fa:	6a3b      	ldr	r3, [r7, #32]
 80063fc:	2245      	movs	r2, #69	; 0x45
 80063fe:	2100      	movs	r1, #0
 8006400:	5499      	strb	r1, [r3, r2]
 8006402:	f001 fb77 	bl	8007af4 <vPortExitCritical>
 8006406:	1d3a      	adds	r2, r7, #4
 8006408:	2314      	movs	r3, #20
 800640a:	18fb      	adds	r3, r7, r3
 800640c:	0011      	movs	r1, r2
 800640e:	0018      	movs	r0, r3
 8006410:	f000 fdfe 	bl	8007010 <xTaskCheckForTimeOut>
 8006414:	1e03      	subs	r3, r0, #0
 8006416:	d11e      	bne.n	8006456 <xQueueReceive+0x146>
 8006418:	6a3b      	ldr	r3, [r7, #32]
 800641a:	0018      	movs	r0, r3
 800641c:	f000 f91c 	bl	8006658 <prvIsQueueEmpty>
 8006420:	1e03      	subs	r3, r0, #0
 8006422:	d011      	beq.n	8006448 <xQueueReceive+0x138>
 8006424:	6a3b      	ldr	r3, [r7, #32]
 8006426:	3324      	adds	r3, #36	; 0x24
 8006428:	687a      	ldr	r2, [r7, #4]
 800642a:	0011      	movs	r1, r2
 800642c:	0018      	movs	r0, r3
 800642e:	f000 fd3b 	bl	8006ea8 <vTaskPlaceOnEventList>
 8006432:	6a3b      	ldr	r3, [r7, #32]
 8006434:	0018      	movs	r0, r3
 8006436:	f000 f8b1 	bl	800659c <prvUnlockQueue>
 800643a:	f000 fb95 	bl	8006b68 <xTaskResumeAll>
 800643e:	1e03      	subs	r3, r0, #0
 8006440:	d191      	bne.n	8006366 <xQueueReceive+0x56>
 8006442:	f001 fb35 	bl	8007ab0 <vPortYield>
 8006446:	e78e      	b.n	8006366 <xQueueReceive+0x56>
 8006448:	6a3b      	ldr	r3, [r7, #32]
 800644a:	0018      	movs	r0, r3
 800644c:	f000 f8a6 	bl	800659c <prvUnlockQueue>
 8006450:	f000 fb8a 	bl	8006b68 <xTaskResumeAll>
 8006454:	e787      	b.n	8006366 <xQueueReceive+0x56>
 8006456:	6a3b      	ldr	r3, [r7, #32]
 8006458:	0018      	movs	r0, r3
 800645a:	f000 f89f 	bl	800659c <prvUnlockQueue>
 800645e:	f000 fb83 	bl	8006b68 <xTaskResumeAll>
 8006462:	6a3b      	ldr	r3, [r7, #32]
 8006464:	0018      	movs	r0, r3
 8006466:	f000 f8f7 	bl	8006658 <prvIsQueueEmpty>
 800646a:	1e03      	subs	r3, r0, #0
 800646c:	d100      	bne.n	8006470 <xQueueReceive+0x160>
 800646e:	e77a      	b.n	8006366 <xQueueReceive+0x56>
 8006470:	2300      	movs	r3, #0
 8006472:	0018      	movs	r0, r3
 8006474:	46bd      	mov	sp, r7
 8006476:	b00a      	add	sp, #40	; 0x28
 8006478:	bd80      	pop	{r7, pc}

0800647a <prvCopyDataToQueue>:
 800647a:	b580      	push	{r7, lr}
 800647c:	b086      	sub	sp, #24
 800647e:	af00      	add	r7, sp, #0
 8006480:	60f8      	str	r0, [r7, #12]
 8006482:	60b9      	str	r1, [r7, #8]
 8006484:	607a      	str	r2, [r7, #4]
 8006486:	2300      	movs	r3, #0
 8006488:	617b      	str	r3, [r7, #20]
 800648a:	68fb      	ldr	r3, [r7, #12]
 800648c:	6b9b      	ldr	r3, [r3, #56]	; 0x38
 800648e:	613b      	str	r3, [r7, #16]
 8006490:	68fb      	ldr	r3, [r7, #12]
 8006492:	6c1b      	ldr	r3, [r3, #64]	; 0x40
 8006494:	2b00      	cmp	r3, #0
 8006496:	d10e      	bne.n	80064b6 <prvCopyDataToQueue+0x3c>
 8006498:	68fb      	ldr	r3, [r7, #12]
 800649a:	681b      	ldr	r3, [r3, #0]
 800649c:	2b00      	cmp	r3, #0
 800649e:	d14e      	bne.n	800653e <prvCopyDataToQueue+0xc4>
 80064a0:	68fb      	ldr	r3, [r7, #12]
 80064a2:	685b      	ldr	r3, [r3, #4]
 80064a4:	0018      	movs	r0, r3
 80064a6:	f000 fef7 	bl	8007298 <xTaskPriorityDisinherit>
 80064aa:	0003      	movs	r3, r0
 80064ac:	617b      	str	r3, [r7, #20]
 80064ae:	68fb      	ldr	r3, [r7, #12]
 80064b0:	2200      	movs	r2, #0
 80064b2:	605a      	str	r2, [r3, #4]
 80064b4:	e043      	b.n	800653e <prvCopyDataToQueue+0xc4>
 80064b6:	687b      	ldr	r3, [r7, #4]
 80064b8:	2b00      	cmp	r3, #0
 80064ba:	d119      	bne.n	80064f0 <prvCopyDataToQueue+0x76>
 80064bc:	68fb      	ldr	r3, [r7, #12]
 80064be:	6898      	ldr	r0, [r3, #8]
 80064c0:	68fb      	ldr	r3, [r7, #12]
 80064c2:	6c1a      	ldr	r2, [r3, #64]	; 0x40
 80064c4:	68bb      	ldr	r3, [r7, #8]
 80064c6:	0019      	movs	r1, r3
 80064c8:	f001 fd88 	bl	8007fdc <memcpy>
 80064cc:	68fb      	ldr	r3, [r7, #12]
 80064ce:	689a      	ldr	r2, [r3, #8]
 80064d0:	68fb      	ldr	r3, [r7, #12]
 80064d2:	6c1b      	ldr	r3, [r3, #64]	; 0x40
 80064d4:	18d2      	adds	r2, r2, r3
 80064d6:	68fb      	ldr	r3, [r7, #12]
 80064d8:	609a      	str	r2, [r3, #8]
 80064da:	68fb      	ldr	r3, [r7, #12]
 80064dc:	689a      	ldr	r2, [r3, #8]
 80064de:	68fb      	ldr	r3, [r7, #12]
 80064e0:	685b      	ldr	r3, [r3, #4]
 80064e2:	429a      	cmp	r2, r3
 80064e4:	d32b      	bcc.n	800653e <prvCopyDataToQueue+0xc4>
 80064e6:	68fb      	ldr	r3, [r7, #12]
 80064e8:	681a      	ldr	r2, [r3, #0]
 80064ea:	68fb      	ldr	r3, [r7, #12]
 80064ec:	609a      	str	r2, [r3, #8]
 80064ee:	e026      	b.n	800653e <prvCopyDataToQueue+0xc4>
 80064f0:	68fb      	ldr	r3, [r7, #12]
 80064f2:	68d8      	ldr	r0, [r3, #12]
 80064f4:	68fb      	ldr	r3, [r7, #12]
 80064f6:	6c1a      	ldr	r2, [r3, #64]	; 0x40
 80064f8:	68bb      	ldr	r3, [r7, #8]
 80064fa:	0019      	movs	r1, r3
 80064fc:	f001 fd6e 	bl	8007fdc <memcpy>
 8006500:	68fb      	ldr	r3, [r7, #12]
 8006502:	68da      	ldr	r2, [r3, #12]
 8006504:	68fb      	ldr	r3, [r7, #12]
 8006506:	6c1b      	ldr	r3, [r3, #64]	; 0x40
 8006508:	425b      	negs	r3, r3
 800650a:	18d2      	adds	r2, r2, r3
 800650c:	68fb      	ldr	r3, [r7, #12]
 800650e:	60da      	str	r2, [r3, #12]
 8006510:	68fb      	ldr	r3, [r7, #12]
 8006512:	68da      	ldr	r2, [r3, #12]
 8006514:	68fb      	ldr	r3, [r7, #12]
 8006516:	681b      	ldr	r3, [r3, #0]
 8006518:	429a      	cmp	r2, r3
 800651a:	d207      	bcs.n	800652c <prvCopyDataToQueue+0xb2>
 800651c:	68fb      	ldr	r3, [r7, #12]
 800651e:	685a      	ldr	r2, [r3, #4]
 8006520:	68fb      	ldr	r3, [r7, #12]
 8006522:	6c1b      	ldr	r3, [r3, #64]	; 0x40
 8006524:	425b      	negs	r3, r3
 8006526:	18d2      	adds	r2, r2, r3
 8006528:	68fb      	ldr	r3, [r7, #12]
 800652a:	60da      	str	r2, [r3, #12]
 800652c:	687b      	ldr	r3, [r7, #4]
 800652e:	2b02      	cmp	r3, #2
 8006530:	d105      	bne.n	800653e <prvCopyDataToQueue+0xc4>
 8006532:	693b      	ldr	r3, [r7, #16]
 8006534:	2b00      	cmp	r3, #0
 8006536:	d002      	beq.n	800653e <prvCopyDataToQueue+0xc4>
 8006538:	693b      	ldr	r3, [r7, #16]
 800653a:	3b01      	subs	r3, #1
 800653c:	613b      	str	r3, [r7, #16]
 800653e:	693b      	ldr	r3, [r7, #16]
 8006540:	1c5a      	adds	r2, r3, #1
 8006542:	68fb      	ldr	r3, [r7, #12]
 8006544:	639a      	str	r2, [r3, #56]	; 0x38
 8006546:	697b      	ldr	r3, [r7, #20]
 8006548:	0018      	movs	r0, r3
 800654a:	46bd      	mov	sp, r7
 800654c:	b006      	add	sp, #24
 800654e:	bd80      	pop	{r7, pc}

08006550 <prvCopyDataFromQueue>:
 8006550:	b580      	push	{r7, lr}
 8006552:	b082      	sub	sp, #8
 8006554:	af00      	add	r7, sp, #0
 8006556:	6078      	str	r0, [r7, #4]
 8006558:	6039      	str	r1, [r7, #0]
 800655a:	687b      	ldr	r3, [r7, #4]
 800655c:	6c1b      	ldr	r3, [r3, #64]	; 0x40
 800655e:	2b00      	cmp	r3, #0
 8006560:	d018      	beq.n	8006594 <prvCopyDataFromQueue+0x44>
 8006562:	687b      	ldr	r3, [r7, #4]
 8006564:	68da      	ldr	r2, [r3, #12]
 8006566:	687b      	ldr	r3, [r7, #4]
 8006568:	6c1b      	ldr	r3, [r3, #64]	; 0x40
 800656a:	18d2      	adds	r2, r2, r3
 800656c:	687b      	ldr	r3, [r7, #4]
 800656e:	60da      	str	r2, [r3, #12]
 8006570:	687b      	ldr	r3, [r7, #4]
 8006572:	68da      	ldr	r2, [r3, #12]
 8006574:	687b      	ldr	r3, [r7, #4]
 8006576:	685b      	ldr	r3, [r3, #4]
 8006578:	429a      	cmp	r2, r3
 800657a:	d303      	bcc.n	8006584 <prvCopyDataFromQueue+0x34>
 800657c:	687b      	ldr	r3, [r7, #4]
 800657e:	681a      	ldr	r2, [r3, #0]
 8006580:	687b      	ldr	r3, [r7, #4]
 8006582:	60da      	str	r2, [r3, #12]
 8006584:	687b      	ldr	r3, [r7, #4]
 8006586:	68d9      	ldr	r1, [r3, #12]
 8006588:	687b      	ldr	r3, [r7, #4]
 800658a:	6c1a      	ldr	r2, [r3, #64]	; 0x40
 800658c:	683b      	ldr	r3, [r7, #0]
 800658e:	0018      	movs	r0, r3
 8006590:	f001 fd24 	bl	8007fdc <memcpy>
 8006594:	46c0      	nop			; (mov r8, r8)
 8006596:	46bd      	mov	sp, r7
 8006598:	b002      	add	sp, #8
 800659a:	bd80      	pop	{r7, pc}

0800659c <prvUnlockQueue>:
 800659c:	b580      	push	{r7, lr}
 800659e:	b084      	sub	sp, #16
 80065a0:	af00      	add	r7, sp, #0
 80065a2:	6078      	str	r0, [r7, #4]
 80065a4:	f001 fa94 	bl	8007ad0 <vPortEnterCritical>
 80065a8:	230f      	movs	r3, #15
 80065aa:	18fb      	adds	r3, r7, r3
 80065ac:	687a      	ldr	r2, [r7, #4]
 80065ae:	2145      	movs	r1, #69	; 0x45
 80065b0:	5c52      	ldrb	r2, [r2, r1]
 80065b2:	701a      	strb	r2, [r3, #0]
 80065b4:	e013      	b.n	80065de <prvUnlockQueue+0x42>
 80065b6:	687b      	ldr	r3, [r7, #4]
 80065b8:	6a5b      	ldr	r3, [r3, #36]	; 0x24
 80065ba:	2b00      	cmp	r3, #0
 80065bc:	d016      	beq.n	80065ec <prvUnlockQueue+0x50>
 80065be:	687b      	ldr	r3, [r7, #4]
 80065c0:	3324      	adds	r3, #36	; 0x24
 80065c2:	0018      	movs	r0, r3
 80065c4:	f000 fcb4 	bl	8006f30 <xTaskRemoveFromEventList>
 80065c8:	1e03      	subs	r3, r0, #0
 80065ca:	d001      	beq.n	80065d0 <prvUnlockQueue+0x34>
 80065cc:	f000 fd70 	bl	80070b0 <vTaskMissedYield>
 80065d0:	210f      	movs	r1, #15
 80065d2:	187b      	adds	r3, r7, r1
 80065d4:	781b      	ldrb	r3, [r3, #0]
 80065d6:	3b01      	subs	r3, #1
 80065d8:	b2da      	uxtb	r2, r3
 80065da:	187b      	adds	r3, r7, r1
 80065dc:	701a      	strb	r2, [r3, #0]
 80065de:	230f      	movs	r3, #15
 80065e0:	18fb      	adds	r3, r7, r3
 80065e2:	781b      	ldrb	r3, [r3, #0]
 80065e4:	b25b      	sxtb	r3, r3
 80065e6:	2b00      	cmp	r3, #0
 80065e8:	dce5      	bgt.n	80065b6 <prvUnlockQueue+0x1a>
 80065ea:	e000      	b.n	80065ee <prvUnlockQueue+0x52>
 80065ec:	46c0      	nop			; (mov r8, r8)
 80065ee:	687b      	ldr	r3, [r7, #4]
 80065f0:	2245      	movs	r2, #69	; 0x45
 80065f2:	21ff      	movs	r1, #255	; 0xff
 80065f4:	5499      	strb	r1, [r3, r2]
 80065f6:	f001 fa7d 	bl	8007af4 <vPortExitCritical>
 80065fa:	f001 fa69 	bl	8007ad0 <vPortEnterCritical>
 80065fe:	230e      	movs	r3, #14
 8006600:	18fb      	adds	r3, r7, r3
 8006602:	687a      	ldr	r2, [r7, #4]
 8006604:	2144      	movs	r1, #68	; 0x44
 8006606:	5c52      	ldrb	r2, [r2, r1]
 8006608:	701a      	strb	r2, [r3, #0]
 800660a:	e013      	b.n	8006634 <prvUnlockQueue+0x98>
 800660c:	687b      	ldr	r3, [r7, #4]
 800660e:	691b      	ldr	r3, [r3, #16]
 8006610:	2b00      	cmp	r3, #0
 8006612:	d016      	beq.n	8006642 <prvUnlockQueue+0xa6>
 8006614:	687b      	ldr	r3, [r7, #4]
 8006616:	3310      	adds	r3, #16
 8006618:	0018      	movs	r0, r3
 800661a:	f000 fc89 	bl	8006f30 <xTaskRemoveFromEventList>
 800661e:	1e03      	subs	r3, r0, #0
 8006620:	d001      	beq.n	8006626 <prvUnlockQueue+0x8a>
 8006622:	f000 fd45 	bl	80070b0 <vTaskMissedYield>
 8006626:	210e      	movs	r1, #14
 8006628:	187b      	adds	r3, r7, r1
 800662a:	781b      	ldrb	r3, [r3, #0]
 800662c:	3b01      	subs	r3, #1
 800662e:	b2da      	uxtb	r2, r3
 8006630:	187b      	adds	r3, r7, r1
 8006632:	701a      	strb	r2, [r3, #0]
 8006634:	230e      	movs	r3, #14
 8006636:	18fb      	adds	r3, r7, r3
 8006638:	781b      	ldrb	r3, [r3, #0]
 800663a:	b25b      	sxtb	r3, r3
 800663c:	2b00      	cmp	r3, #0
 800663e:	dce5      	bgt.n	800660c <prvUnlockQueue+0x70>
 8006640:	e000      	b.n	8006644 <prvUnlockQueue+0xa8>
 8006642:	46c0      	nop			; (mov r8, r8)
 8006644:	687b      	ldr	r3, [r7, #4]
 8006646:	2244      	movs	r2, #68	; 0x44
 8006648:	21ff      	movs	r1, #255	; 0xff
 800664a:	5499      	strb	r1, [r3, r2]
 800664c:	f001 fa52 	bl	8007af4 <vPortExitCritical>
 8006650:	46c0      	nop			; (mov r8, r8)
 8006652:	46bd      	mov	sp, r7
 8006654:	b004      	add	sp, #16
 8006656:	bd80      	pop	{r7, pc}

08006658 <prvIsQueueEmpty>:
 8006658:	b580      	push	{r7, lr}
 800665a:	b084      	sub	sp, #16
 800665c:	af00      	add	r7, sp, #0
 800665e:	6078      	str	r0, [r7, #4]
 8006660:	f001 fa36 	bl	8007ad0 <vPortEnterCritical>
 8006664:	687b      	ldr	r3, [r7, #4]
 8006666:	6b9b      	ldr	r3, [r3, #56]	; 0x38
 8006668:	2b00      	cmp	r3, #0
 800666a:	d102      	bne.n	8006672 <prvIsQueueEmpty+0x1a>
 800666c:	2301      	movs	r3, #1
 800666e:	60fb      	str	r3, [r7, #12]
 8006670:	e001      	b.n	8006676 <prvIsQueueEmpty+0x1e>
 8006672:	2300      	movs	r3, #0
 8006674:	60fb      	str	r3, [r7, #12]
 8006676:	f001 fa3d 	bl	8007af4 <vPortExitCritical>
 800667a:	68fb      	ldr	r3, [r7, #12]
 800667c:	0018      	movs	r0, r3
 800667e:	46bd      	mov	sp, r7
 8006680:	b004      	add	sp, #16
 8006682:	bd80      	pop	{r7, pc}

08006684 <prvIsQueueFull>:
 8006684:	b580      	push	{r7, lr}
 8006686:	b084      	sub	sp, #16
 8006688:	af00      	add	r7, sp, #0
 800668a:	6078      	str	r0, [r7, #4]
 800668c:	f001 fa20 	bl	8007ad0 <vPortEnterCritical>
 8006690:	687b      	ldr	r3, [r7, #4]
 8006692:	6b9a      	ldr	r2, [r3, #56]	; 0x38
 8006694:	687b      	ldr	r3, [r7, #4]
 8006696:	6bdb      	ldr	r3, [r3, #60]	; 0x3c
 8006698:	429a      	cmp	r2, r3
 800669a:	d102      	bne.n	80066a2 <prvIsQueueFull+0x1e>
 800669c:	2301      	movs	r3, #1
 800669e:	60fb      	str	r3, [r7, #12]
 80066a0:	e001      	b.n	80066a6 <prvIsQueueFull+0x22>
 80066a2:	2300      	movs	r3, #0
 80066a4:	60fb      	str	r3, [r7, #12]
 80066a6:	f001 fa25 	bl	8007af4 <vPortExitCritical>
 80066aa:	68fb      	ldr	r3, [r7, #12]
 80066ac:	0018      	movs	r0, r3
 80066ae:	46bd      	mov	sp, r7
 80066b0:	b004      	add	sp, #16
 80066b2:	bd80      	pop	{r7, pc}

080066b4 <vQueueAddToRegistry>:
 80066b4:	b580      	push	{r7, lr}
 80066b6:	b084      	sub	sp, #16
 80066b8:	af00      	add	r7, sp, #0
 80066ba:	6078      	str	r0, [r7, #4]
 80066bc:	6039      	str	r1, [r7, #0]
 80066be:	2300      	movs	r3, #0
 80066c0:	60fb      	str	r3, [r7, #12]
 80066c2:	e015      	b.n	80066f0 <vQueueAddToRegistry+0x3c>
 80066c4:	4b0e      	ldr	r3, [pc, #56]	; (8006700 <vQueueAddToRegistry+0x4c>)
 80066c6:	68fa      	ldr	r2, [r7, #12]
 80066c8:	00d2      	lsls	r2, r2, #3
 80066ca:	58d3      	ldr	r3, [r2, r3]
 80066cc:	2b00      	cmp	r3, #0
 80066ce:	d10c      	bne.n	80066ea <vQueueAddToRegistry+0x36>
 80066d0:	4b0b      	ldr	r3, [pc, #44]	; (8006700 <vQueueAddToRegistry+0x4c>)
 80066d2:	68fa      	ldr	r2, [r7, #12]
 80066d4:	00d2      	lsls	r2, r2, #3
 80066d6:	6839      	ldr	r1, [r7, #0]
 80066d8:	50d1      	str	r1, [r2, r3]
 80066da:	4a09      	ldr	r2, [pc, #36]	; (8006700 <vQueueAddToRegistry+0x4c>)
 80066dc:	68fb      	ldr	r3, [r7, #12]
 80066de:	00db      	lsls	r3, r3, #3
 80066e0:	18d3      	adds	r3, r2, r3
 80066e2:	3304      	adds	r3, #4
 80066e4:	687a      	ldr	r2, [r7, #4]
 80066e6:	601a      	str	r2, [r3, #0]
 80066e8:	e006      	b.n	80066f8 <vQueueAddToRegistry+0x44>
 80066ea:	68fb      	ldr	r3, [r7, #12]
 80066ec:	3301      	adds	r3, #1
 80066ee:	60fb      	str	r3, [r7, #12]
 80066f0:	68fb      	ldr	r3, [r7, #12]
 80066f2:	2b07      	cmp	r3, #7
 80066f4:	d9e6      	bls.n	80066c4 <vQueueAddToRegistry+0x10>
 80066f6:	46c0      	nop			; (mov r8, r8)
 80066f8:	46c0      	nop			; (mov r8, r8)
 80066fa:	46bd      	mov	sp, r7
 80066fc:	b004      	add	sp, #16
 80066fe:	bd80      	pop	{r7, pc}
 8006700:	200015f0 	.word	0x200015f0

08006704 <vQueueWaitForMessageRestricted>:
 8006704:	b580      	push	{r7, lr}
 8006706:	b086      	sub	sp, #24
 8006708:	af00      	add	r7, sp, #0
 800670a:	60f8      	str	r0, [r7, #12]
 800670c:	60b9      	str	r1, [r7, #8]
 800670e:	607a      	str	r2, [r7, #4]
 8006710:	68fb      	ldr	r3, [r7, #12]
 8006712:	617b      	str	r3, [r7, #20]
 8006714:	f001 f9dc 	bl	8007ad0 <vPortEnterCritical>
 8006718:	697b      	ldr	r3, [r7, #20]
 800671a:	2244      	movs	r2, #68	; 0x44
 800671c:	5c9b      	ldrb	r3, [r3, r2]
 800671e:	b25b      	sxtb	r3, r3
 8006720:	3301      	adds	r3, #1
 8006722:	d103      	bne.n	800672c <vQueueWaitForMessageRestricted+0x28>
 8006724:	697b      	ldr	r3, [r7, #20]
 8006726:	2244      	movs	r2, #68	; 0x44
 8006728:	2100      	movs	r1, #0
 800672a:	5499      	strb	r1, [r3, r2]
 800672c:	697b      	ldr	r3, [r7, #20]
 800672e:	2245      	movs	r2, #69	; 0x45
 8006730:	5c9b      	ldrb	r3, [r3, r2]
 8006732:	b25b      	sxtb	r3, r3
 8006734:	3301      	adds	r3, #1
 8006736:	d103      	bne.n	8006740 <vQueueWaitForMessageRestricted+0x3c>
 8006738:	697b      	ldr	r3, [r7, #20]
 800673a:	2245      	movs	r2, #69	; 0x45
 800673c:	2100      	movs	r1, #0
 800673e:	5499      	strb	r1, [r3, r2]
 8006740:	f001 f9d8 	bl	8007af4 <vPortExitCritical>
 8006744:	697b      	ldr	r3, [r7, #20]
 8006746:	6b9b      	ldr	r3, [r3, #56]	; 0x38
 8006748:	2b00      	cmp	r3, #0
 800674a:	d106      	bne.n	800675a <vQueueWaitForMessageRestricted+0x56>
 800674c:	697b      	ldr	r3, [r7, #20]
 800674e:	3324      	adds	r3, #36	; 0x24
 8006750:	687a      	ldr	r2, [r7, #4]
 8006752:	68b9      	ldr	r1, [r7, #8]
 8006754:	0018      	movs	r0, r3
 8006756:	f000 fbc5 	bl	8006ee4 <vTaskPlaceOnEventListRestricted>
 800675a:	697b      	ldr	r3, [r7, #20]
 800675c:	0018      	movs	r0, r3
 800675e:	f7ff ff1d 	bl	800659c <prvUnlockQueue>
 8006762:	46c0      	nop			; (mov r8, r8)
 8006764:	46bd      	mov	sp, r7
 8006766:	b006      	add	sp, #24
 8006768:	bd80      	pop	{r7, pc}

0800676a <xTaskCreateStatic>:
 800676a:	b590      	push	{r4, r7, lr}
 800676c:	b08d      	sub	sp, #52	; 0x34
 800676e:	af04      	add	r7, sp, #16
 8006770:	60f8      	str	r0, [r7, #12]
 8006772:	60b9      	str	r1, [r7, #8]
 8006774:	607a      	str	r2, [r7, #4]
 8006776:	603b      	str	r3, [r7, #0]
 8006778:	6b7b      	ldr	r3, [r7, #52]	; 0x34
 800677a:	2b00      	cmp	r3, #0
 800677c:	d101      	bne.n	8006782 <xTaskCreateStatic+0x18>
 800677e:	b672      	cpsid	i
 8006780:	e7fe      	b.n	8006780 <xTaskCreateStatic+0x16>
 8006782:	6bbb      	ldr	r3, [r7, #56]	; 0x38
 8006784:	2b00      	cmp	r3, #0
 8006786:	d101      	bne.n	800678c <xTaskCreateStatic+0x22>
 8006788:	b672      	cpsid	i
 800678a:	e7fe      	b.n	800678a <xTaskCreateStatic+0x20>
 800678c:	235c      	movs	r3, #92	; 0x5c
 800678e:	617b      	str	r3, [r7, #20]
 8006790:	697b      	ldr	r3, [r7, #20]
 8006792:	2b5c      	cmp	r3, #92	; 0x5c
 8006794:	d001      	beq.n	800679a <xTaskCreateStatic+0x30>
 8006796:	b672      	cpsid	i
 8006798:	e7fe      	b.n	8006798 <xTaskCreateStatic+0x2e>
 800679a:	6bbb      	ldr	r3, [r7, #56]	; 0x38
 800679c:	2b00      	cmp	r3, #0
 800679e:	d020      	beq.n	80067e2 <xTaskCreateStatic+0x78>
 80067a0:	6b7b      	ldr	r3, [r7, #52]	; 0x34
 80067a2:	2b00      	cmp	r3, #0
 80067a4:	d01d      	beq.n	80067e2 <xTaskCreateStatic+0x78>
 80067a6:	6bbb      	ldr	r3, [r7, #56]	; 0x38
 80067a8:	61fb      	str	r3, [r7, #28]
 80067aa:	69fb      	ldr	r3, [r7, #28]
 80067ac:	6b7a      	ldr	r2, [r7, #52]	; 0x34
 80067ae:	631a      	str	r2, [r3, #48]	; 0x30
 80067b0:	69fb      	ldr	r3, [r7, #28]
 80067b2:	2259      	movs	r2, #89	; 0x59
 80067b4:	2102      	movs	r1, #2
 80067b6:	5499      	strb	r1, [r3, r2]
 80067b8:	683c      	ldr	r4, [r7, #0]
 80067ba:	687a      	ldr	r2, [r7, #4]
 80067bc:	68b9      	ldr	r1, [r7, #8]
 80067be:	68f8      	ldr	r0, [r7, #12]
 80067c0:	2300      	movs	r3, #0
 80067c2:	9303      	str	r3, [sp, #12]
 80067c4:	69fb      	ldr	r3, [r7, #28]
 80067c6:	9302      	str	r3, [sp, #8]
 80067c8:	2318      	movs	r3, #24
 80067ca:	18fb      	adds	r3, r7, r3
 80067cc:	9301      	str	r3, [sp, #4]
 80067ce:	6b3b      	ldr	r3, [r7, #48]	; 0x30
 80067d0:	9300      	str	r3, [sp, #0]
 80067d2:	0023      	movs	r3, r4
 80067d4:	f000 f858 	bl	8006888 <prvInitialiseNewTask>
 80067d8:	69fb      	ldr	r3, [r7, #28]
 80067da:	0018      	movs	r0, r3
 80067dc:	f000 f8d6 	bl	800698c <prvAddNewTaskToReadyList>
 80067e0:	e001      	b.n	80067e6 <xTaskCreateStatic+0x7c>
 80067e2:	2300      	movs	r3, #0
 80067e4:	61bb      	str	r3, [r7, #24]
 80067e6:	69bb      	ldr	r3, [r7, #24]
 80067e8:	0018      	movs	r0, r3
 80067ea:	46bd      	mov	sp, r7
 80067ec:	b009      	add	sp, #36	; 0x24
 80067ee:	bd90      	pop	{r4, r7, pc}

080067f0 <xTaskCreate>:
 80067f0:	b590      	push	{r4, r7, lr}
 80067f2:	b08d      	sub	sp, #52	; 0x34
 80067f4:	af04      	add	r7, sp, #16
 80067f6:	60f8      	str	r0, [r7, #12]
 80067f8:	60b9      	str	r1, [r7, #8]
 80067fa:	603b      	str	r3, [r7, #0]
 80067fc:	1dbb      	adds	r3, r7, #6
 80067fe:	801a      	strh	r2, [r3, #0]
 8006800:	1dbb      	adds	r3, r7, #6
 8006802:	881b      	ldrh	r3, [r3, #0]
 8006804:	009b      	lsls	r3, r3, #2
 8006806:	0018      	movs	r0, r3
 8006808:	f001 f9fa 	bl	8007c00 <pvPortMalloc>
 800680c:	0003      	movs	r3, r0
 800680e:	617b      	str	r3, [r7, #20]
 8006810:	697b      	ldr	r3, [r7, #20]
 8006812:	2b00      	cmp	r3, #0
 8006814:	d010      	beq.n	8006838 <xTaskCreate+0x48>
 8006816:	205c      	movs	r0, #92	; 0x5c
 8006818:	f001 f9f2 	bl	8007c00 <pvPortMalloc>
 800681c:	0003      	movs	r3, r0
 800681e:	61fb      	str	r3, [r7, #28]
 8006820:	69fb      	ldr	r3, [r7, #28]
 8006822:	2b00      	cmp	r3, #0
 8006824:	d003      	beq.n	800682e <xTaskCreate+0x3e>
 8006826:	69fb      	ldr	r3, [r7, #28]
 8006828:	697a      	ldr	r2, [r7, #20]
 800682a:	631a      	str	r2, [r3, #48]	; 0x30
 800682c:	e006      	b.n	800683c <xTaskCreate+0x4c>
 800682e:	697b      	ldr	r3, [r7, #20]
 8006830:	0018      	movs	r0, r3
 8006832:	f001 fa8b 	bl	8007d4c <vPortFree>
 8006836:	e001      	b.n	800683c <xTaskCreate+0x4c>
 8006838:	2300      	movs	r3, #0
 800683a:	61fb      	str	r3, [r7, #28]
 800683c:	69fb      	ldr	r3, [r7, #28]
 800683e:	2b00      	cmp	r3, #0
 8006840:	d01a      	beq.n	8006878 <xTaskCreate+0x88>
 8006842:	69fb      	ldr	r3, [r7, #28]
 8006844:	2259      	movs	r2, #89	; 0x59
 8006846:	2100      	movs	r1, #0
 8006848:	5499      	strb	r1, [r3, r2]
 800684a:	1dbb      	adds	r3, r7, #6
 800684c:	881a      	ldrh	r2, [r3, #0]
 800684e:	683c      	ldr	r4, [r7, #0]
 8006850:	68b9      	ldr	r1, [r7, #8]
 8006852:	68f8      	ldr	r0, [r7, #12]
 8006854:	2300      	movs	r3, #0
 8006856:	9303      	str	r3, [sp, #12]
 8006858:	69fb      	ldr	r3, [r7, #28]
 800685a:	9302      	str	r3, [sp, #8]
 800685c:	6b7b      	ldr	r3, [r7, #52]	; 0x34
 800685e:	9301      	str	r3, [sp, #4]
 8006860:	6b3b      	ldr	r3, [r7, #48]	; 0x30
 8006862:	9300      	str	r3, [sp, #0]
 8006864:	0023      	movs	r3, r4
 8006866:	f000 f80f 	bl	8006888 <prvInitialiseNewTask>
 800686a:	69fb      	ldr	r3, [r7, #28]
 800686c:	0018      	movs	r0, r3
 800686e:	f000 f88d 	bl	800698c <prvAddNewTaskToReadyList>
 8006872:	2301      	movs	r3, #1
 8006874:	61bb      	str	r3, [r7, #24]
 8006876:	e002      	b.n	800687e <xTaskCreate+0x8e>
 8006878:	2301      	movs	r3, #1
 800687a:	425b      	negs	r3, r3
 800687c:	61bb      	str	r3, [r7, #24]
 800687e:	69bb      	ldr	r3, [r7, #24]
 8006880:	0018      	movs	r0, r3
 8006882:	46bd      	mov	sp, r7
 8006884:	b009      	add	sp, #36	; 0x24
 8006886:	bd90      	pop	{r4, r7, pc}

08006888 <prvInitialiseNewTask>:
 8006888:	b580      	push	{r7, lr}
 800688a:	b086      	sub	sp, #24
 800688c:	af00      	add	r7, sp, #0
 800688e:	60f8      	str	r0, [r7, #12]
 8006890:	60b9      	str	r1, [r7, #8]
 8006892:	607a      	str	r2, [r7, #4]
 8006894:	603b      	str	r3, [r7, #0]
 8006896:	6abb      	ldr	r3, [r7, #40]	; 0x28
 8006898:	6b18      	ldr	r0, [r3, #48]	; 0x30
 800689a:	687b      	ldr	r3, [r7, #4]
 800689c:	009b      	lsls	r3, r3, #2
 800689e:	001a      	movs	r2, r3
 80068a0:	21a5      	movs	r1, #165	; 0xa5
 80068a2:	f001 fba4 	bl	8007fee <memset>
 80068a6:	6abb      	ldr	r3, [r7, #40]	; 0x28
 80068a8:	6b1a      	ldr	r2, [r3, #48]	; 0x30
 80068aa:	687b      	ldr	r3, [r7, #4]
 80068ac:	4936      	ldr	r1, [pc, #216]	; (8006988 <prvInitialiseNewTask+0x100>)
 80068ae:	468c      	mov	ip, r1
 80068b0:	4463      	add	r3, ip
 80068b2:	009b      	lsls	r3, r3, #2
 80068b4:	18d3      	adds	r3, r2, r3
 80068b6:	613b      	str	r3, [r7, #16]
 80068b8:	693b      	ldr	r3, [r7, #16]
 80068ba:	2207      	movs	r2, #7
 80068bc:	4393      	bics	r3, r2
 80068be:	613b      	str	r3, [r7, #16]
 80068c0:	693b      	ldr	r3, [r7, #16]
 80068c2:	2207      	movs	r2, #7
 80068c4:	4013      	ands	r3, r2
 80068c6:	d001      	beq.n	80068cc <prvInitialiseNewTask+0x44>
 80068c8:	b672      	cpsid	i
 80068ca:	e7fe      	b.n	80068ca <prvInitialiseNewTask+0x42>
 80068cc:	2300      	movs	r3, #0
 80068ce:	617b      	str	r3, [r7, #20]
 80068d0:	e013      	b.n	80068fa <prvInitialiseNewTask+0x72>
 80068d2:	68ba      	ldr	r2, [r7, #8]
 80068d4:	697b      	ldr	r3, [r7, #20]
 80068d6:	18d3      	adds	r3, r2, r3
 80068d8:	7818      	ldrb	r0, [r3, #0]
 80068da:	6aba      	ldr	r2, [r7, #40]	; 0x28
 80068dc:	2134      	movs	r1, #52	; 0x34
 80068de:	697b      	ldr	r3, [r7, #20]
 80068e0:	18d3      	adds	r3, r2, r3
 80068e2:	185b      	adds	r3, r3, r1
 80068e4:	1c02      	adds	r2, r0, #0
 80068e6:	701a      	strb	r2, [r3, #0]
 80068e8:	68ba      	ldr	r2, [r7, #8]
 80068ea:	697b      	ldr	r3, [r7, #20]
 80068ec:	18d3      	adds	r3, r2, r3
 80068ee:	781b      	ldrb	r3, [r3, #0]
 80068f0:	2b00      	cmp	r3, #0
 80068f2:	d006      	beq.n	8006902 <prvInitialiseNewTask+0x7a>
 80068f4:	697b      	ldr	r3, [r7, #20]
 80068f6:	3301      	adds	r3, #1
 80068f8:	617b      	str	r3, [r7, #20]
 80068fa:	697b      	ldr	r3, [r7, #20]
 80068fc:	2b0f      	cmp	r3, #15
 80068fe:	d9e8      	bls.n	80068d2 <prvInitialiseNewTask+0x4a>
 8006900:	e000      	b.n	8006904 <prvInitialiseNewTask+0x7c>
 8006902:	46c0      	nop			; (mov r8, r8)
 8006904:	6abb      	ldr	r3, [r7, #40]	; 0x28
 8006906:	2243      	movs	r2, #67	; 0x43
 8006908:	2100      	movs	r1, #0
 800690a:	5499      	strb	r1, [r3, r2]
 800690c:	6a3b      	ldr	r3, [r7, #32]
 800690e:	2b37      	cmp	r3, #55	; 0x37
 8006910:	d901      	bls.n	8006916 <prvInitialiseNewTask+0x8e>
 8006912:	2337      	movs	r3, #55	; 0x37
 8006914:	623b      	str	r3, [r7, #32]
 8006916:	6abb      	ldr	r3, [r7, #40]	; 0x28
 8006918:	6a3a      	ldr	r2, [r7, #32]
 800691a:	62da      	str	r2, [r3, #44]	; 0x2c
 800691c:	6abb      	ldr	r3, [r7, #40]	; 0x28
 800691e:	6a3a      	ldr	r2, [r7, #32]
 8006920:	64da      	str	r2, [r3, #76]	; 0x4c
 8006922:	6abb      	ldr	r3, [r7, #40]	; 0x28
 8006924:	2200      	movs	r2, #0
 8006926:	651a      	str	r2, [r3, #80]	; 0x50
 8006928:	6abb      	ldr	r3, [r7, #40]	; 0x28
 800692a:	3304      	adds	r3, #4
 800692c:	0018      	movs	r0, r3
 800692e:	f7ff fa69 	bl	8005e04 <vListInitialiseItem>
 8006932:	6abb      	ldr	r3, [r7, #40]	; 0x28
 8006934:	3318      	adds	r3, #24
 8006936:	0018      	movs	r0, r3
 8006938:	f7ff fa64 	bl	8005e04 <vListInitialiseItem>
 800693c:	6abb      	ldr	r3, [r7, #40]	; 0x28
 800693e:	6aba      	ldr	r2, [r7, #40]	; 0x28
 8006940:	611a      	str	r2, [r3, #16]
 8006942:	6a3b      	ldr	r3, [r7, #32]
 8006944:	2238      	movs	r2, #56	; 0x38
 8006946:	1ad2      	subs	r2, r2, r3
 8006948:	6abb      	ldr	r3, [r7, #40]	; 0x28
 800694a:	619a      	str	r2, [r3, #24]
 800694c:	6abb      	ldr	r3, [r7, #40]	; 0x28
 800694e:	6aba      	ldr	r2, [r7, #40]	; 0x28
 8006950:	625a      	str	r2, [r3, #36]	; 0x24
 8006952:	6abb      	ldr	r3, [r7, #40]	; 0x28
 8006954:	2200      	movs	r2, #0
 8006956:	655a      	str	r2, [r3, #84]	; 0x54
 8006958:	6abb      	ldr	r3, [r7, #40]	; 0x28
 800695a:	2258      	movs	r2, #88	; 0x58
 800695c:	2100      	movs	r1, #0
 800695e:	5499      	strb	r1, [r3, r2]
 8006960:	683a      	ldr	r2, [r7, #0]
 8006962:	68f9      	ldr	r1, [r7, #12]
 8006964:	693b      	ldr	r3, [r7, #16]
 8006966:	0018      	movs	r0, r3
 8006968:	f001 f816 	bl	8007998 <pxPortInitialiseStack>
 800696c:	0002      	movs	r2, r0
 800696e:	6abb      	ldr	r3, [r7, #40]	; 0x28
 8006970:	601a      	str	r2, [r3, #0]
 8006972:	6a7b      	ldr	r3, [r7, #36]	; 0x24
 8006974:	2b00      	cmp	r3, #0
 8006976:	d002      	beq.n	800697e <prvInitialiseNewTask+0xf6>
 8006978:	6a7b      	ldr	r3, [r7, #36]	; 0x24
 800697a:	6aba      	ldr	r2, [r7, #40]	; 0x28
 800697c:	601a      	str	r2, [r3, #0]
 800697e:	46c0      	nop			; (mov r8, r8)
 8006980:	46bd      	mov	sp, r7
 8006982:	b006      	add	sp, #24
 8006984:	bd80      	pop	{r7, pc}
 8006986:	46c0      	nop			; (mov r8, r8)
 8006988:	3fffffff 	.word	0x3fffffff

0800698c <prvAddNewTaskToReadyList>:
 800698c:	b580      	push	{r7, lr}
 800698e:	b082      	sub	sp, #8
 8006990:	af00      	add	r7, sp, #0
 8006992:	6078      	str	r0, [r7, #4]
 8006994:	f001 f89c 	bl	8007ad0 <vPortEnterCritical>
 8006998:	4b2a      	ldr	r3, [pc, #168]	; (8006a44 <prvAddNewTaskToReadyList+0xb8>)
 800699a:	681b      	ldr	r3, [r3, #0]
 800699c:	1c5a      	adds	r2, r3, #1
 800699e:	4b29      	ldr	r3, [pc, #164]	; (8006a44 <prvAddNewTaskToReadyList+0xb8>)
 80069a0:	601a      	str	r2, [r3, #0]
 80069a2:	4b29      	ldr	r3, [pc, #164]	; (8006a48 <prvAddNewTaskToReadyList+0xbc>)
 80069a4:	681b      	ldr	r3, [r3, #0]
 80069a6:	2b00      	cmp	r3, #0
 80069a8:	d109      	bne.n	80069be <prvAddNewTaskToReadyList+0x32>
 80069aa:	4b27      	ldr	r3, [pc, #156]	; (8006a48 <prvAddNewTaskToReadyList+0xbc>)
 80069ac:	687a      	ldr	r2, [r7, #4]
 80069ae:	601a      	str	r2, [r3, #0]
 80069b0:	4b24      	ldr	r3, [pc, #144]	; (8006a44 <prvAddNewTaskToReadyList+0xb8>)
 80069b2:	681b      	ldr	r3, [r3, #0]
 80069b4:	2b01      	cmp	r3, #1
 80069b6:	d110      	bne.n	80069da <prvAddNewTaskToReadyList+0x4e>
 80069b8:	f000 fb94 	bl	80070e4 <prvInitialiseTaskLists>
 80069bc:	e00d      	b.n	80069da <prvAddNewTaskToReadyList+0x4e>
 80069be:	4b23      	ldr	r3, [pc, #140]	; (8006a4c <prvAddNewTaskToReadyList+0xc0>)
 80069c0:	681b      	ldr	r3, [r3, #0]
 80069c2:	2b00      	cmp	r3, #0
 80069c4:	d109      	bne.n	80069da <prvAddNewTaskToReadyList+0x4e>
 80069c6:	4b20      	ldr	r3, [pc, #128]	; (8006a48 <prvAddNewTaskToReadyList+0xbc>)
 80069c8:	681b      	ldr	r3, [r3, #0]
 80069ca:	6ada      	ldr	r2, [r3, #44]	; 0x2c
 80069cc:	687b      	ldr	r3, [r7, #4]
 80069ce:	6adb      	ldr	r3, [r3, #44]	; 0x2c
 80069d0:	429a      	cmp	r2, r3
 80069d2:	d802      	bhi.n	80069da <prvAddNewTaskToReadyList+0x4e>
 80069d4:	4b1c      	ldr	r3, [pc, #112]	; (8006a48 <prvAddNewTaskToReadyList+0xbc>)
 80069d6:	687a      	ldr	r2, [r7, #4]
 80069d8:	601a      	str	r2, [r3, #0]
 80069da:	4b1d      	ldr	r3, [pc, #116]	; (8006a50 <prvAddNewTaskToReadyList+0xc4>)
 80069dc:	681b      	ldr	r3, [r3, #0]
 80069de:	1c5a      	adds	r2, r3, #1
 80069e0:	4b1b      	ldr	r3, [pc, #108]	; (8006a50 <prvAddNewTaskToReadyList+0xc4>)
 80069e2:	601a      	str	r2, [r3, #0]
 80069e4:	4b1a      	ldr	r3, [pc, #104]	; (8006a50 <prvAddNewTaskToReadyList+0xc4>)
 80069e6:	681a      	ldr	r2, [r3, #0]
 80069e8:	687b      	ldr	r3, [r7, #4]
 80069ea:	645a      	str	r2, [r3, #68]	; 0x44
 80069ec:	687b      	ldr	r3, [r7, #4]
 80069ee:	6ada      	ldr	r2, [r3, #44]	; 0x2c
 80069f0:	4b18      	ldr	r3, [pc, #96]	; (8006a54 <prvAddNewTaskToReadyList+0xc8>)
 80069f2:	681b      	ldr	r3, [r3, #0]
 80069f4:	429a      	cmp	r2, r3
 80069f6:	d903      	bls.n	8006a00 <prvAddNewTaskToReadyList+0x74>
 80069f8:	687b      	ldr	r3, [r7, #4]
 80069fa:	6ada      	ldr	r2, [r3, #44]	; 0x2c
 80069fc:	4b15      	ldr	r3, [pc, #84]	; (8006a54 <prvAddNewTaskToReadyList+0xc8>)
 80069fe:	601a      	str	r2, [r3, #0]
 8006a00:	687b      	ldr	r3, [r7, #4]
 8006a02:	6ada      	ldr	r2, [r3, #44]	; 0x2c
 8006a04:	0013      	movs	r3, r2
 8006a06:	009b      	lsls	r3, r3, #2
 8006a08:	189b      	adds	r3, r3, r2
 8006a0a:	009b      	lsls	r3, r3, #2
 8006a0c:	4a12      	ldr	r2, [pc, #72]	; (8006a58 <prvAddNewTaskToReadyList+0xcc>)
 8006a0e:	189a      	adds	r2, r3, r2
 8006a10:	687b      	ldr	r3, [r7, #4]
 8006a12:	3304      	adds	r3, #4
 8006a14:	0019      	movs	r1, r3
 8006a16:	0010      	movs	r0, r2
 8006a18:	f7ff f9ff 	bl	8005e1a <vListInsertEnd>
 8006a1c:	f001 f86a 	bl	8007af4 <vPortExitCritical>
 8006a20:	4b0a      	ldr	r3, [pc, #40]	; (8006a4c <prvAddNewTaskToReadyList+0xc0>)
 8006a22:	681b      	ldr	r3, [r3, #0]
 8006a24:	2b00      	cmp	r3, #0
 8006a26:	d008      	beq.n	8006a3a <prvAddNewTaskToReadyList+0xae>
 8006a28:	4b07      	ldr	r3, [pc, #28]	; (8006a48 <prvAddNewTaskToReadyList+0xbc>)
 8006a2a:	681b      	ldr	r3, [r3, #0]
 8006a2c:	6ada      	ldr	r2, [r3, #44]	; 0x2c
 8006a2e:	687b      	ldr	r3, [r7, #4]
 8006a30:	6adb      	ldr	r3, [r3, #44]	; 0x2c
 8006a32:	429a      	cmp	r2, r3
 8006a34:	d201      	bcs.n	8006a3a <prvAddNewTaskToReadyList+0xae>
 8006a36:	f001 f83b 	bl	8007ab0 <vPortYield>
 8006a3a:	46c0      	nop			; (mov r8, r8)
 8006a3c:	46bd      	mov	sp, r7
 8006a3e:	b002      	add	sp, #8
 8006a40:	bd80      	pop	{r7, pc}
 8006a42:	46c0      	nop			; (mov r8, r8)
 8006a44:	200009c0 	.word	0x200009c0
 8006a48:	200004ec 	.word	0x200004ec
 8006a4c:	200009cc 	.word	0x200009cc
 8006a50:	200009dc 	.word	0x200009dc
 8006a54:	200009c8 	.word	0x200009c8
 8006a58:	200004f0 	.word	0x200004f0

08006a5c <vTaskDelay>:
 8006a5c:	b580      	push	{r7, lr}
 8006a5e:	b084      	sub	sp, #16
 8006a60:	af00      	add	r7, sp, #0
 8006a62:	6078      	str	r0, [r7, #4]
 8006a64:	2300      	movs	r3, #0
 8006a66:	60fb      	str	r3, [r7, #12]
 8006a68:	687b      	ldr	r3, [r7, #4]
 8006a6a:	2b00      	cmp	r3, #0
 8006a6c:	d010      	beq.n	8006a90 <vTaskDelay+0x34>
 8006a6e:	4b0d      	ldr	r3, [pc, #52]	; (8006aa4 <vTaskDelay+0x48>)
 8006a70:	681b      	ldr	r3, [r3, #0]
 8006a72:	2b00      	cmp	r3, #0
 8006a74:	d001      	beq.n	8006a7a <vTaskDelay+0x1e>
 8006a76:	b672      	cpsid	i
 8006a78:	e7fe      	b.n	8006a78 <vTaskDelay+0x1c>
 8006a7a:	f000 f869 	bl	8006b50 <vTaskSuspendAll>
 8006a7e:	687b      	ldr	r3, [r7, #4]
 8006a80:	2100      	movs	r1, #0
 8006a82:	0018      	movs	r0, r3
 8006a84:	f000 fc64 	bl	8007350 <prvAddCurrentTaskToDelayedList>
 8006a88:	f000 f86e 	bl	8006b68 <xTaskResumeAll>
 8006a8c:	0003      	movs	r3, r0
 8006a8e:	60fb      	str	r3, [r7, #12]
 8006a90:	68fb      	ldr	r3, [r7, #12]
 8006a92:	2b00      	cmp	r3, #0
 8006a94:	d101      	bne.n	8006a9a <vTaskDelay+0x3e>
 8006a96:	f001 f80b 	bl	8007ab0 <vPortYield>
 8006a9a:	46c0      	nop			; (mov r8, r8)
 8006a9c:	46bd      	mov	sp, r7
 8006a9e:	b004      	add	sp, #16
 8006aa0:	bd80      	pop	{r7, pc}
 8006aa2:	46c0      	nop			; (mov r8, r8)
 8006aa4:	200009e8 	.word	0x200009e8

08006aa8 <vTaskStartScheduler>:
 8006aa8:	b590      	push	{r4, r7, lr}
 8006aaa:	b089      	sub	sp, #36	; 0x24
 8006aac:	af04      	add	r7, sp, #16
 8006aae:	2300      	movs	r3, #0
 8006ab0:	60bb      	str	r3, [r7, #8]
 8006ab2:	2300      	movs	r3, #0
 8006ab4:	607b      	str	r3, [r7, #4]
 8006ab6:	003a      	movs	r2, r7
 8006ab8:	1d39      	adds	r1, r7, #4
 8006aba:	2308      	movs	r3, #8
 8006abc:	18fb      	adds	r3, r7, r3
 8006abe:	0018      	movs	r0, r3
 8006ac0:	f7ff f952 	bl	8005d68 <vApplicationGetIdleTaskMemory>
 8006ac4:	683c      	ldr	r4, [r7, #0]
 8006ac6:	687b      	ldr	r3, [r7, #4]
 8006ac8:	68ba      	ldr	r2, [r7, #8]
 8006aca:	491b      	ldr	r1, [pc, #108]	; (8006b38 <vTaskStartScheduler+0x90>)
 8006acc:	481b      	ldr	r0, [pc, #108]	; (8006b3c <vTaskStartScheduler+0x94>)
 8006ace:	9202      	str	r2, [sp, #8]
 8006ad0:	9301      	str	r3, [sp, #4]
 8006ad2:	2300      	movs	r3, #0
 8006ad4:	9300      	str	r3, [sp, #0]
 8006ad6:	2300      	movs	r3, #0
 8006ad8:	0022      	movs	r2, r4
 8006ada:	f7ff fe46 	bl	800676a <xTaskCreateStatic>
 8006ade:	0002      	movs	r2, r0
 8006ae0:	4b17      	ldr	r3, [pc, #92]	; (8006b40 <vTaskStartScheduler+0x98>)
 8006ae2:	601a      	str	r2, [r3, #0]
 8006ae4:	4b16      	ldr	r3, [pc, #88]	; (8006b40 <vTaskStartScheduler+0x98>)
 8006ae6:	681b      	ldr	r3, [r3, #0]
 8006ae8:	2b00      	cmp	r3, #0
 8006aea:	d002      	beq.n	8006af2 <vTaskStartScheduler+0x4a>
 8006aec:	2301      	movs	r3, #1
 8006aee:	60fb      	str	r3, [r7, #12]
 8006af0:	e001      	b.n	8006af6 <vTaskStartScheduler+0x4e>
 8006af2:	2300      	movs	r3, #0
 8006af4:	60fb      	str	r3, [r7, #12]
 8006af6:	68fb      	ldr	r3, [r7, #12]
 8006af8:	2b01      	cmp	r3, #1
 8006afa:	d103      	bne.n	8006b04 <vTaskStartScheduler+0x5c>
 8006afc:	f000 fc7c 	bl	80073f8 <xTimerCreateTimerTask>
 8006b00:	0003      	movs	r3, r0
 8006b02:	60fb      	str	r3, [r7, #12]
 8006b04:	68fb      	ldr	r3, [r7, #12]
 8006b06:	2b01      	cmp	r3, #1
 8006b08:	d10d      	bne.n	8006b26 <vTaskStartScheduler+0x7e>
 8006b0a:	b672      	cpsid	i
 8006b0c:	4b0d      	ldr	r3, [pc, #52]	; (8006b44 <vTaskStartScheduler+0x9c>)
 8006b0e:	2201      	movs	r2, #1
 8006b10:	4252      	negs	r2, r2
 8006b12:	601a      	str	r2, [r3, #0]
 8006b14:	4b0c      	ldr	r3, [pc, #48]	; (8006b48 <vTaskStartScheduler+0xa0>)
 8006b16:	2201      	movs	r2, #1
 8006b18:	601a      	str	r2, [r3, #0]
 8006b1a:	4b0c      	ldr	r3, [pc, #48]	; (8006b4c <vTaskStartScheduler+0xa4>)
 8006b1c:	2200      	movs	r2, #0
 8006b1e:	601a      	str	r2, [r3, #0]
 8006b20:	f000 ffa2 	bl	8007a68 <xPortStartScheduler>
 8006b24:	e004      	b.n	8006b30 <vTaskStartScheduler+0x88>
 8006b26:	68fb      	ldr	r3, [r7, #12]
 8006b28:	3301      	adds	r3, #1
 8006b2a:	d101      	bne.n	8006b30 <vTaskStartScheduler+0x88>
 8006b2c:	b672      	cpsid	i
 8006b2e:	e7fe      	b.n	8006b2e <vTaskStartScheduler+0x86>
 8006b30:	46c0      	nop			; (mov r8, r8)
 8006b32:	46bd      	mov	sp, r7
 8006b34:	b005      	add	sp, #20
 8006b36:	bd90      	pop	{r4, r7, pc}
 8006b38:	08008a50 	.word	0x08008a50
 8006b3c:	080070c5 	.word	0x080070c5
 8006b40:	200009e4 	.word	0x200009e4
 8006b44:	200009e0 	.word	0x200009e0
 8006b48:	200009cc 	.word	0x200009cc
 8006b4c:	200009c4 	.word	0x200009c4

08006b50 <vTaskSuspendAll>:
 8006b50:	b580      	push	{r7, lr}
 8006b52:	af00      	add	r7, sp, #0
 8006b54:	4b03      	ldr	r3, [pc, #12]	; (8006b64 <vTaskSuspendAll+0x14>)
 8006b56:	681b      	ldr	r3, [r3, #0]
 8006b58:	1c5a      	adds	r2, r3, #1
 8006b5a:	4b02      	ldr	r3, [pc, #8]	; (8006b64 <vTaskSuspendAll+0x14>)
 8006b5c:	601a      	str	r2, [r3, #0]
 8006b5e:	46c0      	nop			; (mov r8, r8)
 8006b60:	46bd      	mov	sp, r7
 8006b62:	bd80      	pop	{r7, pc}
 8006b64:	200009e8 	.word	0x200009e8

08006b68 <xTaskResumeAll>:
 8006b68:	b580      	push	{r7, lr}
 8006b6a:	b084      	sub	sp, #16
 8006b6c:	af00      	add	r7, sp, #0
 8006b6e:	2300      	movs	r3, #0
 8006b70:	60fb      	str	r3, [r7, #12]
 8006b72:	2300      	movs	r3, #0
 8006b74:	60bb      	str	r3, [r7, #8]
 8006b76:	4b3a      	ldr	r3, [pc, #232]	; (8006c60 <xTaskResumeAll+0xf8>)
 8006b78:	681b      	ldr	r3, [r3, #0]
 8006b7a:	2b00      	cmp	r3, #0
 8006b7c:	d101      	bne.n	8006b82 <xTaskResumeAll+0x1a>
 8006b7e:	b672      	cpsid	i
 8006b80:	e7fe      	b.n	8006b80 <xTaskResumeAll+0x18>
 8006b82:	f000 ffa5 	bl	8007ad0 <vPortEnterCritical>
 8006b86:	4b36      	ldr	r3, [pc, #216]	; (8006c60 <xTaskResumeAll+0xf8>)
 8006b88:	681b      	ldr	r3, [r3, #0]
 8006b8a:	1e5a      	subs	r2, r3, #1
 8006b8c:	4b34      	ldr	r3, [pc, #208]	; (8006c60 <xTaskResumeAll+0xf8>)
 8006b8e:	601a      	str	r2, [r3, #0]
 8006b90:	4b33      	ldr	r3, [pc, #204]	; (8006c60 <xTaskResumeAll+0xf8>)
 8006b92:	681b      	ldr	r3, [r3, #0]
 8006b94:	2b00      	cmp	r3, #0
 8006b96:	d15b      	bne.n	8006c50 <xTaskResumeAll+0xe8>
 8006b98:	4b32      	ldr	r3, [pc, #200]	; (8006c64 <xTaskResumeAll+0xfc>)
 8006b9a:	681b      	ldr	r3, [r3, #0]
 8006b9c:	2b00      	cmp	r3, #0
 8006b9e:	d057      	beq.n	8006c50 <xTaskResumeAll+0xe8>
 8006ba0:	e02f      	b.n	8006c02 <xTaskResumeAll+0x9a>
 8006ba2:	4b31      	ldr	r3, [pc, #196]	; (8006c68 <xTaskResumeAll+0x100>)
 8006ba4:	68db      	ldr	r3, [r3, #12]
 8006ba6:	68db      	ldr	r3, [r3, #12]
 8006ba8:	60fb      	str	r3, [r7, #12]
 8006baa:	68fb      	ldr	r3, [r7, #12]
 8006bac:	3318      	adds	r3, #24
 8006bae:	0018      	movs	r0, r3
 8006bb0:	f7ff f98b 	bl	8005eca <uxListRemove>
 8006bb4:	68fb      	ldr	r3, [r7, #12]
 8006bb6:	3304      	adds	r3, #4
 8006bb8:	0018      	movs	r0, r3
 8006bba:	f7ff f986 	bl	8005eca <uxListRemove>
 8006bbe:	68fb      	ldr	r3, [r7, #12]
 8006bc0:	6ada      	ldr	r2, [r3, #44]	; 0x2c
 8006bc2:	4b2a      	ldr	r3, [pc, #168]	; (8006c6c <xTaskResumeAll+0x104>)
 8006bc4:	681b      	ldr	r3, [r3, #0]
 8006bc6:	429a      	cmp	r2, r3
 8006bc8:	d903      	bls.n	8006bd2 <xTaskResumeAll+0x6a>
 8006bca:	68fb      	ldr	r3, [r7, #12]
 8006bcc:	6ada      	ldr	r2, [r3, #44]	; 0x2c
 8006bce:	4b27      	ldr	r3, [pc, #156]	; (8006c6c <xTaskResumeAll+0x104>)
 8006bd0:	601a      	str	r2, [r3, #0]
 8006bd2:	68fb      	ldr	r3, [r7, #12]
 8006bd4:	6ada      	ldr	r2, [r3, #44]	; 0x2c
 8006bd6:	0013      	movs	r3, r2
 8006bd8:	009b      	lsls	r3, r3, #2
 8006bda:	189b      	adds	r3, r3, r2
 8006bdc:	009b      	lsls	r3, r3, #2
 8006bde:	4a24      	ldr	r2, [pc, #144]	; (8006c70 <xTaskResumeAll+0x108>)
 8006be0:	189a      	adds	r2, r3, r2
 8006be2:	68fb      	ldr	r3, [r7, #12]
 8006be4:	3304      	adds	r3, #4
 8006be6:	0019      	movs	r1, r3
 8006be8:	0010      	movs	r0, r2
 8006bea:	f7ff f916 	bl	8005e1a <vListInsertEnd>
 8006bee:	68fb      	ldr	r3, [r7, #12]
 8006bf0:	6ada      	ldr	r2, [r3, #44]	; 0x2c
 8006bf2:	4b20      	ldr	r3, [pc, #128]	; (8006c74 <xTaskResumeAll+0x10c>)
 8006bf4:	681b      	ldr	r3, [r3, #0]
 8006bf6:	6adb      	ldr	r3, [r3, #44]	; 0x2c
 8006bf8:	429a      	cmp	r2, r3
 8006bfa:	d302      	bcc.n	8006c02 <xTaskResumeAll+0x9a>
 8006bfc:	4b1e      	ldr	r3, [pc, #120]	; (8006c78 <xTaskResumeAll+0x110>)
 8006bfe:	2201      	movs	r2, #1
 8006c00:	601a      	str	r2, [r3, #0]
 8006c02:	4b19      	ldr	r3, [pc, #100]	; (8006c68 <xTaskResumeAll+0x100>)
 8006c04:	681b      	ldr	r3, [r3, #0]
 8006c06:	2b00      	cmp	r3, #0
 8006c08:	d1cb      	bne.n	8006ba2 <xTaskResumeAll+0x3a>
 8006c0a:	68fb      	ldr	r3, [r7, #12]
 8006c0c:	2b00      	cmp	r3, #0
 8006c0e:	d001      	beq.n	8006c14 <xTaskResumeAll+0xac>
 8006c10:	f000 fb02 	bl	8007218 <prvResetNextTaskUnblockTime>
 8006c14:	4b19      	ldr	r3, [pc, #100]	; (8006c7c <xTaskResumeAll+0x114>)
 8006c16:	681b      	ldr	r3, [r3, #0]
 8006c18:	607b      	str	r3, [r7, #4]
 8006c1a:	687b      	ldr	r3, [r7, #4]
 8006c1c:	2b00      	cmp	r3, #0
 8006c1e:	d00f      	beq.n	8006c40 <xTaskResumeAll+0xd8>
 8006c20:	f000 f83c 	bl	8006c9c <xTaskIncrementTick>
 8006c24:	1e03      	subs	r3, r0, #0
 8006c26:	d002      	beq.n	8006c2e <xTaskResumeAll+0xc6>
 8006c28:	4b13      	ldr	r3, [pc, #76]	; (8006c78 <xTaskResumeAll+0x110>)
 8006c2a:	2201      	movs	r2, #1
 8006c2c:	601a      	str	r2, [r3, #0]
 8006c2e:	687b      	ldr	r3, [r7, #4]
 8006c30:	3b01      	subs	r3, #1
 8006c32:	607b      	str	r3, [r7, #4]
 8006c34:	687b      	ldr	r3, [r7, #4]
 8006c36:	2b00      	cmp	r3, #0
 8006c38:	d1f2      	bne.n	8006c20 <xTaskResumeAll+0xb8>
 8006c3a:	4b10      	ldr	r3, [pc, #64]	; (8006c7c <xTaskResumeAll+0x114>)
 8006c3c:	2200      	movs	r2, #0
 8006c3e:	601a      	str	r2, [r3, #0]
 8006c40:	4b0d      	ldr	r3, [pc, #52]	; (8006c78 <xTaskResumeAll+0x110>)
 8006c42:	681b      	ldr	r3, [r3, #0]
 8006c44:	2b00      	cmp	r3, #0
 8006c46:	d003      	beq.n	8006c50 <xTaskResumeAll+0xe8>
 8006c48:	2301      	movs	r3, #1
 8006c4a:	60bb      	str	r3, [r7, #8]
 8006c4c:	f000 ff30 	bl	8007ab0 <vPortYield>
 8006c50:	f000 ff50 	bl	8007af4 <vPortExitCritical>
 8006c54:	68bb      	ldr	r3, [r7, #8]
 8006c56:	0018      	movs	r0, r3
 8006c58:	46bd      	mov	sp, r7
 8006c5a:	b004      	add	sp, #16
 8006c5c:	bd80      	pop	{r7, pc}
 8006c5e:	46c0      	nop			; (mov r8, r8)
 8006c60:	200009e8 	.word	0x200009e8
 8006c64:	200009c0 	.word	0x200009c0
 8006c68:	20000980 	.word	0x20000980
 8006c6c:	200009c8 	.word	0x200009c8
 8006c70:	200004f0 	.word	0x200004f0
 8006c74:	200004ec 	.word	0x200004ec
 8006c78:	200009d4 	.word	0x200009d4
 8006c7c:	200009d0 	.word	0x200009d0

08006c80 <xTaskGetTickCount>:
 8006c80:	b580      	push	{r7, lr}
 8006c82:	b082      	sub	sp, #8
 8006c84:	af00      	add	r7, sp, #0
 8006c86:	4b04      	ldr	r3, [pc, #16]	; (8006c98 <xTaskGetTickCount+0x18>)
 8006c88:	681b      	ldr	r3, [r3, #0]
 8006c8a:	607b      	str	r3, [r7, #4]
 8006c8c:	687b      	ldr	r3, [r7, #4]
 8006c8e:	0018      	movs	r0, r3
 8006c90:	46bd      	mov	sp, r7
 8006c92:	b002      	add	sp, #8
 8006c94:	bd80      	pop	{r7, pc}
 8006c96:	46c0      	nop			; (mov r8, r8)
 8006c98:	200009c4 	.word	0x200009c4

08006c9c <xTaskIncrementTick>:
 8006c9c:	b580      	push	{r7, lr}
 8006c9e:	b086      	sub	sp, #24
 8006ca0:	af00      	add	r7, sp, #0
 8006ca2:	2300      	movs	r3, #0
 8006ca4:	617b      	str	r3, [r7, #20]
 8006ca6:	4b4c      	ldr	r3, [pc, #304]	; (8006dd8 <xTaskIncrementTick+0x13c>)
 8006ca8:	681b      	ldr	r3, [r3, #0]
 8006caa:	2b00      	cmp	r3, #0
 8006cac:	d000      	beq.n	8006cb0 <xTaskIncrementTick+0x14>
 8006cae:	e083      	b.n	8006db8 <xTaskIncrementTick+0x11c>
 8006cb0:	4b4a      	ldr	r3, [pc, #296]	; (8006ddc <xTaskIncrementTick+0x140>)
 8006cb2:	681b      	ldr	r3, [r3, #0]
 8006cb4:	3301      	adds	r3, #1
 8006cb6:	613b      	str	r3, [r7, #16]
 8006cb8:	4b48      	ldr	r3, [pc, #288]	; (8006ddc <xTaskIncrementTick+0x140>)
 8006cba:	693a      	ldr	r2, [r7, #16]
 8006cbc:	601a      	str	r2, [r3, #0]
 8006cbe:	693b      	ldr	r3, [r7, #16]
 8006cc0:	2b00      	cmp	r3, #0
 8006cc2:	d117      	bne.n	8006cf4 <xTaskIncrementTick+0x58>
 8006cc4:	4b46      	ldr	r3, [pc, #280]	; (8006de0 <xTaskIncrementTick+0x144>)
 8006cc6:	681b      	ldr	r3, [r3, #0]
 8006cc8:	681b      	ldr	r3, [r3, #0]
 8006cca:	2b00      	cmp	r3, #0
 8006ccc:	d001      	beq.n	8006cd2 <xTaskIncrementTick+0x36>
 8006cce:	b672      	cpsid	i
 8006cd0:	e7fe      	b.n	8006cd0 <xTaskIncrementTick+0x34>
 8006cd2:	4b43      	ldr	r3, [pc, #268]	; (8006de0 <xTaskIncrementTick+0x144>)
 8006cd4:	681b      	ldr	r3, [r3, #0]
 8006cd6:	60fb      	str	r3, [r7, #12]
 8006cd8:	4b42      	ldr	r3, [pc, #264]	; (8006de4 <xTaskIncrementTick+0x148>)
 8006cda:	681a      	ldr	r2, [r3, #0]
 8006cdc:	4b40      	ldr	r3, [pc, #256]	; (8006de0 <xTaskIncrementTick+0x144>)
 8006cde:	601a      	str	r2, [r3, #0]
 8006ce0:	4b40      	ldr	r3, [pc, #256]	; (8006de4 <xTaskIncrementTick+0x148>)
 8006ce2:	68fa      	ldr	r2, [r7, #12]
 8006ce4:	601a      	str	r2, [r3, #0]
 8006ce6:	4b40      	ldr	r3, [pc, #256]	; (8006de8 <xTaskIncrementTick+0x14c>)
 8006ce8:	681b      	ldr	r3, [r3, #0]
 8006cea:	1c5a      	adds	r2, r3, #1
 8006cec:	4b3e      	ldr	r3, [pc, #248]	; (8006de8 <xTaskIncrementTick+0x14c>)
 8006cee:	601a      	str	r2, [r3, #0]
 8006cf0:	f000 fa92 	bl	8007218 <prvResetNextTaskUnblockTime>
 8006cf4:	4b3d      	ldr	r3, [pc, #244]	; (8006dec <xTaskIncrementTick+0x150>)
 8006cf6:	681b      	ldr	r3, [r3, #0]
 8006cf8:	693a      	ldr	r2, [r7, #16]
 8006cfa:	429a      	cmp	r2, r3
 8006cfc:	d34e      	bcc.n	8006d9c <xTaskIncrementTick+0x100>
 8006cfe:	4b38      	ldr	r3, [pc, #224]	; (8006de0 <xTaskIncrementTick+0x144>)
 8006d00:	681b      	ldr	r3, [r3, #0]
 8006d02:	681b      	ldr	r3, [r3, #0]
 8006d04:	2b00      	cmp	r3, #0
 8006d06:	d101      	bne.n	8006d0c <xTaskIncrementTick+0x70>
 8006d08:	2301      	movs	r3, #1
 8006d0a:	e000      	b.n	8006d0e <xTaskIncrementTick+0x72>
 8006d0c:	2300      	movs	r3, #0
 8006d0e:	2b00      	cmp	r3, #0
 8006d10:	d004      	beq.n	8006d1c <xTaskIncrementTick+0x80>
 8006d12:	4b36      	ldr	r3, [pc, #216]	; (8006dec <xTaskIncrementTick+0x150>)
 8006d14:	2201      	movs	r2, #1
 8006d16:	4252      	negs	r2, r2
 8006d18:	601a      	str	r2, [r3, #0]
 8006d1a:	e03f      	b.n	8006d9c <xTaskIncrementTick+0x100>
 8006d1c:	4b30      	ldr	r3, [pc, #192]	; (8006de0 <xTaskIncrementTick+0x144>)
 8006d1e:	681b      	ldr	r3, [r3, #0]
 8006d20:	68db      	ldr	r3, [r3, #12]
 8006d22:	68db      	ldr	r3, [r3, #12]
 8006d24:	60bb      	str	r3, [r7, #8]
 8006d26:	68bb      	ldr	r3, [r7, #8]
 8006d28:	685b      	ldr	r3, [r3, #4]
 8006d2a:	607b      	str	r3, [r7, #4]
 8006d2c:	693a      	ldr	r2, [r7, #16]
 8006d2e:	687b      	ldr	r3, [r7, #4]
 8006d30:	429a      	cmp	r2, r3
 8006d32:	d203      	bcs.n	8006d3c <xTaskIncrementTick+0xa0>
 8006d34:	4b2d      	ldr	r3, [pc, #180]	; (8006dec <xTaskIncrementTick+0x150>)
 8006d36:	687a      	ldr	r2, [r7, #4]
 8006d38:	601a      	str	r2, [r3, #0]
 8006d3a:	e02f      	b.n	8006d9c <xTaskIncrementTick+0x100>
 8006d3c:	68bb      	ldr	r3, [r7, #8]
 8006d3e:	3304      	adds	r3, #4
 8006d40:	0018      	movs	r0, r3
 8006d42:	f7ff f8c2 	bl	8005eca <uxListRemove>
 8006d46:	68bb      	ldr	r3, [r7, #8]
 8006d48:	6a9b      	ldr	r3, [r3, #40]	; 0x28
 8006d4a:	2b00      	cmp	r3, #0
 8006d4c:	d004      	beq.n	8006d58 <xTaskIncrementTick+0xbc>
 8006d4e:	68bb      	ldr	r3, [r7, #8]
 8006d50:	3318      	adds	r3, #24
 8006d52:	0018      	movs	r0, r3
 8006d54:	f7ff f8b9 	bl	8005eca <uxListRemove>
 8006d58:	68bb      	ldr	r3, [r7, #8]
 8006d5a:	6ada      	ldr	r2, [r3, #44]	; 0x2c
 8006d5c:	4b24      	ldr	r3, [pc, #144]	; (8006df0 <xTaskIncrementTick+0x154>)
 8006d5e:	681b      	ldr	r3, [r3, #0]
 8006d60:	429a      	cmp	r2, r3
 8006d62:	d903      	bls.n	8006d6c <xTaskIncrementTick+0xd0>
 8006d64:	68bb      	ldr	r3, [r7, #8]
 8006d66:	6ada      	ldr	r2, [r3, #44]	; 0x2c
 8006d68:	4b21      	ldr	r3, [pc, #132]	; (8006df0 <xTaskIncrementTick+0x154>)
 8006d6a:	601a      	str	r2, [r3, #0]
 8006d6c:	68bb      	ldr	r3, [r7, #8]
 8006d6e:	6ada      	ldr	r2, [r3, #44]	; 0x2c
 8006d70:	0013      	movs	r3, r2
 8006d72:	009b      	lsls	r3, r3, #2
 8006d74:	189b      	adds	r3, r3, r2
 8006d76:	009b      	lsls	r3, r3, #2
 8006d78:	4a1e      	ldr	r2, [pc, #120]	; (8006df4 <xTaskIncrementTick+0x158>)
 8006d7a:	189a      	adds	r2, r3, r2
 8006d7c:	68bb      	ldr	r3, [r7, #8]
 8006d7e:	3304      	adds	r3, #4
 8006d80:	0019      	movs	r1, r3
 8006d82:	0010      	movs	r0, r2
 8006d84:	f7ff f849 	bl	8005e1a <vListInsertEnd>
 8006d88:	68bb      	ldr	r3, [r7, #8]
 8006d8a:	6ada      	ldr	r2, [r3, #44]	; 0x2c
 8006d8c:	4b1a      	ldr	r3, [pc, #104]	; (8006df8 <xTaskIncrementTick+0x15c>)
 8006d8e:	681b      	ldr	r3, [r3, #0]
 8006d90:	6adb      	ldr	r3, [r3, #44]	; 0x2c
 8006d92:	429a      	cmp	r2, r3
 8006d94:	d3b3      	bcc.n	8006cfe <xTaskIncrementTick+0x62>
 8006d96:	2301      	movs	r3, #1
 8006d98:	617b      	str	r3, [r7, #20]
 8006d9a:	e7b0      	b.n	8006cfe <xTaskIncrementTick+0x62>
 8006d9c:	4b16      	ldr	r3, [pc, #88]	; (8006df8 <xTaskIncrementTick+0x15c>)
 8006d9e:	681b      	ldr	r3, [r3, #0]
 8006da0:	6ada      	ldr	r2, [r3, #44]	; 0x2c
 8006da2:	4914      	ldr	r1, [pc, #80]	; (8006df4 <xTaskIncrementTick+0x158>)
 8006da4:	0013      	movs	r3, r2
 8006da6:	009b      	lsls	r3, r3, #2
 8006da8:	189b      	adds	r3, r3, r2
 8006daa:	009b      	lsls	r3, r3, #2
 8006dac:	585b      	ldr	r3, [r3, r1]
 8006dae:	2b01      	cmp	r3, #1
 8006db0:	d907      	bls.n	8006dc2 <xTaskIncrementTick+0x126>
 8006db2:	2301      	movs	r3, #1
 8006db4:	617b      	str	r3, [r7, #20]
 8006db6:	e004      	b.n	8006dc2 <xTaskIncrementTick+0x126>
 8006db8:	4b10      	ldr	r3, [pc, #64]	; (8006dfc <xTaskIncrementTick+0x160>)
 8006dba:	681b      	ldr	r3, [r3, #0]
 8006dbc:	1c5a      	adds	r2, r3, #1
 8006dbe:	4b0f      	ldr	r3, [pc, #60]	; (8006dfc <xTaskIncrementTick+0x160>)
 8006dc0:	601a      	str	r2, [r3, #0]
 8006dc2:	4b0f      	ldr	r3, [pc, #60]	; (8006e00 <xTaskIncrementTick+0x164>)
 8006dc4:	681b      	ldr	r3, [r3, #0]
 8006dc6:	2b00      	cmp	r3, #0
 8006dc8:	d001      	beq.n	8006dce <xTaskIncrementTick+0x132>
 8006dca:	2301      	movs	r3, #1
 8006dcc:	617b      	str	r3, [r7, #20]
 8006dce:	697b      	ldr	r3, [r7, #20]
 8006dd0:	0018      	movs	r0, r3
 8006dd2:	46bd      	mov	sp, r7
 8006dd4:	b006      	add	sp, #24
 8006dd6:	bd80      	pop	{r7, pc}
 8006dd8:	200009e8 	.word	0x200009e8
 8006ddc:	200009c4 	.word	0x200009c4
 8006de0:	20000978 	.word	0x20000978
 8006de4:	2000097c 	.word	0x2000097c
 8006de8:	200009d8 	.word	0x200009d8
 8006dec:	200009e0 	.word	0x200009e0
 8006df0:	200009c8 	.word	0x200009c8
 8006df4:	200004f0 	.word	0x200004f0
 8006df8:	200004ec 	.word	0x200004ec
 8006dfc:	200009d0 	.word	0x200009d0
 8006e00:	200009d4 	.word	0x200009d4

08006e04 <vTaskSwitchContext>:
 8006e04:	b580      	push	{r7, lr}
 8006e06:	b082      	sub	sp, #8
 8006e08:	af00      	add	r7, sp, #0
 8006e0a:	4b22      	ldr	r3, [pc, #136]	; (8006e94 <vTaskSwitchContext+0x90>)
 8006e0c:	681b      	ldr	r3, [r3, #0]
 8006e0e:	2b00      	cmp	r3, #0
 8006e10:	d003      	beq.n	8006e1a <vTaskSwitchContext+0x16>
 8006e12:	4b21      	ldr	r3, [pc, #132]	; (8006e98 <vTaskSwitchContext+0x94>)
 8006e14:	2201      	movs	r2, #1
 8006e16:	601a      	str	r2, [r3, #0]
 8006e18:	e037      	b.n	8006e8a <vTaskSwitchContext+0x86>
 8006e1a:	4b1f      	ldr	r3, [pc, #124]	; (8006e98 <vTaskSwitchContext+0x94>)
 8006e1c:	2200      	movs	r2, #0
 8006e1e:	601a      	str	r2, [r3, #0]
 8006e20:	4b1e      	ldr	r3, [pc, #120]	; (8006e9c <vTaskSwitchContext+0x98>)
 8006e22:	681b      	ldr	r3, [r3, #0]
 8006e24:	607b      	str	r3, [r7, #4]
 8006e26:	e007      	b.n	8006e38 <vTaskSwitchContext+0x34>
 8006e28:	687b      	ldr	r3, [r7, #4]
 8006e2a:	2b00      	cmp	r3, #0
 8006e2c:	d101      	bne.n	8006e32 <vTaskSwitchContext+0x2e>
 8006e2e:	b672      	cpsid	i
 8006e30:	e7fe      	b.n	8006e30 <vTaskSwitchContext+0x2c>
 8006e32:	687b      	ldr	r3, [r7, #4]
 8006e34:	3b01      	subs	r3, #1
 8006e36:	607b      	str	r3, [r7, #4]
 8006e38:	4919      	ldr	r1, [pc, #100]	; (8006ea0 <vTaskSwitchContext+0x9c>)
 8006e3a:	687a      	ldr	r2, [r7, #4]
 8006e3c:	0013      	movs	r3, r2
 8006e3e:	009b      	lsls	r3, r3, #2
 8006e40:	189b      	adds	r3, r3, r2
 8006e42:	009b      	lsls	r3, r3, #2
 8006e44:	585b      	ldr	r3, [r3, r1]
 8006e46:	2b00      	cmp	r3, #0
 8006e48:	d0ee      	beq.n	8006e28 <vTaskSwitchContext+0x24>
 8006e4a:	687a      	ldr	r2, [r7, #4]
 8006e4c:	0013      	movs	r3, r2
 8006e4e:	009b      	lsls	r3, r3, #2
 8006e50:	189b      	adds	r3, r3, r2
 8006e52:	009b      	lsls	r3, r3, #2
 8006e54:	4a12      	ldr	r2, [pc, #72]	; (8006ea0 <vTaskSwitchContext+0x9c>)
 8006e56:	189b      	adds	r3, r3, r2
 8006e58:	603b      	str	r3, [r7, #0]
 8006e5a:	683b      	ldr	r3, [r7, #0]
 8006e5c:	685b      	ldr	r3, [r3, #4]
 8006e5e:	685a      	ldr	r2, [r3, #4]
 8006e60:	683b      	ldr	r3, [r7, #0]
 8006e62:	605a      	str	r2, [r3, #4]
 8006e64:	683b      	ldr	r3, [r7, #0]
 8006e66:	685a      	ldr	r2, [r3, #4]
 8006e68:	683b      	ldr	r3, [r7, #0]
 8006e6a:	3308      	adds	r3, #8
 8006e6c:	429a      	cmp	r2, r3
 8006e6e:	d104      	bne.n	8006e7a <vTaskSwitchContext+0x76>
 8006e70:	683b      	ldr	r3, [r7, #0]
 8006e72:	685b      	ldr	r3, [r3, #4]
 8006e74:	685a      	ldr	r2, [r3, #4]
 8006e76:	683b      	ldr	r3, [r7, #0]
 8006e78:	605a      	str	r2, [r3, #4]
 8006e7a:	683b      	ldr	r3, [r7, #0]
 8006e7c:	685b      	ldr	r3, [r3, #4]
 8006e7e:	68da      	ldr	r2, [r3, #12]
 8006e80:	4b08      	ldr	r3, [pc, #32]	; (8006ea4 <vTaskSwitchContext+0xa0>)
 8006e82:	601a      	str	r2, [r3, #0]
 8006e84:	4b05      	ldr	r3, [pc, #20]	; (8006e9c <vTaskSwitchContext+0x98>)
 8006e86:	687a      	ldr	r2, [r7, #4]
 8006e88:	601a      	str	r2, [r3, #0]
 8006e8a:	46c0      	nop			; (mov r8, r8)
 8006e8c:	46bd      	mov	sp, r7
 8006e8e:	b002      	add	sp, #8
 8006e90:	bd80      	pop	{r7, pc}
 8006e92:	46c0      	nop			; (mov r8, r8)
 8006e94:	200009e8 	.word	0x200009e8
 8006e98:	200009d4 	.word	0x200009d4
 8006e9c:	200009c8 	.word	0x200009c8
 8006ea0:	200004f0 	.word	0x200004f0
 8006ea4:	200004ec 	.word	0x200004ec

08006ea8 <vTaskPlaceOnEventList>:
 8006ea8:	b580      	push	{r7, lr}
 8006eaa:	b082      	sub	sp, #8
 8006eac:	af00      	add	r7, sp, #0
 8006eae:	6078      	str	r0, [r7, #4]
 8006eb0:	6039      	str	r1, [r7, #0]
 8006eb2:	687b      	ldr	r3, [r7, #4]
 8006eb4:	2b00      	cmp	r3, #0
 8006eb6:	d101      	bne.n	8006ebc <vTaskPlaceOnEventList+0x14>
 8006eb8:	b672      	cpsid	i
 8006eba:	e7fe      	b.n	8006eba <vTaskPlaceOnEventList+0x12>
 8006ebc:	4b08      	ldr	r3, [pc, #32]	; (8006ee0 <vTaskPlaceOnEventList+0x38>)
 8006ebe:	681b      	ldr	r3, [r3, #0]
 8006ec0:	3318      	adds	r3, #24
 8006ec2:	001a      	movs	r2, r3
 8006ec4:	687b      	ldr	r3, [r7, #4]
 8006ec6:	0011      	movs	r1, r2
 8006ec8:	0018      	movs	r0, r3
 8006eca:	f7fe ffc8 	bl	8005e5e <vListInsert>
 8006ece:	683b      	ldr	r3, [r7, #0]
 8006ed0:	2101      	movs	r1, #1
 8006ed2:	0018      	movs	r0, r3
 8006ed4:	f000 fa3c 	bl	8007350 <prvAddCurrentTaskToDelayedList>
 8006ed8:	46c0      	nop			; (mov r8, r8)
 8006eda:	46bd      	mov	sp, r7
 8006edc:	b002      	add	sp, #8
 8006ede:	bd80      	pop	{r7, pc}
 8006ee0:	200004ec 	.word	0x200004ec

08006ee4 <vTaskPlaceOnEventListRestricted>:
 8006ee4:	b580      	push	{r7, lr}
 8006ee6:	b084      	sub	sp, #16
 8006ee8:	af00      	add	r7, sp, #0
 8006eea:	60f8      	str	r0, [r7, #12]
 8006eec:	60b9      	str	r1, [r7, #8]
 8006eee:	607a      	str	r2, [r7, #4]
 8006ef0:	68fb      	ldr	r3, [r7, #12]
 8006ef2:	2b00      	cmp	r3, #0
 8006ef4:	d101      	bne.n	8006efa <vTaskPlaceOnEventListRestricted+0x16>
 8006ef6:	b672      	cpsid	i
 8006ef8:	e7fe      	b.n	8006ef8 <vTaskPlaceOnEventListRestricted+0x14>
 8006efa:	4b0c      	ldr	r3, [pc, #48]	; (8006f2c <vTaskPlaceOnEventListRestricted+0x48>)
 8006efc:	681b      	ldr	r3, [r3, #0]
 8006efe:	3318      	adds	r3, #24
 8006f00:	001a      	movs	r2, r3
 8006f02:	68fb      	ldr	r3, [r7, #12]
 8006f04:	0011      	movs	r1, r2
 8006f06:	0018      	movs	r0, r3
 8006f08:	f7fe ff87 	bl	8005e1a <vListInsertEnd>
 8006f0c:	687b      	ldr	r3, [r7, #4]
 8006f0e:	2b00      	cmp	r3, #0
 8006f10:	d002      	beq.n	8006f18 <vTaskPlaceOnEventListRestricted+0x34>
 8006f12:	2301      	movs	r3, #1
 8006f14:	425b      	negs	r3, r3
 8006f16:	60bb      	str	r3, [r7, #8]
 8006f18:	687a      	ldr	r2, [r7, #4]
 8006f1a:	68bb      	ldr	r3, [r7, #8]
 8006f1c:	0011      	movs	r1, r2
 8006f1e:	0018      	movs	r0, r3
 8006f20:	f000 fa16 	bl	8007350 <prvAddCurrentTaskToDelayedList>
 8006f24:	46c0      	nop			; (mov r8, r8)
 8006f26:	46bd      	mov	sp, r7
 8006f28:	b004      	add	sp, #16
 8006f2a:	bd80      	pop	{r7, pc}
 8006f2c:	200004ec 	.word	0x200004ec

08006f30 <xTaskRemoveFromEventList>:
 8006f30:	b580      	push	{r7, lr}
 8006f32:	b084      	sub	sp, #16
 8006f34:	af00      	add	r7, sp, #0
 8006f36:	6078      	str	r0, [r7, #4]
 8006f38:	687b      	ldr	r3, [r7, #4]
 8006f3a:	68db      	ldr	r3, [r3, #12]
 8006f3c:	68db      	ldr	r3, [r3, #12]
 8006f3e:	60bb      	str	r3, [r7, #8]
 8006f40:	68bb      	ldr	r3, [r7, #8]
 8006f42:	2b00      	cmp	r3, #0
 8006f44:	d101      	bne.n	8006f4a <xTaskRemoveFromEventList+0x1a>
 8006f46:	b672      	cpsid	i
 8006f48:	e7fe      	b.n	8006f48 <xTaskRemoveFromEventList+0x18>
 8006f4a:	68bb      	ldr	r3, [r7, #8]
 8006f4c:	3318      	adds	r3, #24
 8006f4e:	0018      	movs	r0, r3
 8006f50:	f7fe ffbb 	bl	8005eca <uxListRemove>
 8006f54:	4b1e      	ldr	r3, [pc, #120]	; (8006fd0 <xTaskRemoveFromEventList+0xa0>)
 8006f56:	681b      	ldr	r3, [r3, #0]
 8006f58:	2b00      	cmp	r3, #0
 8006f5a:	d11d      	bne.n	8006f98 <xTaskRemoveFromEventList+0x68>
 8006f5c:	68bb      	ldr	r3, [r7, #8]
 8006f5e:	3304      	adds	r3, #4
 8006f60:	0018      	movs	r0, r3
 8006f62:	f7fe ffb2 	bl	8005eca <uxListRemove>
 8006f66:	68bb      	ldr	r3, [r7, #8]
 8006f68:	6ada      	ldr	r2, [r3, #44]	; 0x2c
 8006f6a:	4b1a      	ldr	r3, [pc, #104]	; (8006fd4 <xTaskRemoveFromEventList+0xa4>)
 8006f6c:	681b      	ldr	r3, [r3, #0]
 8006f6e:	429a      	cmp	r2, r3
 8006f70:	d903      	bls.n	8006f7a <xTaskRemoveFromEventList+0x4a>
 8006f72:	68bb      	ldr	r3, [r7, #8]
 8006f74:	6ada      	ldr	r2, [r3, #44]	; 0x2c
 8006f76:	4b17      	ldr	r3, [pc, #92]	; (8006fd4 <xTaskRemoveFromEventList+0xa4>)
 8006f78:	601a      	str	r2, [r3, #0]
 8006f7a:	68bb      	ldr	r3, [r7, #8]
 8006f7c:	6ada      	ldr	r2, [r3, #44]	; 0x2c
 8006f7e:	0013      	movs	r3, r2
 8006f80:	009b      	lsls	r3, r3, #2
 8006f82:	189b      	adds	r3, r3, r2
 8006f84:	009b      	lsls	r3, r3, #2
 8006f86:	4a14      	ldr	r2, [pc, #80]	; (8006fd8 <xTaskRemoveFromEventList+0xa8>)
 8006f88:	189a      	adds	r2, r3, r2
 8006f8a:	68bb      	ldr	r3, [r7, #8]
 8006f8c:	3304      	adds	r3, #4
 8006f8e:	0019      	movs	r1, r3
 8006f90:	0010      	movs	r0, r2
 8006f92:	f7fe ff42 	bl	8005e1a <vListInsertEnd>
 8006f96:	e007      	b.n	8006fa8 <xTaskRemoveFromEventList+0x78>
 8006f98:	68bb      	ldr	r3, [r7, #8]
 8006f9a:	3318      	adds	r3, #24
 8006f9c:	001a      	movs	r2, r3
 8006f9e:	4b0f      	ldr	r3, [pc, #60]	; (8006fdc <xTaskRemoveFromEventList+0xac>)
 8006fa0:	0011      	movs	r1, r2
 8006fa2:	0018      	movs	r0, r3
 8006fa4:	f7fe ff39 	bl	8005e1a <vListInsertEnd>
 8006fa8:	68bb      	ldr	r3, [r7, #8]
 8006faa:	6ada      	ldr	r2, [r3, #44]	; 0x2c
 8006fac:	4b0c      	ldr	r3, [pc, #48]	; (8006fe0 <xTaskRemoveFromEventList+0xb0>)
 8006fae:	681b      	ldr	r3, [r3, #0]
 8006fb0:	6adb      	ldr	r3, [r3, #44]	; 0x2c
 8006fb2:	429a      	cmp	r2, r3
 8006fb4:	d905      	bls.n	8006fc2 <xTaskRemoveFromEventList+0x92>
 8006fb6:	2301      	movs	r3, #1
 8006fb8:	60fb      	str	r3, [r7, #12]
 8006fba:	4b0a      	ldr	r3, [pc, #40]	; (8006fe4 <xTaskRemoveFromEventList+0xb4>)
 8006fbc:	2201      	movs	r2, #1
 8006fbe:	601a      	str	r2, [r3, #0]
 8006fc0:	e001      	b.n	8006fc6 <xTaskRemoveFromEventList+0x96>
 8006fc2:	2300      	movs	r3, #0
 8006fc4:	60fb      	str	r3, [r7, #12]
 8006fc6:	68fb      	ldr	r3, [r7, #12]
 8006fc8:	0018      	movs	r0, r3
 8006fca:	46bd      	mov	sp, r7
 8006fcc:	b004      	add	sp, #16
 8006fce:	bd80      	pop	{r7, pc}
 8006fd0:	200009e8 	.word	0x200009e8
 8006fd4:	200009c8 	.word	0x200009c8
 8006fd8:	200004f0 	.word	0x200004f0
 8006fdc:	20000980 	.word	0x20000980
 8006fe0:	200004ec 	.word	0x200004ec
 8006fe4:	200009d4 	.word	0x200009d4

08006fe8 <vTaskInternalSetTimeOutState>:
 8006fe8:	b580      	push	{r7, lr}
 8006fea:	b082      	sub	sp, #8
 8006fec:	af00      	add	r7, sp, #0
 8006fee:	6078      	str	r0, [r7, #4]
 8006ff0:	4b05      	ldr	r3, [pc, #20]	; (8007008 <vTaskInternalSetTimeOutState+0x20>)
 8006ff2:	681a      	ldr	r2, [r3, #0]
 8006ff4:	687b      	ldr	r3, [r7, #4]
 8006ff6:	601a      	str	r2, [r3, #0]
 8006ff8:	4b04      	ldr	r3, [pc, #16]	; (800700c <vTaskInternalSetTimeOutState+0x24>)
 8006ffa:	681a      	ldr	r2, [r3, #0]
 8006ffc:	687b      	ldr	r3, [r7, #4]
 8006ffe:	605a      	str	r2, [r3, #4]
 8007000:	46c0      	nop			; (mov r8, r8)
 8007002:	46bd      	mov	sp, r7
 8007004:	b002      	add	sp, #8
 8007006:	bd80      	pop	{r7, pc}
 8007008:	200009d8 	.word	0x200009d8
 800700c:	200009c4 	.word	0x200009c4

08007010 <xTaskCheckForTimeOut>:
 8007010:	b580      	push	{r7, lr}
 8007012:	b086      	sub	sp, #24
 8007014:	af00      	add	r7, sp, #0
 8007016:	6078      	str	r0, [r7, #4]
 8007018:	6039      	str	r1, [r7, #0]
 800701a:	687b      	ldr	r3, [r7, #4]
 800701c:	2b00      	cmp	r3, #0
 800701e:	d101      	bne.n	8007024 <xTaskCheckForTimeOut+0x14>
 8007020:	b672      	cpsid	i
 8007022:	e7fe      	b.n	8007022 <xTaskCheckForTimeOut+0x12>
 8007024:	683b      	ldr	r3, [r7, #0]
 8007026:	2b00      	cmp	r3, #0
 8007028:	d101      	bne.n	800702e <xTaskCheckForTimeOut+0x1e>
 800702a:	b672      	cpsid	i
 800702c:	e7fe      	b.n	800702c <xTaskCheckForTimeOut+0x1c>
 800702e:	f000 fd4f 	bl	8007ad0 <vPortEnterCritical>
 8007032:	4b1d      	ldr	r3, [pc, #116]	; (80070a8 <xTaskCheckForTimeOut+0x98>)
 8007034:	681b      	ldr	r3, [r3, #0]
 8007036:	613b      	str	r3, [r7, #16]
 8007038:	687b      	ldr	r3, [r7, #4]
 800703a:	685b      	ldr	r3, [r3, #4]
 800703c:	693a      	ldr	r2, [r7, #16]
 800703e:	1ad3      	subs	r3, r2, r3
 8007040:	60fb      	str	r3, [r7, #12]
 8007042:	683b      	ldr	r3, [r7, #0]
 8007044:	681b      	ldr	r3, [r3, #0]
 8007046:	3301      	adds	r3, #1
 8007048:	d102      	bne.n	8007050 <xTaskCheckForTimeOut+0x40>
 800704a:	2300      	movs	r3, #0
 800704c:	617b      	str	r3, [r7, #20]
 800704e:	e024      	b.n	800709a <xTaskCheckForTimeOut+0x8a>
 8007050:	687b      	ldr	r3, [r7, #4]
 8007052:	681a      	ldr	r2, [r3, #0]
 8007054:	4b15      	ldr	r3, [pc, #84]	; (80070ac <xTaskCheckForTimeOut+0x9c>)
 8007056:	681b      	ldr	r3, [r3, #0]
 8007058:	429a      	cmp	r2, r3
 800705a:	d007      	beq.n	800706c <xTaskCheckForTimeOut+0x5c>
 800705c:	687b      	ldr	r3, [r7, #4]
 800705e:	685b      	ldr	r3, [r3, #4]
 8007060:	693a      	ldr	r2, [r7, #16]
 8007062:	429a      	cmp	r2, r3
 8007064:	d302      	bcc.n	800706c <xTaskCheckForTimeOut+0x5c>
 8007066:	2301      	movs	r3, #1
 8007068:	617b      	str	r3, [r7, #20]
 800706a:	e016      	b.n	800709a <xTaskCheckForTimeOut+0x8a>
 800706c:	683b      	ldr	r3, [r7, #0]
 800706e:	681b      	ldr	r3, [r3, #0]
 8007070:	68fa      	ldr	r2, [r7, #12]
 8007072:	429a      	cmp	r2, r3
 8007074:	d20c      	bcs.n	8007090 <xTaskCheckForTimeOut+0x80>
 8007076:	683b      	ldr	r3, [r7, #0]
 8007078:	681a      	ldr	r2, [r3, #0]
 800707a:	68fb      	ldr	r3, [r7, #12]
 800707c:	1ad2      	subs	r2, r2, r3
 800707e:	683b      	ldr	r3, [r7, #0]
 8007080:	601a      	str	r2, [r3, #0]
 8007082:	687b      	ldr	r3, [r7, #4]
 8007084:	0018      	movs	r0, r3
 8007086:	f7ff ffaf 	bl	8006fe8 <vTaskInternalSetTimeOutState>
 800708a:	2300      	movs	r3, #0
 800708c:	617b      	str	r3, [r7, #20]
 800708e:	e004      	b.n	800709a <xTaskCheckForTimeOut+0x8a>
 8007090:	683b      	ldr	r3, [r7, #0]
 8007092:	2200      	movs	r2, #0
 8007094:	601a      	str	r2, [r3, #0]
 8007096:	2301      	movs	r3, #1
 8007098:	617b      	str	r3, [r7, #20]
 800709a:	f000 fd2b 	bl	8007af4 <vPortExitCritical>
 800709e:	697b      	ldr	r3, [r7, #20]
 80070a0:	0018      	movs	r0, r3
 80070a2:	46bd      	mov	sp, r7
 80070a4:	b006      	add	sp, #24
 80070a6:	bd80      	pop	{r7, pc}
 80070a8:	200009c4 	.word	0x200009c4
 80070ac:	200009d8 	.word	0x200009d8

080070b0 <vTaskMissedYield>:
 80070b0:	b580      	push	{r7, lr}
 80070b2:	af00      	add	r7, sp, #0
 80070b4:	4b02      	ldr	r3, [pc, #8]	; (80070c0 <vTaskMissedYield+0x10>)
 80070b6:	2201      	movs	r2, #1
 80070b8:	601a      	str	r2, [r3, #0]
 80070ba:	46c0      	nop			; (mov r8, r8)
 80070bc:	46bd      	mov	sp, r7
 80070be:	bd80      	pop	{r7, pc}
 80070c0:	200009d4 	.word	0x200009d4

080070c4 <prvIdleTask>:
 80070c4:	b580      	push	{r7, lr}
 80070c6:	b082      	sub	sp, #8
 80070c8:	af00      	add	r7, sp, #0
 80070ca:	6078      	str	r0, [r7, #4]
 80070cc:	f000 f84e 	bl	800716c <prvCheckTasksWaitingTermination>
 80070d0:	4b03      	ldr	r3, [pc, #12]	; (80070e0 <prvIdleTask+0x1c>)
 80070d2:	681b      	ldr	r3, [r3, #0]
 80070d4:	2b01      	cmp	r3, #1
 80070d6:	d9f9      	bls.n	80070cc <prvIdleTask+0x8>
 80070d8:	f000 fcea 	bl	8007ab0 <vPortYield>
 80070dc:	e7f6      	b.n	80070cc <prvIdleTask+0x8>
 80070de:	46c0      	nop			; (mov r8, r8)
 80070e0:	200004f0 	.word	0x200004f0

080070e4 <prvInitialiseTaskLists>:
 80070e4:	b580      	push	{r7, lr}
 80070e6:	b082      	sub	sp, #8
 80070e8:	af00      	add	r7, sp, #0
 80070ea:	2300      	movs	r3, #0
 80070ec:	607b      	str	r3, [r7, #4]
 80070ee:	e00c      	b.n	800710a <prvInitialiseTaskLists+0x26>
 80070f0:	687a      	ldr	r2, [r7, #4]
 80070f2:	0013      	movs	r3, r2
 80070f4:	009b      	lsls	r3, r3, #2
 80070f6:	189b      	adds	r3, r3, r2
 80070f8:	009b      	lsls	r3, r3, #2
 80070fa:	4a14      	ldr	r2, [pc, #80]	; (800714c <prvInitialiseTaskLists+0x68>)
 80070fc:	189b      	adds	r3, r3, r2
 80070fe:	0018      	movs	r0, r3
 8007100:	f7fe fe62 	bl	8005dc8 <vListInitialise>
 8007104:	687b      	ldr	r3, [r7, #4]
 8007106:	3301      	adds	r3, #1
 8007108:	607b      	str	r3, [r7, #4]
 800710a:	687b      	ldr	r3, [r7, #4]
 800710c:	2b37      	cmp	r3, #55	; 0x37
 800710e:	d9ef      	bls.n	80070f0 <prvInitialiseTaskLists+0xc>
 8007110:	4b0f      	ldr	r3, [pc, #60]	; (8007150 <prvInitialiseTaskLists+0x6c>)
 8007112:	0018      	movs	r0, r3
 8007114:	f7fe fe58 	bl	8005dc8 <vListInitialise>
 8007118:	4b0e      	ldr	r3, [pc, #56]	; (8007154 <prvInitialiseTaskLists+0x70>)
 800711a:	0018      	movs	r0, r3
 800711c:	f7fe fe54 	bl	8005dc8 <vListInitialise>
 8007120:	4b0d      	ldr	r3, [pc, #52]	; (8007158 <prvInitialiseTaskLists+0x74>)
 8007122:	0018      	movs	r0, r3
 8007124:	f7fe fe50 	bl	8005dc8 <vListInitialise>
 8007128:	4b0c      	ldr	r3, [pc, #48]	; (800715c <prvInitialiseTaskLists+0x78>)
 800712a:	0018      	movs	r0, r3
 800712c:	f7fe fe4c 	bl	8005dc8 <vListInitialise>
 8007130:	4b0b      	ldr	r3, [pc, #44]	; (8007160 <prvInitialiseTaskLists+0x7c>)
 8007132:	0018      	movs	r0, r3
 8007134:	f7fe fe48 	bl	8005dc8 <vListInitialise>
 8007138:	4b0a      	ldr	r3, [pc, #40]	; (8007164 <prvInitialiseTaskLists+0x80>)
 800713a:	4a05      	ldr	r2, [pc, #20]	; (8007150 <prvInitialiseTaskLists+0x6c>)
 800713c:	601a      	str	r2, [r3, #0]
 800713e:	4b0a      	ldr	r3, [pc, #40]	; (8007168 <prvInitialiseTaskLists+0x84>)
 8007140:	4a04      	ldr	r2, [pc, #16]	; (8007154 <prvInitialiseTaskLists+0x70>)
 8007142:	601a      	str	r2, [r3, #0]
 8007144:	46c0      	nop			; (mov r8, r8)
 8007146:	46bd      	mov	sp, r7
 8007148:	b002      	add	sp, #8
 800714a:	bd80      	pop	{r7, pc}
 800714c:	200004f0 	.word	0x200004f0
 8007150:	20000950 	.word	0x20000950
 8007154:	20000964 	.word	0x20000964
 8007158:	20000980 	.word	0x20000980
 800715c:	20000994 	.word	0x20000994
 8007160:	200009ac 	.word	0x200009ac
 8007164:	20000978 	.word	0x20000978
 8007168:	2000097c 	.word	0x2000097c

0800716c <prvCheckTasksWaitingTermination>:
 800716c:	b580      	push	{r7, lr}
 800716e:	b082      	sub	sp, #8
 8007170:	af00      	add	r7, sp, #0
 8007172:	e01a      	b.n	80071aa <prvCheckTasksWaitingTermination+0x3e>
 8007174:	f000 fcac 	bl	8007ad0 <vPortEnterCritical>
 8007178:	4b10      	ldr	r3, [pc, #64]	; (80071bc <prvCheckTasksWaitingTermination+0x50>)
 800717a:	68db      	ldr	r3, [r3, #12]
 800717c:	68db      	ldr	r3, [r3, #12]
 800717e:	607b      	str	r3, [r7, #4]
 8007180:	687b      	ldr	r3, [r7, #4]
 8007182:	3304      	adds	r3, #4
 8007184:	0018      	movs	r0, r3
 8007186:	f7fe fea0 	bl	8005eca <uxListRemove>
 800718a:	4b0d      	ldr	r3, [pc, #52]	; (80071c0 <prvCheckTasksWaitingTermination+0x54>)
 800718c:	681b      	ldr	r3, [r3, #0]
 800718e:	1e5a      	subs	r2, r3, #1
 8007190:	4b0b      	ldr	r3, [pc, #44]	; (80071c0 <prvCheckTasksWaitingTermination+0x54>)
 8007192:	601a      	str	r2, [r3, #0]
 8007194:	4b0b      	ldr	r3, [pc, #44]	; (80071c4 <prvCheckTasksWaitingTermination+0x58>)
 8007196:	681b      	ldr	r3, [r3, #0]
 8007198:	1e5a      	subs	r2, r3, #1
 800719a:	4b0a      	ldr	r3, [pc, #40]	; (80071c4 <prvCheckTasksWaitingTermination+0x58>)
 800719c:	601a      	str	r2, [r3, #0]
 800719e:	f000 fca9 	bl	8007af4 <vPortExitCritical>
 80071a2:	687b      	ldr	r3, [r7, #4]
 80071a4:	0018      	movs	r0, r3
 80071a6:	f000 f80f 	bl	80071c8 <prvDeleteTCB>
 80071aa:	4b06      	ldr	r3, [pc, #24]	; (80071c4 <prvCheckTasksWaitingTermination+0x58>)
 80071ac:	681b      	ldr	r3, [r3, #0]
 80071ae:	2b00      	cmp	r3, #0
 80071b0:	d1e0      	bne.n	8007174 <prvCheckTasksWaitingTermination+0x8>
 80071b2:	46c0      	nop			; (mov r8, r8)
 80071b4:	46c0      	nop			; (mov r8, r8)
 80071b6:	46bd      	mov	sp, r7
 80071b8:	b002      	add	sp, #8
 80071ba:	bd80      	pop	{r7, pc}
 80071bc:	20000994 	.word	0x20000994
 80071c0:	200009c0 	.word	0x200009c0
 80071c4:	200009a8 	.word	0x200009a8

080071c8 <prvDeleteTCB>:
 80071c8:	b580      	push	{r7, lr}
 80071ca:	b082      	sub	sp, #8
 80071cc:	af00      	add	r7, sp, #0
 80071ce:	6078      	str	r0, [r7, #4]
 80071d0:	687b      	ldr	r3, [r7, #4]
 80071d2:	2259      	movs	r2, #89	; 0x59
 80071d4:	5c9b      	ldrb	r3, [r3, r2]
 80071d6:	2b00      	cmp	r3, #0
 80071d8:	d109      	bne.n	80071ee <prvDeleteTCB+0x26>
 80071da:	687b      	ldr	r3, [r7, #4]
 80071dc:	6b1b      	ldr	r3, [r3, #48]	; 0x30
 80071de:	0018      	movs	r0, r3
 80071e0:	f000 fdb4 	bl	8007d4c <vPortFree>
 80071e4:	687b      	ldr	r3, [r7, #4]
 80071e6:	0018      	movs	r0, r3
 80071e8:	f000 fdb0 	bl	8007d4c <vPortFree>
 80071ec:	e010      	b.n	8007210 <prvDeleteTCB+0x48>
 80071ee:	687b      	ldr	r3, [r7, #4]
 80071f0:	2259      	movs	r2, #89	; 0x59
 80071f2:	5c9b      	ldrb	r3, [r3, r2]
 80071f4:	2b01      	cmp	r3, #1
 80071f6:	d104      	bne.n	8007202 <prvDeleteTCB+0x3a>
 80071f8:	687b      	ldr	r3, [r7, #4]
 80071fa:	0018      	movs	r0, r3
 80071fc:	f000 fda6 	bl	8007d4c <vPortFree>
 8007200:	e006      	b.n	8007210 <prvDeleteTCB+0x48>
 8007202:	687b      	ldr	r3, [r7, #4]
 8007204:	2259      	movs	r2, #89	; 0x59
 8007206:	5c9b      	ldrb	r3, [r3, r2]
 8007208:	2b02      	cmp	r3, #2
 800720a:	d001      	beq.n	8007210 <prvDeleteTCB+0x48>
 800720c:	b672      	cpsid	i
 800720e:	e7fe      	b.n	800720e <prvDeleteTCB+0x46>
 8007210:	46c0      	nop			; (mov r8, r8)
 8007212:	46bd      	mov	sp, r7
 8007214:	b002      	add	sp, #8
 8007216:	bd80      	pop	{r7, pc}

08007218 <prvResetNextTaskUnblockTime>:
 8007218:	b580      	push	{r7, lr}
 800721a:	b082      	sub	sp, #8
 800721c:	af00      	add	r7, sp, #0
 800721e:	4b0e      	ldr	r3, [pc, #56]	; (8007258 <prvResetNextTaskUnblockTime+0x40>)
 8007220:	681b      	ldr	r3, [r3, #0]
 8007222:	681b      	ldr	r3, [r3, #0]
 8007224:	2b00      	cmp	r3, #0
 8007226:	d101      	bne.n	800722c <prvResetNextTaskUnblockTime+0x14>
 8007228:	2301      	movs	r3, #1
 800722a:	e000      	b.n	800722e <prvResetNextTaskUnblockTime+0x16>
 800722c:	2300      	movs	r3, #0
 800722e:	2b00      	cmp	r3, #0
 8007230:	d004      	beq.n	800723c <prvResetNextTaskUnblockTime+0x24>
 8007232:	4b0a      	ldr	r3, [pc, #40]	; (800725c <prvResetNextTaskUnblockTime+0x44>)
 8007234:	2201      	movs	r2, #1
 8007236:	4252      	negs	r2, r2
 8007238:	601a      	str	r2, [r3, #0]
 800723a:	e008      	b.n	800724e <prvResetNextTaskUnblockTime+0x36>
 800723c:	4b06      	ldr	r3, [pc, #24]	; (8007258 <prvResetNextTaskUnblockTime+0x40>)
 800723e:	681b      	ldr	r3, [r3, #0]
 8007240:	68db      	ldr	r3, [r3, #12]
 8007242:	68db      	ldr	r3, [r3, #12]
 8007244:	607b      	str	r3, [r7, #4]
 8007246:	687b      	ldr	r3, [r7, #4]
 8007248:	685a      	ldr	r2, [r3, #4]
 800724a:	4b04      	ldr	r3, [pc, #16]	; (800725c <prvResetNextTaskUnblockTime+0x44>)
 800724c:	601a      	str	r2, [r3, #0]
 800724e:	46c0      	nop			; (mov r8, r8)
 8007250:	46bd      	mov	sp, r7
 8007252:	b002      	add	sp, #8
 8007254:	bd80      	pop	{r7, pc}
 8007256:	46c0      	nop			; (mov r8, r8)
 8007258:	20000978 	.word	0x20000978
 800725c:	200009e0 	.word	0x200009e0

08007260 <xTaskGetSchedulerState>:
 8007260:	b580      	push	{r7, lr}
 8007262:	b082      	sub	sp, #8
 8007264:	af00      	add	r7, sp, #0
 8007266:	4b0a      	ldr	r3, [pc, #40]	; (8007290 <xTaskGetSchedulerState+0x30>)
 8007268:	681b      	ldr	r3, [r3, #0]
 800726a:	2b00      	cmp	r3, #0
 800726c:	d102      	bne.n	8007274 <xTaskGetSchedulerState+0x14>
 800726e:	2301      	movs	r3, #1
 8007270:	607b      	str	r3, [r7, #4]
 8007272:	e008      	b.n	8007286 <xTaskGetSchedulerState+0x26>
 8007274:	4b07      	ldr	r3, [pc, #28]	; (8007294 <xTaskGetSchedulerState+0x34>)
 8007276:	681b      	ldr	r3, [r3, #0]
 8007278:	2b00      	cmp	r3, #0
 800727a:	d102      	bne.n	8007282 <xTaskGetSchedulerState+0x22>
 800727c:	2302      	movs	r3, #2
 800727e:	607b      	str	r3, [r7, #4]
 8007280:	e001      	b.n	8007286 <xTaskGetSchedulerState+0x26>
 8007282:	2300      	movs	r3, #0
 8007284:	607b      	str	r3, [r7, #4]
 8007286:	687b      	ldr	r3, [r7, #4]
 8007288:	0018      	movs	r0, r3
 800728a:	46bd      	mov	sp, r7
 800728c:	b002      	add	sp, #8
 800728e:	bd80      	pop	{r7, pc}
 8007290:	200009cc 	.word	0x200009cc
 8007294:	200009e8 	.word	0x200009e8

08007298 <xTaskPriorityDisinherit>:
 8007298:	b580      	push	{r7, lr}
 800729a:	b084      	sub	sp, #16
 800729c:	af00      	add	r7, sp, #0
 800729e:	6078      	str	r0, [r7, #4]
 80072a0:	687b      	ldr	r3, [r7, #4]
 80072a2:	60bb      	str	r3, [r7, #8]
 80072a4:	2300      	movs	r3, #0
 80072a6:	60fb      	str	r3, [r7, #12]
 80072a8:	687b      	ldr	r3, [r7, #4]
 80072aa:	2b00      	cmp	r3, #0
 80072ac:	d044      	beq.n	8007338 <xTaskPriorityDisinherit+0xa0>
 80072ae:	4b25      	ldr	r3, [pc, #148]	; (8007344 <xTaskPriorityDisinherit+0xac>)
 80072b0:	681b      	ldr	r3, [r3, #0]
 80072b2:	68ba      	ldr	r2, [r7, #8]
 80072b4:	429a      	cmp	r2, r3
 80072b6:	d001      	beq.n	80072bc <xTaskPriorityDisinherit+0x24>
 80072b8:	b672      	cpsid	i
 80072ba:	e7fe      	b.n	80072ba <xTaskPriorityDisinherit+0x22>
 80072bc:	68bb      	ldr	r3, [r7, #8]
 80072be:	6d1b      	ldr	r3, [r3, #80]	; 0x50
 80072c0:	2b00      	cmp	r3, #0
 80072c2:	d101      	bne.n	80072c8 <xTaskPriorityDisinherit+0x30>
 80072c4:	b672      	cpsid	i
 80072c6:	e7fe      	b.n	80072c6 <xTaskPriorityDisinherit+0x2e>
 80072c8:	68bb      	ldr	r3, [r7, #8]
 80072ca:	6d1b      	ldr	r3, [r3, #80]	; 0x50
 80072cc:	1e5a      	subs	r2, r3, #1
 80072ce:	68bb      	ldr	r3, [r7, #8]
 80072d0:	651a      	str	r2, [r3, #80]	; 0x50
 80072d2:	68bb      	ldr	r3, [r7, #8]
 80072d4:	6ada      	ldr	r2, [r3, #44]	; 0x2c
 80072d6:	68bb      	ldr	r3, [r7, #8]
 80072d8:	6cdb      	ldr	r3, [r3, #76]	; 0x4c
 80072da:	429a      	cmp	r2, r3
 80072dc:	d02c      	beq.n	8007338 <xTaskPriorityDisinherit+0xa0>
 80072de:	68bb      	ldr	r3, [r7, #8]
 80072e0:	6d1b      	ldr	r3, [r3, #80]	; 0x50
 80072e2:	2b00      	cmp	r3, #0
 80072e4:	d128      	bne.n	8007338 <xTaskPriorityDisinherit+0xa0>
 80072e6:	68bb      	ldr	r3, [r7, #8]
 80072e8:	3304      	adds	r3, #4
 80072ea:	0018      	movs	r0, r3
 80072ec:	f7fe fded 	bl	8005eca <uxListRemove>
 80072f0:	68bb      	ldr	r3, [r7, #8]
 80072f2:	6cda      	ldr	r2, [r3, #76]	; 0x4c
 80072f4:	68bb      	ldr	r3, [r7, #8]
 80072f6:	62da      	str	r2, [r3, #44]	; 0x2c
 80072f8:	68bb      	ldr	r3, [r7, #8]
 80072fa:	6adb      	ldr	r3, [r3, #44]	; 0x2c
 80072fc:	2238      	movs	r2, #56	; 0x38
 80072fe:	1ad2      	subs	r2, r2, r3
 8007300:	68bb      	ldr	r3, [r7, #8]
 8007302:	619a      	str	r2, [r3, #24]
 8007304:	68bb      	ldr	r3, [r7, #8]
 8007306:	6ada      	ldr	r2, [r3, #44]	; 0x2c
 8007308:	4b0f      	ldr	r3, [pc, #60]	; (8007348 <xTaskPriorityDisinherit+0xb0>)
 800730a:	681b      	ldr	r3, [r3, #0]
 800730c:	429a      	cmp	r2, r3
 800730e:	d903      	bls.n	8007318 <xTaskPriorityDisinherit+0x80>
 8007310:	68bb      	ldr	r3, [r7, #8]
 8007312:	6ada      	ldr	r2, [r3, #44]	; 0x2c
 8007314:	4b0c      	ldr	r3, [pc, #48]	; (8007348 <xTaskPriorityDisinherit+0xb0>)
 8007316:	601a      	str	r2, [r3, #0]
 8007318:	68bb      	ldr	r3, [r7, #8]
 800731a:	6ada      	ldr	r2, [r3, #44]	; 0x2c
 800731c:	0013      	movs	r3, r2
 800731e:	009b      	lsls	r3, r3, #2
 8007320:	189b      	adds	r3, r3, r2
 8007322:	009b      	lsls	r3, r3, #2
 8007324:	4a09      	ldr	r2, [pc, #36]	; (800734c <xTaskPriorityDisinherit+0xb4>)
 8007326:	189a      	adds	r2, r3, r2
 8007328:	68bb      	ldr	r3, [r7, #8]
 800732a:	3304      	adds	r3, #4
 800732c:	0019      	movs	r1, r3
 800732e:	0010      	movs	r0, r2
 8007330:	f7fe fd73 	bl	8005e1a <vListInsertEnd>
 8007334:	2301      	movs	r3, #1
 8007336:	60fb      	str	r3, [r7, #12]
 8007338:	68fb      	ldr	r3, [r7, #12]
 800733a:	0018      	movs	r0, r3
 800733c:	46bd      	mov	sp, r7
 800733e:	b004      	add	sp, #16
 8007340:	bd80      	pop	{r7, pc}
 8007342:	46c0      	nop			; (mov r8, r8)
 8007344:	200004ec 	.word	0x200004ec
 8007348:	200009c8 	.word	0x200009c8
 800734c:	200004f0 	.word	0x200004f0

08007350 <prvAddCurrentTaskToDelayedList>:
 8007350:	b580      	push	{r7, lr}
 8007352:	b084      	sub	sp, #16
 8007354:	af00      	add	r7, sp, #0
 8007356:	6078      	str	r0, [r7, #4]
 8007358:	6039      	str	r1, [r7, #0]
 800735a:	4b21      	ldr	r3, [pc, #132]	; (80073e0 <prvAddCurrentTaskToDelayedList+0x90>)
 800735c:	681b      	ldr	r3, [r3, #0]
 800735e:	60fb      	str	r3, [r7, #12]
 8007360:	4b20      	ldr	r3, [pc, #128]	; (80073e4 <prvAddCurrentTaskToDelayedList+0x94>)
 8007362:	681b      	ldr	r3, [r3, #0]
 8007364:	3304      	adds	r3, #4
 8007366:	0018      	movs	r0, r3
 8007368:	f7fe fdaf 	bl	8005eca <uxListRemove>
 800736c:	687b      	ldr	r3, [r7, #4]
 800736e:	3301      	adds	r3, #1
 8007370:	d10b      	bne.n	800738a <prvAddCurrentTaskToDelayedList+0x3a>
 8007372:	683b      	ldr	r3, [r7, #0]
 8007374:	2b00      	cmp	r3, #0
 8007376:	d008      	beq.n	800738a <prvAddCurrentTaskToDelayedList+0x3a>
 8007378:	4b1a      	ldr	r3, [pc, #104]	; (80073e4 <prvAddCurrentTaskToDelayedList+0x94>)
 800737a:	681b      	ldr	r3, [r3, #0]
 800737c:	1d1a      	adds	r2, r3, #4
 800737e:	4b1a      	ldr	r3, [pc, #104]	; (80073e8 <prvAddCurrentTaskToDelayedList+0x98>)
 8007380:	0011      	movs	r1, r2
 8007382:	0018      	movs	r0, r3
 8007384:	f7fe fd49 	bl	8005e1a <vListInsertEnd>
 8007388:	e026      	b.n	80073d8 <prvAddCurrentTaskToDelayedList+0x88>
 800738a:	68fa      	ldr	r2, [r7, #12]
 800738c:	687b      	ldr	r3, [r7, #4]
 800738e:	18d3      	adds	r3, r2, r3
 8007390:	60bb      	str	r3, [r7, #8]
 8007392:	4b14      	ldr	r3, [pc, #80]	; (80073e4 <prvAddCurrentTaskToDelayedList+0x94>)
 8007394:	681b      	ldr	r3, [r3, #0]
 8007396:	68ba      	ldr	r2, [r7, #8]
 8007398:	605a      	str	r2, [r3, #4]
 800739a:	68ba      	ldr	r2, [r7, #8]
 800739c:	68fb      	ldr	r3, [r7, #12]
 800739e:	429a      	cmp	r2, r3
 80073a0:	d209      	bcs.n	80073b6 <prvAddCurrentTaskToDelayedList+0x66>
 80073a2:	4b12      	ldr	r3, [pc, #72]	; (80073ec <prvAddCurrentTaskToDelayedList+0x9c>)
 80073a4:	681a      	ldr	r2, [r3, #0]
 80073a6:	4b0f      	ldr	r3, [pc, #60]	; (80073e4 <prvAddCurrentTaskToDelayedList+0x94>)
 80073a8:	681b      	ldr	r3, [r3, #0]
 80073aa:	3304      	adds	r3, #4
 80073ac:	0019      	movs	r1, r3
 80073ae:	0010      	movs	r0, r2
 80073b0:	f7fe fd55 	bl	8005e5e <vListInsert>
 80073b4:	e010      	b.n	80073d8 <prvAddCurrentTaskToDelayedList+0x88>
 80073b6:	4b0e      	ldr	r3, [pc, #56]	; (80073f0 <prvAddCurrentTaskToDelayedList+0xa0>)
 80073b8:	681a      	ldr	r2, [r3, #0]
 80073ba:	4b0a      	ldr	r3, [pc, #40]	; (80073e4 <prvAddCurrentTaskToDelayedList+0x94>)
 80073bc:	681b      	ldr	r3, [r3, #0]
 80073be:	3304      	adds	r3, #4
 80073c0:	0019      	movs	r1, r3
 80073c2:	0010      	movs	r0, r2
 80073c4:	f7fe fd4b 	bl	8005e5e <vListInsert>
 80073c8:	4b0a      	ldr	r3, [pc, #40]	; (80073f4 <prvAddCurrentTaskToDelayedList+0xa4>)
 80073ca:	681b      	ldr	r3, [r3, #0]
 80073cc:	68ba      	ldr	r2, [r7, #8]
 80073ce:	429a      	cmp	r2, r3
 80073d0:	d202      	bcs.n	80073d8 <prvAddCurrentTaskToDelayedList+0x88>
 80073d2:	4b08      	ldr	r3, [pc, #32]	; (80073f4 <prvAddCurrentTaskToDelayedList+0xa4>)
 80073d4:	68ba      	ldr	r2, [r7, #8]
 80073d6:	601a      	str	r2, [r3, #0]
 80073d8:	46c0      	nop			; (mov r8, r8)
 80073da:	46bd      	mov	sp, r7
 80073dc:	b004      	add	sp, #16
 80073de:	bd80      	pop	{r7, pc}
 80073e0:	200009c4 	.word	0x200009c4
 80073e4:	200004ec 	.word	0x200004ec
 80073e8:	200009ac 	.word	0x200009ac
 80073ec:	2000097c 	.word	0x2000097c
 80073f0:	20000978 	.word	0x20000978
 80073f4:	200009e0 	.word	0x200009e0

080073f8 <xTimerCreateTimerTask>:
 80073f8:	b590      	push	{r4, r7, lr}
 80073fa:	b089      	sub	sp, #36	; 0x24
 80073fc:	af04      	add	r7, sp, #16
 80073fe:	2300      	movs	r3, #0
 8007400:	60fb      	str	r3, [r7, #12]
 8007402:	f000 fa87 	bl	8007914 <prvCheckForValidListAndQueue>
 8007406:	4b17      	ldr	r3, [pc, #92]	; (8007464 <xTimerCreateTimerTask+0x6c>)
 8007408:	681b      	ldr	r3, [r3, #0]
 800740a:	2b00      	cmp	r3, #0
 800740c:	d020      	beq.n	8007450 <xTimerCreateTimerTask+0x58>
 800740e:	2300      	movs	r3, #0
 8007410:	60bb      	str	r3, [r7, #8]
 8007412:	2300      	movs	r3, #0
 8007414:	607b      	str	r3, [r7, #4]
 8007416:	003a      	movs	r2, r7
 8007418:	1d39      	adds	r1, r7, #4
 800741a:	2308      	movs	r3, #8
 800741c:	18fb      	adds	r3, r7, r3
 800741e:	0018      	movs	r0, r3
 8007420:	f7fe fcba 	bl	8005d98 <vApplicationGetTimerTaskMemory>
 8007424:	683c      	ldr	r4, [r7, #0]
 8007426:	687b      	ldr	r3, [r7, #4]
 8007428:	68ba      	ldr	r2, [r7, #8]
 800742a:	490f      	ldr	r1, [pc, #60]	; (8007468 <xTimerCreateTimerTask+0x70>)
 800742c:	480f      	ldr	r0, [pc, #60]	; (800746c <xTimerCreateTimerTask+0x74>)
 800742e:	9202      	str	r2, [sp, #8]
 8007430:	9301      	str	r3, [sp, #4]
 8007432:	2302      	movs	r3, #2
 8007434:	9300      	str	r3, [sp, #0]
 8007436:	2300      	movs	r3, #0
 8007438:	0022      	movs	r2, r4
 800743a:	f7ff f996 	bl	800676a <xTaskCreateStatic>
 800743e:	0002      	movs	r2, r0
 8007440:	4b0b      	ldr	r3, [pc, #44]	; (8007470 <xTimerCreateTimerTask+0x78>)
 8007442:	601a      	str	r2, [r3, #0]
 8007444:	4b0a      	ldr	r3, [pc, #40]	; (8007470 <xTimerCreateTimerTask+0x78>)
 8007446:	681b      	ldr	r3, [r3, #0]
 8007448:	2b00      	cmp	r3, #0
 800744a:	d001      	beq.n	8007450 <xTimerCreateTimerTask+0x58>
 800744c:	2301      	movs	r3, #1
 800744e:	60fb      	str	r3, [r7, #12]
 8007450:	68fb      	ldr	r3, [r7, #12]
 8007452:	2b00      	cmp	r3, #0
 8007454:	d101      	bne.n	800745a <xTimerCreateTimerTask+0x62>
 8007456:	b672      	cpsid	i
 8007458:	e7fe      	b.n	8007458 <xTimerCreateTimerTask+0x60>
 800745a:	68fb      	ldr	r3, [r7, #12]
 800745c:	0018      	movs	r0, r3
 800745e:	46bd      	mov	sp, r7
 8007460:	b005      	add	sp, #20
 8007462:	bd90      	pop	{r4, r7, pc}
 8007464:	20000a1c 	.word	0x20000a1c
 8007468:	08008a58 	.word	0x08008a58
 800746c:	08007579 	.word	0x08007579
 8007470:	20000a20 	.word	0x20000a20

08007474 <xTimerGenericCommand>:
 8007474:	b590      	push	{r4, r7, lr}
 8007476:	b08b      	sub	sp, #44	; 0x2c
 8007478:	af00      	add	r7, sp, #0
 800747a:	60f8      	str	r0, [r7, #12]
 800747c:	60b9      	str	r1, [r7, #8]
 800747e:	607a      	str	r2, [r7, #4]
 8007480:	603b      	str	r3, [r7, #0]
 8007482:	2300      	movs	r3, #0
 8007484:	627b      	str	r3, [r7, #36]	; 0x24
 8007486:	68fb      	ldr	r3, [r7, #12]
 8007488:	2b00      	cmp	r3, #0
 800748a:	d101      	bne.n	8007490 <xTimerGenericCommand+0x1c>
 800748c:	b672      	cpsid	i
 800748e:	e7fe      	b.n	800748e <xTimerGenericCommand+0x1a>
 8007490:	4b1c      	ldr	r3, [pc, #112]	; (8007504 <xTimerGenericCommand+0x90>)
 8007492:	681b      	ldr	r3, [r3, #0]
 8007494:	2b00      	cmp	r3, #0
 8007496:	d030      	beq.n	80074fa <xTimerGenericCommand+0x86>
 8007498:	2414      	movs	r4, #20
 800749a:	193b      	adds	r3, r7, r4
 800749c:	68ba      	ldr	r2, [r7, #8]
 800749e:	601a      	str	r2, [r3, #0]
 80074a0:	193b      	adds	r3, r7, r4
 80074a2:	687a      	ldr	r2, [r7, #4]
 80074a4:	605a      	str	r2, [r3, #4]
 80074a6:	193b      	adds	r3, r7, r4
 80074a8:	68fa      	ldr	r2, [r7, #12]
 80074aa:	609a      	str	r2, [r3, #8]
 80074ac:	68bb      	ldr	r3, [r7, #8]
 80074ae:	2b05      	cmp	r3, #5
 80074b0:	dc19      	bgt.n	80074e6 <xTimerGenericCommand+0x72>
 80074b2:	f7ff fed5 	bl	8007260 <xTaskGetSchedulerState>
 80074b6:	0003      	movs	r3, r0
 80074b8:	2b02      	cmp	r3, #2
 80074ba:	d109      	bne.n	80074d0 <xTimerGenericCommand+0x5c>
 80074bc:	4b11      	ldr	r3, [pc, #68]	; (8007504 <xTimerGenericCommand+0x90>)
 80074be:	6818      	ldr	r0, [r3, #0]
 80074c0:	6bba      	ldr	r2, [r7, #56]	; 0x38
 80074c2:	1939      	adds	r1, r7, r4
 80074c4:	2300      	movs	r3, #0
 80074c6:	f7fe fdee 	bl	80060a6 <xQueueGenericSend>
 80074ca:	0003      	movs	r3, r0
 80074cc:	627b      	str	r3, [r7, #36]	; 0x24
 80074ce:	e014      	b.n	80074fa <xTimerGenericCommand+0x86>
 80074d0:	4b0c      	ldr	r3, [pc, #48]	; (8007504 <xTimerGenericCommand+0x90>)
 80074d2:	6818      	ldr	r0, [r3, #0]
 80074d4:	2314      	movs	r3, #20
 80074d6:	18f9      	adds	r1, r7, r3
 80074d8:	2300      	movs	r3, #0
 80074da:	2200      	movs	r2, #0
 80074dc:	f7fe fde3 	bl	80060a6 <xQueueGenericSend>
 80074e0:	0003      	movs	r3, r0
 80074e2:	627b      	str	r3, [r7, #36]	; 0x24
 80074e4:	e009      	b.n	80074fa <xTimerGenericCommand+0x86>
 80074e6:	4b07      	ldr	r3, [pc, #28]	; (8007504 <xTimerGenericCommand+0x90>)
 80074e8:	6818      	ldr	r0, [r3, #0]
 80074ea:	683a      	ldr	r2, [r7, #0]
 80074ec:	2314      	movs	r3, #20
 80074ee:	18f9      	adds	r1, r7, r3
 80074f0:	2300      	movs	r3, #0
 80074f2:	f7fe fe9c 	bl	800622e <xQueueGenericSendFromISR>
 80074f6:	0003      	movs	r3, r0
 80074f8:	627b      	str	r3, [r7, #36]	; 0x24
 80074fa:	6a7b      	ldr	r3, [r7, #36]	; 0x24
 80074fc:	0018      	movs	r0, r3
 80074fe:	46bd      	mov	sp, r7
 8007500:	b00b      	add	sp, #44	; 0x2c
 8007502:	bd90      	pop	{r4, r7, pc}
 8007504:	20000a1c 	.word	0x20000a1c

08007508 <prvProcessExpiredTimer>:
 8007508:	b580      	push	{r7, lr}
 800750a:	b086      	sub	sp, #24
 800750c:	af02      	add	r7, sp, #8
 800750e:	6078      	str	r0, [r7, #4]
 8007510:	6039      	str	r1, [r7, #0]
 8007512:	4b18      	ldr	r3, [pc, #96]	; (8007574 <prvProcessExpiredTimer+0x6c>)
 8007514:	681b      	ldr	r3, [r3, #0]
 8007516:	68db      	ldr	r3, [r3, #12]
 8007518:	68db      	ldr	r3, [r3, #12]
 800751a:	60fb      	str	r3, [r7, #12]
 800751c:	68fb      	ldr	r3, [r7, #12]
 800751e:	3304      	adds	r3, #4
 8007520:	0018      	movs	r0, r3
 8007522:	f7fe fcd2 	bl	8005eca <uxListRemove>
 8007526:	68fb      	ldr	r3, [r7, #12]
 8007528:	69db      	ldr	r3, [r3, #28]
 800752a:	2b01      	cmp	r3, #1
 800752c:	d119      	bne.n	8007562 <prvProcessExpiredTimer+0x5a>
 800752e:	68fb      	ldr	r3, [r7, #12]
 8007530:	699a      	ldr	r2, [r3, #24]
 8007532:	687b      	ldr	r3, [r7, #4]
 8007534:	18d1      	adds	r1, r2, r3
 8007536:	687b      	ldr	r3, [r7, #4]
 8007538:	683a      	ldr	r2, [r7, #0]
 800753a:	68f8      	ldr	r0, [r7, #12]
 800753c:	f000 f8b6 	bl	80076ac <prvInsertTimerInActiveList>
 8007540:	1e03      	subs	r3, r0, #0
 8007542:	d00e      	beq.n	8007562 <prvProcessExpiredTimer+0x5a>
 8007544:	687a      	ldr	r2, [r7, #4]
 8007546:	68f8      	ldr	r0, [r7, #12]
 8007548:	2300      	movs	r3, #0
 800754a:	9300      	str	r3, [sp, #0]
 800754c:	2300      	movs	r3, #0
 800754e:	2100      	movs	r1, #0
 8007550:	f7ff ff90 	bl	8007474 <xTimerGenericCommand>
 8007554:	0003      	movs	r3, r0
 8007556:	60bb      	str	r3, [r7, #8]
 8007558:	68bb      	ldr	r3, [r7, #8]
 800755a:	2b00      	cmp	r3, #0
 800755c:	d101      	bne.n	8007562 <prvProcessExpiredTimer+0x5a>
 800755e:	b672      	cpsid	i
 8007560:	e7fe      	b.n	8007560 <prvProcessExpiredTimer+0x58>
 8007562:	68fb      	ldr	r3, [r7, #12]
 8007564:	6a5b      	ldr	r3, [r3, #36]	; 0x24
 8007566:	68fa      	ldr	r2, [r7, #12]
 8007568:	0010      	movs	r0, r2
 800756a:	4798      	blx	r3
 800756c:	46c0      	nop			; (mov r8, r8)
 800756e:	46bd      	mov	sp, r7
 8007570:	b004      	add	sp, #16
 8007572:	bd80      	pop	{r7, pc}
 8007574:	20000a14 	.word	0x20000a14

08007578 <prvTimerTask>:
 8007578:	b580      	push	{r7, lr}
 800757a:	b084      	sub	sp, #16
 800757c:	af00      	add	r7, sp, #0
 800757e:	6078      	str	r0, [r7, #4]
 8007580:	2308      	movs	r3, #8
 8007582:	18fb      	adds	r3, r7, r3
 8007584:	0018      	movs	r0, r3
 8007586:	f000 f851 	bl	800762c <prvGetNextExpireTime>
 800758a:	0003      	movs	r3, r0
 800758c:	60fb      	str	r3, [r7, #12]
 800758e:	68ba      	ldr	r2, [r7, #8]
 8007590:	68fb      	ldr	r3, [r7, #12]
 8007592:	0011      	movs	r1, r2
 8007594:	0018      	movs	r0, r3
 8007596:	f000 f803 	bl	80075a0 <prvProcessTimerOrBlockTask>
 800759a:	f000 f8c9 	bl	8007730 <prvProcessReceivedCommands>
 800759e:	e7ef      	b.n	8007580 <prvTimerTask+0x8>

080075a0 <prvProcessTimerOrBlockTask>:
 80075a0:	b580      	push	{r7, lr}
 80075a2:	b084      	sub	sp, #16
 80075a4:	af00      	add	r7, sp, #0
 80075a6:	6078      	str	r0, [r7, #4]
 80075a8:	6039      	str	r1, [r7, #0]
 80075aa:	f7ff fad1 	bl	8006b50 <vTaskSuspendAll>
 80075ae:	2308      	movs	r3, #8
 80075b0:	18fb      	adds	r3, r7, r3
 80075b2:	0018      	movs	r0, r3
 80075b4:	f000 f85a 	bl	800766c <prvSampleTimeNow>
 80075b8:	0003      	movs	r3, r0
 80075ba:	60fb      	str	r3, [r7, #12]
 80075bc:	68bb      	ldr	r3, [r7, #8]
 80075be:	2b00      	cmp	r3, #0
 80075c0:	d129      	bne.n	8007616 <prvProcessTimerOrBlockTask+0x76>
 80075c2:	683b      	ldr	r3, [r7, #0]
 80075c4:	2b00      	cmp	r3, #0
 80075c6:	d10c      	bne.n	80075e2 <prvProcessTimerOrBlockTask+0x42>
 80075c8:	687a      	ldr	r2, [r7, #4]
 80075ca:	68fb      	ldr	r3, [r7, #12]
 80075cc:	429a      	cmp	r2, r3
 80075ce:	d808      	bhi.n	80075e2 <prvProcessTimerOrBlockTask+0x42>
 80075d0:	f7ff faca 	bl	8006b68 <xTaskResumeAll>
 80075d4:	68fa      	ldr	r2, [r7, #12]
 80075d6:	687b      	ldr	r3, [r7, #4]
 80075d8:	0011      	movs	r1, r2
 80075da:	0018      	movs	r0, r3
 80075dc:	f7ff ff94 	bl	8007508 <prvProcessExpiredTimer>
 80075e0:	e01b      	b.n	800761a <prvProcessTimerOrBlockTask+0x7a>
 80075e2:	683b      	ldr	r3, [r7, #0]
 80075e4:	2b00      	cmp	r3, #0
 80075e6:	d006      	beq.n	80075f6 <prvProcessTimerOrBlockTask+0x56>
 80075e8:	4b0e      	ldr	r3, [pc, #56]	; (8007624 <prvProcessTimerOrBlockTask+0x84>)
 80075ea:	681b      	ldr	r3, [r3, #0]
 80075ec:	681b      	ldr	r3, [r3, #0]
 80075ee:	425a      	negs	r2, r3
 80075f0:	4153      	adcs	r3, r2
 80075f2:	b2db      	uxtb	r3, r3
 80075f4:	603b      	str	r3, [r7, #0]
 80075f6:	4b0c      	ldr	r3, [pc, #48]	; (8007628 <prvProcessTimerOrBlockTask+0x88>)
 80075f8:	6818      	ldr	r0, [r3, #0]
 80075fa:	687a      	ldr	r2, [r7, #4]
 80075fc:	68fb      	ldr	r3, [r7, #12]
 80075fe:	1ad3      	subs	r3, r2, r3
 8007600:	683a      	ldr	r2, [r7, #0]
 8007602:	0019      	movs	r1, r3
 8007604:	f7ff f87e 	bl	8006704 <vQueueWaitForMessageRestricted>
 8007608:	f7ff faae 	bl	8006b68 <xTaskResumeAll>
 800760c:	1e03      	subs	r3, r0, #0
 800760e:	d104      	bne.n	800761a <prvProcessTimerOrBlockTask+0x7a>
 8007610:	f000 fa4e 	bl	8007ab0 <vPortYield>
 8007614:	e001      	b.n	800761a <prvProcessTimerOrBlockTask+0x7a>
 8007616:	f7ff faa7 	bl	8006b68 <xTaskResumeAll>
 800761a:	46c0      	nop			; (mov r8, r8)
 800761c:	46bd      	mov	sp, r7
 800761e:	b004      	add	sp, #16
 8007620:	bd80      	pop	{r7, pc}
 8007622:	46c0      	nop			; (mov r8, r8)
 8007624:	20000a18 	.word	0x20000a18
 8007628:	20000a1c 	.word	0x20000a1c

0800762c <prvGetNextExpireTime>:
 800762c:	b580      	push	{r7, lr}
 800762e:	b084      	sub	sp, #16
 8007630:	af00      	add	r7, sp, #0
 8007632:	6078      	str	r0, [r7, #4]
 8007634:	4b0c      	ldr	r3, [pc, #48]	; (8007668 <prvGetNextExpireTime+0x3c>)
 8007636:	681b      	ldr	r3, [r3, #0]
 8007638:	681b      	ldr	r3, [r3, #0]
 800763a:	425a      	negs	r2, r3
 800763c:	4153      	adcs	r3, r2
 800763e:	b2db      	uxtb	r3, r3
 8007640:	001a      	movs	r2, r3
 8007642:	687b      	ldr	r3, [r7, #4]
 8007644:	601a      	str	r2, [r3, #0]
 8007646:	687b      	ldr	r3, [r7, #4]
 8007648:	681b      	ldr	r3, [r3, #0]
 800764a:	2b00      	cmp	r3, #0
 800764c:	d105      	bne.n	800765a <prvGetNextExpireTime+0x2e>
 800764e:	4b06      	ldr	r3, [pc, #24]	; (8007668 <prvGetNextExpireTime+0x3c>)
 8007650:	681b      	ldr	r3, [r3, #0]
 8007652:	68db      	ldr	r3, [r3, #12]
 8007654:	681b      	ldr	r3, [r3, #0]
 8007656:	60fb      	str	r3, [r7, #12]
 8007658:	e001      	b.n	800765e <prvGetNextExpireTime+0x32>
 800765a:	2300      	movs	r3, #0
 800765c:	60fb      	str	r3, [r7, #12]
 800765e:	68fb      	ldr	r3, [r7, #12]
 8007660:	0018      	movs	r0, r3
 8007662:	46bd      	mov	sp, r7
 8007664:	b004      	add	sp, #16
 8007666:	bd80      	pop	{r7, pc}
 8007668:	20000a14 	.word	0x20000a14

0800766c <prvSampleTimeNow>:
 800766c:	b580      	push	{r7, lr}
 800766e:	b084      	sub	sp, #16
 8007670:	af00      	add	r7, sp, #0
 8007672:	6078      	str	r0, [r7, #4]
 8007674:	f7ff fb04 	bl	8006c80 <xTaskGetTickCount>
 8007678:	0003      	movs	r3, r0
 800767a:	60fb      	str	r3, [r7, #12]
 800767c:	4b0a      	ldr	r3, [pc, #40]	; (80076a8 <prvSampleTimeNow+0x3c>)
 800767e:	681b      	ldr	r3, [r3, #0]
 8007680:	68fa      	ldr	r2, [r7, #12]
 8007682:	429a      	cmp	r2, r3
 8007684:	d205      	bcs.n	8007692 <prvSampleTimeNow+0x26>
 8007686:	f000 f8eb 	bl	8007860 <prvSwitchTimerLists>
 800768a:	687b      	ldr	r3, [r7, #4]
 800768c:	2201      	movs	r2, #1
 800768e:	601a      	str	r2, [r3, #0]
 8007690:	e002      	b.n	8007698 <prvSampleTimeNow+0x2c>
 8007692:	687b      	ldr	r3, [r7, #4]
 8007694:	2200      	movs	r2, #0
 8007696:	601a      	str	r2, [r3, #0]
 8007698:	4b03      	ldr	r3, [pc, #12]	; (80076a8 <prvSampleTimeNow+0x3c>)
 800769a:	68fa      	ldr	r2, [r7, #12]
 800769c:	601a      	str	r2, [r3, #0]
 800769e:	68fb      	ldr	r3, [r7, #12]
 80076a0:	0018      	movs	r0, r3
 80076a2:	46bd      	mov	sp, r7
 80076a4:	b004      	add	sp, #16
 80076a6:	bd80      	pop	{r7, pc}
 80076a8:	20000a24 	.word	0x20000a24

080076ac <prvInsertTimerInActiveList>:
 80076ac:	b580      	push	{r7, lr}
 80076ae:	b086      	sub	sp, #24
 80076b0:	af00      	add	r7, sp, #0
 80076b2:	60f8      	str	r0, [r7, #12]
 80076b4:	60b9      	str	r1, [r7, #8]
 80076b6:	607a      	str	r2, [r7, #4]
 80076b8:	603b      	str	r3, [r7, #0]
 80076ba:	2300      	movs	r3, #0
 80076bc:	617b      	str	r3, [r7, #20]
 80076be:	68fb      	ldr	r3, [r7, #12]
 80076c0:	68ba      	ldr	r2, [r7, #8]
 80076c2:	605a      	str	r2, [r3, #4]
 80076c4:	68fb      	ldr	r3, [r7, #12]
 80076c6:	68fa      	ldr	r2, [r7, #12]
 80076c8:	611a      	str	r2, [r3, #16]
 80076ca:	68ba      	ldr	r2, [r7, #8]
 80076cc:	687b      	ldr	r3, [r7, #4]
 80076ce:	429a      	cmp	r2, r3
 80076d0:	d812      	bhi.n	80076f8 <prvInsertTimerInActiveList+0x4c>
 80076d2:	687a      	ldr	r2, [r7, #4]
 80076d4:	683b      	ldr	r3, [r7, #0]
 80076d6:	1ad2      	subs	r2, r2, r3
 80076d8:	68fb      	ldr	r3, [r7, #12]
 80076da:	699b      	ldr	r3, [r3, #24]
 80076dc:	429a      	cmp	r2, r3
 80076de:	d302      	bcc.n	80076e6 <prvInsertTimerInActiveList+0x3a>
 80076e0:	2301      	movs	r3, #1
 80076e2:	617b      	str	r3, [r7, #20]
 80076e4:	e01b      	b.n	800771e <prvInsertTimerInActiveList+0x72>
 80076e6:	4b10      	ldr	r3, [pc, #64]	; (8007728 <prvInsertTimerInActiveList+0x7c>)
 80076e8:	681a      	ldr	r2, [r3, #0]
 80076ea:	68fb      	ldr	r3, [r7, #12]
 80076ec:	3304      	adds	r3, #4
 80076ee:	0019      	movs	r1, r3
 80076f0:	0010      	movs	r0, r2
 80076f2:	f7fe fbb4 	bl	8005e5e <vListInsert>
 80076f6:	e012      	b.n	800771e <prvInsertTimerInActiveList+0x72>
 80076f8:	687a      	ldr	r2, [r7, #4]
 80076fa:	683b      	ldr	r3, [r7, #0]
 80076fc:	429a      	cmp	r2, r3
 80076fe:	d206      	bcs.n	800770e <prvInsertTimerInActiveList+0x62>
 8007700:	68ba      	ldr	r2, [r7, #8]
 8007702:	683b      	ldr	r3, [r7, #0]
 8007704:	429a      	cmp	r2, r3
 8007706:	d302      	bcc.n	800770e <prvInsertTimerInActiveList+0x62>
 8007708:	2301      	movs	r3, #1
 800770a:	617b      	str	r3, [r7, #20]
 800770c:	e007      	b.n	800771e <prvInsertTimerInActiveList+0x72>
 800770e:	4b07      	ldr	r3, [pc, #28]	; (800772c <prvInsertTimerInActiveList+0x80>)
 8007710:	681a      	ldr	r2, [r3, #0]
 8007712:	68fb      	ldr	r3, [r7, #12]
 8007714:	3304      	adds	r3, #4
 8007716:	0019      	movs	r1, r3
 8007718:	0010      	movs	r0, r2
 800771a:	f7fe fba0 	bl	8005e5e <vListInsert>
 800771e:	697b      	ldr	r3, [r7, #20]
 8007720:	0018      	movs	r0, r3
 8007722:	46bd      	mov	sp, r7
 8007724:	b006      	add	sp, #24
 8007726:	bd80      	pop	{r7, pc}
 8007728:	20000a18 	.word	0x20000a18
 800772c:	20000a14 	.word	0x20000a14

08007730 <prvProcessReceivedCommands>:
 8007730:	b590      	push	{r4, r7, lr}
 8007732:	b08d      	sub	sp, #52	; 0x34
 8007734:	af02      	add	r7, sp, #8
 8007736:	e07f      	b.n	8007838 <prvProcessReceivedCommands+0x108>
 8007738:	2208      	movs	r2, #8
 800773a:	18bb      	adds	r3, r7, r2
 800773c:	681b      	ldr	r3, [r3, #0]
 800773e:	2b00      	cmp	r3, #0
 8007740:	da0f      	bge.n	8007762 <prvProcessReceivedCommands+0x32>
 8007742:	18bb      	adds	r3, r7, r2
 8007744:	3304      	adds	r3, #4
 8007746:	627b      	str	r3, [r7, #36]	; 0x24
 8007748:	6a7b      	ldr	r3, [r7, #36]	; 0x24
 800774a:	2b00      	cmp	r3, #0
 800774c:	d101      	bne.n	8007752 <prvProcessReceivedCommands+0x22>
 800774e:	b672      	cpsid	i
 8007750:	e7fe      	b.n	8007750 <prvProcessReceivedCommands+0x20>
 8007752:	6a7b      	ldr	r3, [r7, #36]	; 0x24
 8007754:	681a      	ldr	r2, [r3, #0]
 8007756:	6a7b      	ldr	r3, [r7, #36]	; 0x24
 8007758:	6858      	ldr	r0, [r3, #4]
 800775a:	6a7b      	ldr	r3, [r7, #36]	; 0x24
 800775c:	689b      	ldr	r3, [r3, #8]
 800775e:	0019      	movs	r1, r3
 8007760:	4790      	blx	r2
 8007762:	2208      	movs	r2, #8
 8007764:	18bb      	adds	r3, r7, r2
 8007766:	681b      	ldr	r3, [r3, #0]
 8007768:	2b00      	cmp	r3, #0
 800776a:	db64      	blt.n	8007836 <prvProcessReceivedCommands+0x106>
 800776c:	18bb      	adds	r3, r7, r2
 800776e:	689b      	ldr	r3, [r3, #8]
 8007770:	623b      	str	r3, [r7, #32]
 8007772:	6a3b      	ldr	r3, [r7, #32]
 8007774:	695b      	ldr	r3, [r3, #20]
 8007776:	2b00      	cmp	r3, #0
 8007778:	d004      	beq.n	8007784 <prvProcessReceivedCommands+0x54>
 800777a:	6a3b      	ldr	r3, [r7, #32]
 800777c:	3304      	adds	r3, #4
 800777e:	0018      	movs	r0, r3
 8007780:	f7fe fba3 	bl	8005eca <uxListRemove>
 8007784:	1d3b      	adds	r3, r7, #4
 8007786:	0018      	movs	r0, r3
 8007788:	f7ff ff70 	bl	800766c <prvSampleTimeNow>
 800778c:	0003      	movs	r3, r0
 800778e:	61fb      	str	r3, [r7, #28]
 8007790:	2308      	movs	r3, #8
 8007792:	18fb      	adds	r3, r7, r3
 8007794:	681b      	ldr	r3, [r3, #0]
 8007796:	2b09      	cmp	r3, #9
 8007798:	d84e      	bhi.n	8007838 <prvProcessReceivedCommands+0x108>
 800779a:	009a      	lsls	r2, r3, #2
 800779c:	4b2e      	ldr	r3, [pc, #184]	; (8007858 <prvProcessReceivedCommands+0x128>)
 800779e:	18d3      	adds	r3, r2, r3
 80077a0:	681b      	ldr	r3, [r3, #0]
 80077a2:	469f      	mov	pc, r3
 80077a4:	2408      	movs	r4, #8
 80077a6:	193b      	adds	r3, r7, r4
 80077a8:	685a      	ldr	r2, [r3, #4]
 80077aa:	6a3b      	ldr	r3, [r7, #32]
 80077ac:	699b      	ldr	r3, [r3, #24]
 80077ae:	18d1      	adds	r1, r2, r3
 80077b0:	193b      	adds	r3, r7, r4
 80077b2:	685b      	ldr	r3, [r3, #4]
 80077b4:	69fa      	ldr	r2, [r7, #28]
 80077b6:	6a38      	ldr	r0, [r7, #32]
 80077b8:	f7ff ff78 	bl	80076ac <prvInsertTimerInActiveList>
 80077bc:	1e03      	subs	r3, r0, #0
 80077be:	d03b      	beq.n	8007838 <prvProcessReceivedCommands+0x108>
 80077c0:	6a3b      	ldr	r3, [r7, #32]
 80077c2:	6a5b      	ldr	r3, [r3, #36]	; 0x24
 80077c4:	6a3a      	ldr	r2, [r7, #32]
 80077c6:	0010      	movs	r0, r2
 80077c8:	4798      	blx	r3
 80077ca:	6a3b      	ldr	r3, [r7, #32]
 80077cc:	69db      	ldr	r3, [r3, #28]
 80077ce:	2b01      	cmp	r3, #1
 80077d0:	d132      	bne.n	8007838 <prvProcessReceivedCommands+0x108>
 80077d2:	193b      	adds	r3, r7, r4
 80077d4:	685a      	ldr	r2, [r3, #4]
 80077d6:	6a3b      	ldr	r3, [r7, #32]
 80077d8:	699b      	ldr	r3, [r3, #24]
 80077da:	18d2      	adds	r2, r2, r3
 80077dc:	6a38      	ldr	r0, [r7, #32]
 80077de:	2300      	movs	r3, #0
 80077e0:	9300      	str	r3, [sp, #0]
 80077e2:	2300      	movs	r3, #0
 80077e4:	2100      	movs	r1, #0
 80077e6:	f7ff fe45 	bl	8007474 <xTimerGenericCommand>
 80077ea:	0003      	movs	r3, r0
 80077ec:	61bb      	str	r3, [r7, #24]
 80077ee:	69bb      	ldr	r3, [r7, #24]
 80077f0:	2b00      	cmp	r3, #0
 80077f2:	d121      	bne.n	8007838 <prvProcessReceivedCommands+0x108>
 80077f4:	b672      	cpsid	i
 80077f6:	e7fe      	b.n	80077f6 <prvProcessReceivedCommands+0xc6>
 80077f8:	2308      	movs	r3, #8
 80077fa:	18fb      	adds	r3, r7, r3
 80077fc:	685a      	ldr	r2, [r3, #4]
 80077fe:	6a3b      	ldr	r3, [r7, #32]
 8007800:	619a      	str	r2, [r3, #24]
 8007802:	6a3b      	ldr	r3, [r7, #32]
 8007804:	699b      	ldr	r3, [r3, #24]
 8007806:	2b00      	cmp	r3, #0
 8007808:	d101      	bne.n	800780e <prvProcessReceivedCommands+0xde>
 800780a:	b672      	cpsid	i
 800780c:	e7fe      	b.n	800780c <prvProcessReceivedCommands+0xdc>
 800780e:	6a3b      	ldr	r3, [r7, #32]
 8007810:	699a      	ldr	r2, [r3, #24]
 8007812:	69fb      	ldr	r3, [r7, #28]
 8007814:	18d1      	adds	r1, r2, r3
 8007816:	69fb      	ldr	r3, [r7, #28]
 8007818:	69fa      	ldr	r2, [r7, #28]
 800781a:	6a38      	ldr	r0, [r7, #32]
 800781c:	f7ff ff46 	bl	80076ac <prvInsertTimerInActiveList>
 8007820:	e00a      	b.n	8007838 <prvProcessReceivedCommands+0x108>
 8007822:	6a3b      	ldr	r3, [r7, #32]
 8007824:	222c      	movs	r2, #44	; 0x2c
 8007826:	5c9b      	ldrb	r3, [r3, r2]
 8007828:	2b00      	cmp	r3, #0
 800782a:	d105      	bne.n	8007838 <prvProcessReceivedCommands+0x108>
 800782c:	6a3b      	ldr	r3, [r7, #32]
 800782e:	0018      	movs	r0, r3
 8007830:	f000 fa8c 	bl	8007d4c <vPortFree>
 8007834:	e000      	b.n	8007838 <prvProcessReceivedCommands+0x108>
 8007836:	46c0      	nop			; (mov r8, r8)
 8007838:	4b08      	ldr	r3, [pc, #32]	; (800785c <prvProcessReceivedCommands+0x12c>)
 800783a:	681b      	ldr	r3, [r3, #0]
 800783c:	2208      	movs	r2, #8
 800783e:	18b9      	adds	r1, r7, r2
 8007840:	2200      	movs	r2, #0
 8007842:	0018      	movs	r0, r3
 8007844:	f7fe fd64 	bl	8006310 <xQueueReceive>
 8007848:	1e03      	subs	r3, r0, #0
 800784a:	d000      	beq.n	800784e <prvProcessReceivedCommands+0x11e>
 800784c:	e774      	b.n	8007738 <prvProcessReceivedCommands+0x8>
 800784e:	46c0      	nop			; (mov r8, r8)
 8007850:	46c0      	nop			; (mov r8, r8)
 8007852:	46bd      	mov	sp, r7
 8007854:	b00b      	add	sp, #44	; 0x2c
 8007856:	bd90      	pop	{r4, r7, pc}
 8007858:	08008b2c 	.word	0x08008b2c
 800785c:	20000a1c 	.word	0x20000a1c

08007860 <prvSwitchTimerLists>:
 8007860:	b580      	push	{r7, lr}
 8007862:	b088      	sub	sp, #32
 8007864:	af02      	add	r7, sp, #8
 8007866:	e03e      	b.n	80078e6 <prvSwitchTimerLists+0x86>
 8007868:	4b28      	ldr	r3, [pc, #160]	; (800790c <prvSwitchTimerLists+0xac>)
 800786a:	681b      	ldr	r3, [r3, #0]
 800786c:	68db      	ldr	r3, [r3, #12]
 800786e:	681b      	ldr	r3, [r3, #0]
 8007870:	613b      	str	r3, [r7, #16]
 8007872:	4b26      	ldr	r3, [pc, #152]	; (800790c <prvSwitchTimerLists+0xac>)
 8007874:	681b      	ldr	r3, [r3, #0]
 8007876:	68db      	ldr	r3, [r3, #12]
 8007878:	68db      	ldr	r3, [r3, #12]
 800787a:	60fb      	str	r3, [r7, #12]
 800787c:	68fb      	ldr	r3, [r7, #12]
 800787e:	3304      	adds	r3, #4
 8007880:	0018      	movs	r0, r3
 8007882:	f7fe fb22 	bl	8005eca <uxListRemove>
 8007886:	68fb      	ldr	r3, [r7, #12]
 8007888:	6a5b      	ldr	r3, [r3, #36]	; 0x24
 800788a:	68fa      	ldr	r2, [r7, #12]
 800788c:	0010      	movs	r0, r2
 800788e:	4798      	blx	r3
 8007890:	68fb      	ldr	r3, [r7, #12]
 8007892:	69db      	ldr	r3, [r3, #28]
 8007894:	2b01      	cmp	r3, #1
 8007896:	d126      	bne.n	80078e6 <prvSwitchTimerLists+0x86>
 8007898:	68fb      	ldr	r3, [r7, #12]
 800789a:	699b      	ldr	r3, [r3, #24]
 800789c:	693a      	ldr	r2, [r7, #16]
 800789e:	18d3      	adds	r3, r2, r3
 80078a0:	60bb      	str	r3, [r7, #8]
 80078a2:	68ba      	ldr	r2, [r7, #8]
 80078a4:	693b      	ldr	r3, [r7, #16]
 80078a6:	429a      	cmp	r2, r3
 80078a8:	d90e      	bls.n	80078c8 <prvSwitchTimerLists+0x68>
 80078aa:	68fb      	ldr	r3, [r7, #12]
 80078ac:	68ba      	ldr	r2, [r7, #8]
 80078ae:	605a      	str	r2, [r3, #4]
 80078b0:	68fb      	ldr	r3, [r7, #12]
 80078b2:	68fa      	ldr	r2, [r7, #12]
 80078b4:	611a      	str	r2, [r3, #16]
 80078b6:	4b15      	ldr	r3, [pc, #84]	; (800790c <prvSwitchTimerLists+0xac>)
 80078b8:	681a      	ldr	r2, [r3, #0]
 80078ba:	68fb      	ldr	r3, [r7, #12]
 80078bc:	3304      	adds	r3, #4
 80078be:	0019      	movs	r1, r3
 80078c0:	0010      	movs	r0, r2
 80078c2:	f7fe facc 	bl	8005e5e <vListInsert>
 80078c6:	e00e      	b.n	80078e6 <prvSwitchTimerLists+0x86>
 80078c8:	693a      	ldr	r2, [r7, #16]
 80078ca:	68f8      	ldr	r0, [r7, #12]
 80078cc:	2300      	movs	r3, #0
 80078ce:	9300      	str	r3, [sp, #0]
 80078d0:	2300      	movs	r3, #0
 80078d2:	2100      	movs	r1, #0
 80078d4:	f7ff fdce 	bl	8007474 <xTimerGenericCommand>
 80078d8:	0003      	movs	r3, r0
 80078da:	607b      	str	r3, [r7, #4]
 80078dc:	687b      	ldr	r3, [r7, #4]
 80078de:	2b00      	cmp	r3, #0
 80078e0:	d101      	bne.n	80078e6 <prvSwitchTimerLists+0x86>
 80078e2:	b672      	cpsid	i
 80078e4:	e7fe      	b.n	80078e4 <prvSwitchTimerLists+0x84>
 80078e6:	4b09      	ldr	r3, [pc, #36]	; (800790c <prvSwitchTimerLists+0xac>)
 80078e8:	681b      	ldr	r3, [r3, #0]
 80078ea:	681b      	ldr	r3, [r3, #0]
 80078ec:	2b00      	cmp	r3, #0
 80078ee:	d1bb      	bne.n	8007868 <prvSwitchTimerLists+0x8>
 80078f0:	4b06      	ldr	r3, [pc, #24]	; (800790c <prvSwitchTimerLists+0xac>)
 80078f2:	681b      	ldr	r3, [r3, #0]
 80078f4:	617b      	str	r3, [r7, #20]
 80078f6:	4b06      	ldr	r3, [pc, #24]	; (8007910 <prvSwitchTimerLists+0xb0>)
 80078f8:	681a      	ldr	r2, [r3, #0]
 80078fa:	4b04      	ldr	r3, [pc, #16]	; (800790c <prvSwitchTimerLists+0xac>)
 80078fc:	601a      	str	r2, [r3, #0]
 80078fe:	4b04      	ldr	r3, [pc, #16]	; (8007910 <prvSwitchTimerLists+0xb0>)
 8007900:	697a      	ldr	r2, [r7, #20]
 8007902:	601a      	str	r2, [r3, #0]
 8007904:	46c0      	nop			; (mov r8, r8)
 8007906:	46bd      	mov	sp, r7
 8007908:	b006      	add	sp, #24
 800790a:	bd80      	pop	{r7, pc}
 800790c:	20000a14 	.word	0x20000a14
 8007910:	20000a18 	.word	0x20000a18

08007914 <prvCheckForValidListAndQueue>:
 8007914:	b580      	push	{r7, lr}
 8007916:	b082      	sub	sp, #8
 8007918:	af02      	add	r7, sp, #8
 800791a:	f000 f8d9 	bl	8007ad0 <vPortEnterCritical>
 800791e:	4b16      	ldr	r3, [pc, #88]	; (8007978 <prvCheckForValidListAndQueue+0x64>)
 8007920:	681b      	ldr	r3, [r3, #0]
 8007922:	2b00      	cmp	r3, #0
 8007924:	d123      	bne.n	800796e <prvCheckForValidListAndQueue+0x5a>
 8007926:	4b15      	ldr	r3, [pc, #84]	; (800797c <prvCheckForValidListAndQueue+0x68>)
 8007928:	0018      	movs	r0, r3
 800792a:	f7fe fa4d 	bl	8005dc8 <vListInitialise>
 800792e:	4b14      	ldr	r3, [pc, #80]	; (8007980 <prvCheckForValidListAndQueue+0x6c>)
 8007930:	0018      	movs	r0, r3
 8007932:	f7fe fa49 	bl	8005dc8 <vListInitialise>
 8007936:	4b13      	ldr	r3, [pc, #76]	; (8007984 <prvCheckForValidListAndQueue+0x70>)
 8007938:	4a10      	ldr	r2, [pc, #64]	; (800797c <prvCheckForValidListAndQueue+0x68>)
 800793a:	601a      	str	r2, [r3, #0]
 800793c:	4b12      	ldr	r3, [pc, #72]	; (8007988 <prvCheckForValidListAndQueue+0x74>)
 800793e:	4a10      	ldr	r2, [pc, #64]	; (8007980 <prvCheckForValidListAndQueue+0x6c>)
 8007940:	601a      	str	r2, [r3, #0]
 8007942:	4b12      	ldr	r3, [pc, #72]	; (800798c <prvCheckForValidListAndQueue+0x78>)
 8007944:	4a12      	ldr	r2, [pc, #72]	; (8007990 <prvCheckForValidListAndQueue+0x7c>)
 8007946:	2100      	movs	r1, #0
 8007948:	9100      	str	r1, [sp, #0]
 800794a:	2110      	movs	r1, #16
 800794c:	200a      	movs	r0, #10
 800794e:	f7fe fb38 	bl	8005fc2 <xQueueGenericCreateStatic>
 8007952:	0002      	movs	r2, r0
 8007954:	4b08      	ldr	r3, [pc, #32]	; (8007978 <prvCheckForValidListAndQueue+0x64>)
 8007956:	601a      	str	r2, [r3, #0]
 8007958:	4b07      	ldr	r3, [pc, #28]	; (8007978 <prvCheckForValidListAndQueue+0x64>)
 800795a:	681b      	ldr	r3, [r3, #0]
 800795c:	2b00      	cmp	r3, #0
 800795e:	d006      	beq.n	800796e <prvCheckForValidListAndQueue+0x5a>
 8007960:	4b05      	ldr	r3, [pc, #20]	; (8007978 <prvCheckForValidListAndQueue+0x64>)
 8007962:	681b      	ldr	r3, [r3, #0]
 8007964:	4a0b      	ldr	r2, [pc, #44]	; (8007994 <prvCheckForValidListAndQueue+0x80>)
 8007966:	0011      	movs	r1, r2
 8007968:	0018      	movs	r0, r3
 800796a:	f7fe fea3 	bl	80066b4 <vQueueAddToRegistry>
 800796e:	f000 f8c1 	bl	8007af4 <vPortExitCritical>
 8007972:	46c0      	nop			; (mov r8, r8)
 8007974:	46bd      	mov	sp, r7
 8007976:	bd80      	pop	{r7, pc}
 8007978:	20000a1c 	.word	0x20000a1c
 800797c:	200009ec 	.word	0x200009ec
 8007980:	20000a00 	.word	0x20000a00
 8007984:	20000a14 	.word	0x20000a14
 8007988:	20000a18 	.word	0x20000a18
 800798c:	20000ac8 	.word	0x20000ac8
 8007990:	20000a28 	.word	0x20000a28
 8007994:	08008a60 	.word	0x08008a60

08007998 <pxPortInitialiseStack>:
 8007998:	b580      	push	{r7, lr}
 800799a:	b084      	sub	sp, #16
 800799c:	af00      	add	r7, sp, #0
 800799e:	60f8      	str	r0, [r7, #12]
 80079a0:	60b9      	str	r1, [r7, #8]
 80079a2:	607a      	str	r2, [r7, #4]
 80079a4:	68fb      	ldr	r3, [r7, #12]
 80079a6:	3b04      	subs	r3, #4
 80079a8:	60fb      	str	r3, [r7, #12]
 80079aa:	68fb      	ldr	r3, [r7, #12]
 80079ac:	2280      	movs	r2, #128	; 0x80
 80079ae:	0452      	lsls	r2, r2, #17
 80079b0:	601a      	str	r2, [r3, #0]
 80079b2:	68fb      	ldr	r3, [r7, #12]
 80079b4:	3b04      	subs	r3, #4
 80079b6:	60fb      	str	r3, [r7, #12]
 80079b8:	68ba      	ldr	r2, [r7, #8]
 80079ba:	68fb      	ldr	r3, [r7, #12]
 80079bc:	601a      	str	r2, [r3, #0]
 80079be:	68fb      	ldr	r3, [r7, #12]
 80079c0:	3b04      	subs	r3, #4
 80079c2:	60fb      	str	r3, [r7, #12]
 80079c4:	4a08      	ldr	r2, [pc, #32]	; (80079e8 <pxPortInitialiseStack+0x50>)
 80079c6:	68fb      	ldr	r3, [r7, #12]
 80079c8:	601a      	str	r2, [r3, #0]
 80079ca:	68fb      	ldr	r3, [r7, #12]
 80079cc:	3b14      	subs	r3, #20
 80079ce:	60fb      	str	r3, [r7, #12]
 80079d0:	687a      	ldr	r2, [r7, #4]
 80079d2:	68fb      	ldr	r3, [r7, #12]
 80079d4:	601a      	str	r2, [r3, #0]
 80079d6:	68fb      	ldr	r3, [r7, #12]
 80079d8:	3b20      	subs	r3, #32
 80079da:	60fb      	str	r3, [r7, #12]
 80079dc:	68fb      	ldr	r3, [r7, #12]
 80079de:	0018      	movs	r0, r3
 80079e0:	46bd      	mov	sp, r7
 80079e2:	b004      	add	sp, #16
 80079e4:	bd80      	pop	{r7, pc}
 80079e6:	46c0      	nop			; (mov r8, r8)
 80079e8:	080079ed 	.word	0x080079ed

080079ec <prvTaskExitError>:
 80079ec:	b580      	push	{r7, lr}
 80079ee:	b082      	sub	sp, #8
 80079f0:	af00      	add	r7, sp, #0
 80079f2:	2300      	movs	r3, #0
 80079f4:	607b      	str	r3, [r7, #4]
 80079f6:	4b08      	ldr	r3, [pc, #32]	; (8007a18 <prvTaskExitError+0x2c>)
 80079f8:	681b      	ldr	r3, [r3, #0]
 80079fa:	3301      	adds	r3, #1
 80079fc:	d001      	beq.n	8007a02 <prvTaskExitError+0x16>
 80079fe:	b672      	cpsid	i
 8007a00:	e7fe      	b.n	8007a00 <prvTaskExitError+0x14>
 8007a02:	b672      	cpsid	i
 8007a04:	46c0      	nop			; (mov r8, r8)
 8007a06:	687b      	ldr	r3, [r7, #4]
 8007a08:	2b00      	cmp	r3, #0
 8007a0a:	d0fc      	beq.n	8007a06 <prvTaskExitError+0x1a>
 8007a0c:	46c0      	nop			; (mov r8, r8)
 8007a0e:	46c0      	nop			; (mov r8, r8)
 8007a10:	46bd      	mov	sp, r7
 8007a12:	b002      	add	sp, #8
 8007a14:	bd80      	pop	{r7, pc}
 8007a16:	46c0      	nop			; (mov r8, r8)
 8007a18:	20000008 	.word	0x20000008

08007a1c <SVC_Handler>:
 8007a1c:	b580      	push	{r7, lr}
 8007a1e:	af00      	add	r7, sp, #0
 8007a20:	46c0      	nop			; (mov r8, r8)
 8007a22:	46bd      	mov	sp, r7
 8007a24:	bd80      	pop	{r7, pc}
	...

08007a30 <vPortStartFirstTask>:
 8007a30:	4a0b      	ldr	r2, [pc, #44]	; (8007a60 <pxCurrentTCBConst2>)
 8007a32:	6813      	ldr	r3, [r2, #0]
 8007a34:	6818      	ldr	r0, [r3, #0]
 8007a36:	3020      	adds	r0, #32
 8007a38:	f380 8809 	msr	PSP, r0
 8007a3c:	2002      	movs	r0, #2
 8007a3e:	f380 8814 	msr	CONTROL, r0
 8007a42:	f3bf 8f6f 	isb	sy
 8007a46:	bc3f      	pop	{r0, r1, r2, r3, r4, r5}
 8007a48:	46ae      	mov	lr, r5
 8007a4a:	bc08      	pop	{r3}
 8007a4c:	bc04      	pop	{r2}
 8007a4e:	b662      	cpsie	i
 8007a50:	4718      	bx	r3
 8007a52:	46c0      	nop			; (mov r8, r8)
 8007a54:	46c0      	nop			; (mov r8, r8)
 8007a56:	46c0      	nop			; (mov r8, r8)
 8007a58:	46c0      	nop			; (mov r8, r8)
 8007a5a:	46c0      	nop			; (mov r8, r8)
 8007a5c:	46c0      	nop			; (mov r8, r8)
 8007a5e:	46c0      	nop			; (mov r8, r8)

08007a60 <pxCurrentTCBConst2>:
 8007a60:	200004ec 	.word	0x200004ec
 8007a64:	46c0      	nop			; (mov r8, r8)
 8007a66:	46c0      	nop			; (mov r8, r8)

08007a68 <xPortStartScheduler>:
 8007a68:	b580      	push	{r7, lr}
 8007a6a:	af00      	add	r7, sp, #0
 8007a6c:	4b0e      	ldr	r3, [pc, #56]	; (8007aa8 <xPortStartScheduler+0x40>)
 8007a6e:	681a      	ldr	r2, [r3, #0]
 8007a70:	4b0d      	ldr	r3, [pc, #52]	; (8007aa8 <xPortStartScheduler+0x40>)
 8007a72:	21ff      	movs	r1, #255	; 0xff
 8007a74:	0409      	lsls	r1, r1, #16
 8007a76:	430a      	orrs	r2, r1
 8007a78:	601a      	str	r2, [r3, #0]
 8007a7a:	4b0b      	ldr	r3, [pc, #44]	; (8007aa8 <xPortStartScheduler+0x40>)
 8007a7c:	681a      	ldr	r2, [r3, #0]
 8007a7e:	4b0a      	ldr	r3, [pc, #40]	; (8007aa8 <xPortStartScheduler+0x40>)
 8007a80:	21ff      	movs	r1, #255	; 0xff
 8007a82:	0609      	lsls	r1, r1, #24
 8007a84:	430a      	orrs	r2, r1
 8007a86:	601a      	str	r2, [r3, #0]
 8007a88:	f000 f898 	bl	8007bbc <prvSetupTimerInterrupt>
 8007a8c:	4b07      	ldr	r3, [pc, #28]	; (8007aac <xPortStartScheduler+0x44>)
 8007a8e:	2200      	movs	r2, #0
 8007a90:	601a      	str	r2, [r3, #0]
 8007a92:	f7ff ffcd 	bl	8007a30 <vPortStartFirstTask>
 8007a96:	f7ff f9b5 	bl	8006e04 <vTaskSwitchContext>
 8007a9a:	f7ff ffa7 	bl	80079ec <prvTaskExitError>
 8007a9e:	2300      	movs	r3, #0
 8007aa0:	0018      	movs	r0, r3
 8007aa2:	46bd      	mov	sp, r7
 8007aa4:	bd80      	pop	{r7, pc}
 8007aa6:	46c0      	nop			; (mov r8, r8)
 8007aa8:	e000ed20 	.word	0xe000ed20
 8007aac:	20000008 	.word	0x20000008

08007ab0 <vPortYield>:
 8007ab0:	b580      	push	{r7, lr}
 8007ab2:	af00      	add	r7, sp, #0
 8007ab4:	4b05      	ldr	r3, [pc, #20]	; (8007acc <vPortYield+0x1c>)
 8007ab6:	2280      	movs	r2, #128	; 0x80
 8007ab8:	0552      	lsls	r2, r2, #21
 8007aba:	601a      	str	r2, [r3, #0]
 8007abc:	f3bf 8f4f 	dsb	sy
 8007ac0:	f3bf 8f6f 	isb	sy
 8007ac4:	46c0      	nop			; (mov r8, r8)
 8007ac6:	46bd      	mov	sp, r7
 8007ac8:	bd80      	pop	{r7, pc}
 8007aca:	46c0      	nop			; (mov r8, r8)
 8007acc:	e000ed04 	.word	0xe000ed04

08007ad0 <vPortEnterCritical>:
 8007ad0:	b580      	push	{r7, lr}
 8007ad2:	af00      	add	r7, sp, #0
 8007ad4:	b672      	cpsid	i
 8007ad6:	4b06      	ldr	r3, [pc, #24]	; (8007af0 <vPortEnterCritical+0x20>)
 8007ad8:	681b      	ldr	r3, [r3, #0]
 8007ada:	1c5a      	adds	r2, r3, #1
 8007adc:	4b04      	ldr	r3, [pc, #16]	; (8007af0 <vPortEnterCritical+0x20>)
 8007ade:	601a      	str	r2, [r3, #0]
 8007ae0:	f3bf 8f4f 	dsb	sy
 8007ae4:	f3bf 8f6f 	isb	sy
 8007ae8:	46c0      	nop			; (mov r8, r8)
 8007aea:	46bd      	mov	sp, r7
 8007aec:	bd80      	pop	{r7, pc}
 8007aee:	46c0      	nop			; (mov r8, r8)
 8007af0:	20000008 	.word	0x20000008

08007af4 <vPortExitCritical>:
 8007af4:	b580      	push	{r7, lr}
 8007af6:	af00      	add	r7, sp, #0
 8007af8:	4b09      	ldr	r3, [pc, #36]	; (8007b20 <vPortExitCritical+0x2c>)
 8007afa:	681b      	ldr	r3, [r3, #0]
 8007afc:	2b00      	cmp	r3, #0
 8007afe:	d101      	bne.n	8007b04 <vPortExitCritical+0x10>
 8007b00:	b672      	cpsid	i
 8007b02:	e7fe      	b.n	8007b02 <vPortExitCritical+0xe>
 8007b04:	4b06      	ldr	r3, [pc, #24]	; (8007b20 <vPortExitCritical+0x2c>)
 8007b06:	681b      	ldr	r3, [r3, #0]
 8007b08:	1e5a      	subs	r2, r3, #1
 8007b0a:	4b05      	ldr	r3, [pc, #20]	; (8007b20 <vPortExitCritical+0x2c>)
 8007b0c:	601a      	str	r2, [r3, #0]
 8007b0e:	4b04      	ldr	r3, [pc, #16]	; (8007b20 <vPortExitCritical+0x2c>)
 8007b10:	681b      	ldr	r3, [r3, #0]
 8007b12:	2b00      	cmp	r3, #0
 8007b14:	d100      	bne.n	8007b18 <vPortExitCritical+0x24>
 8007b16:	b662      	cpsie	i
 8007b18:	46c0      	nop			; (mov r8, r8)
 8007b1a:	46bd      	mov	sp, r7
 8007b1c:	bd80      	pop	{r7, pc}
 8007b1e:	46c0      	nop			; (mov r8, r8)
 8007b20:	20000008 	.word	0x20000008

08007b24 <ulSetInterruptMaskFromISR>:
 8007b24:	f3ef 8010 	mrs	r0, PRIMASK
 8007b28:	b672      	cpsid	i
 8007b2a:	4770      	bx	lr
 8007b2c:	46c0      	nop			; (mov r8, r8)
 8007b2e:	0018      	movs	r0, r3

08007b30 <vClearInterruptMaskFromISR>:
 8007b30:	f380 8810 	msr	PRIMASK, r0
 8007b34:	4770      	bx	lr
 8007b36:	46c0      	nop			; (mov r8, r8)
	...

08007b40 <PendSV_Handler>:
 8007b40:	f3ef 8009 	mrs	r0, PSP
 8007b44:	4b0e      	ldr	r3, [pc, #56]	; (8007b80 <pxCurrentTCBConst>)
 8007b46:	681a      	ldr	r2, [r3, #0]
 8007b48:	3820      	subs	r0, #32
 8007b4a:	6010      	str	r0, [r2, #0]
 8007b4c:	c0f0      	stmia	r0!, {r4, r5, r6, r7}
 8007b4e:	4644      	mov	r4, r8
 8007b50:	464d      	mov	r5, r9
 8007b52:	4656      	mov	r6, sl
 8007b54:	465f      	mov	r7, fp
 8007b56:	c0f0      	stmia	r0!, {r4, r5, r6, r7}
 8007b58:	b508      	push	{r3, lr}
 8007b5a:	b672      	cpsid	i
 8007b5c:	f7ff f952 	bl	8006e04 <vTaskSwitchContext>
 8007b60:	b662      	cpsie	i
 8007b62:	bc0c      	pop	{r2, r3}
 8007b64:	6811      	ldr	r1, [r2, #0]
 8007b66:	6808      	ldr	r0, [r1, #0]
 8007b68:	3010      	adds	r0, #16
 8007b6a:	c8f0      	ldmia	r0!, {r4, r5, r6, r7}
 8007b6c:	46a0      	mov	r8, r4
 8007b6e:	46a9      	mov	r9, r5
 8007b70:	46b2      	mov	sl, r6
 8007b72:	46bb      	mov	fp, r7
 8007b74:	f380 8809 	msr	PSP, r0
 8007b78:	3820      	subs	r0, #32
 8007b7a:	c8f0      	ldmia	r0!, {r4, r5, r6, r7}
 8007b7c:	4718      	bx	r3
 8007b7e:	46c0      	nop			; (mov r8, r8)

08007b80 <pxCurrentTCBConst>:
 8007b80:	200004ec 	.word	0x200004ec
 8007b84:	46c0      	nop			; (mov r8, r8)
 8007b86:	46c0      	nop			; (mov r8, r8)

08007b88 <SysTick_Handler>:
 8007b88:	b580      	push	{r7, lr}
 8007b8a:	b082      	sub	sp, #8
 8007b8c:	af00      	add	r7, sp, #0
 8007b8e:	f7ff ffc9 	bl	8007b24 <ulSetInterruptMaskFromISR>
 8007b92:	0003      	movs	r3, r0
 8007b94:	607b      	str	r3, [r7, #4]
 8007b96:	f7ff f881 	bl	8006c9c <xTaskIncrementTick>
 8007b9a:	1e03      	subs	r3, r0, #0
 8007b9c:	d003      	beq.n	8007ba6 <SysTick_Handler+0x1e>
 8007b9e:	4b06      	ldr	r3, [pc, #24]	; (8007bb8 <SysTick_Handler+0x30>)
 8007ba0:	2280      	movs	r2, #128	; 0x80
 8007ba2:	0552      	lsls	r2, r2, #21
 8007ba4:	601a      	str	r2, [r3, #0]
 8007ba6:	687b      	ldr	r3, [r7, #4]
 8007ba8:	0018      	movs	r0, r3
 8007baa:	f7ff ffc1 	bl	8007b30 <vClearInterruptMaskFromISR>
 8007bae:	46c0      	nop			; (mov r8, r8)
 8007bb0:	46bd      	mov	sp, r7
 8007bb2:	b002      	add	sp, #8
 8007bb4:	bd80      	pop	{r7, pc}
 8007bb6:	46c0      	nop			; (mov r8, r8)
 8007bb8:	e000ed04 	.word	0xe000ed04

08007bbc <prvSetupTimerInterrupt>:
 8007bbc:	b580      	push	{r7, lr}
 8007bbe:	af00      	add	r7, sp, #0
 8007bc0:	4b0b      	ldr	r3, [pc, #44]	; (8007bf0 <prvSetupTimerInterrupt+0x34>)
 8007bc2:	2200      	movs	r2, #0
 8007bc4:	601a      	str	r2, [r3, #0]
 8007bc6:	4b0b      	ldr	r3, [pc, #44]	; (8007bf4 <prvSetupTimerInterrupt+0x38>)
 8007bc8:	2200      	movs	r2, #0
 8007bca:	601a      	str	r2, [r3, #0]
 8007bcc:	4b0a      	ldr	r3, [pc, #40]	; (8007bf8 <prvSetupTimerInterrupt+0x3c>)
 8007bce:	681b      	ldr	r3, [r3, #0]
 8007bd0:	22fa      	movs	r2, #250	; 0xfa
 8007bd2:	0091      	lsls	r1, r2, #2
 8007bd4:	0018      	movs	r0, r3
 8007bd6:	f7f8 faa9 	bl	800012c <__udivsi3>
 8007bda:	0003      	movs	r3, r0
 8007bdc:	001a      	movs	r2, r3
 8007bde:	4b07      	ldr	r3, [pc, #28]	; (8007bfc <prvSetupTimerInterrupt+0x40>)
 8007be0:	3a01      	subs	r2, #1
 8007be2:	601a      	str	r2, [r3, #0]
 8007be4:	4b02      	ldr	r3, [pc, #8]	; (8007bf0 <prvSetupTimerInterrupt+0x34>)
 8007be6:	2207      	movs	r2, #7
 8007be8:	601a      	str	r2, [r3, #0]
 8007bea:	46c0      	nop			; (mov r8, r8)
 8007bec:	46bd      	mov	sp, r7
 8007bee:	bd80      	pop	{r7, pc}
 8007bf0:	e000e010 	.word	0xe000e010
 8007bf4:	e000e018 	.word	0xe000e018
 8007bf8:	20000000 	.word	0x20000000
 8007bfc:	e000e014 	.word	0xe000e014

08007c00 <pvPortMalloc>:
 8007c00:	b580      	push	{r7, lr}
 8007c02:	b086      	sub	sp, #24
 8007c04:	af00      	add	r7, sp, #0
 8007c06:	6078      	str	r0, [r7, #4]
 8007c08:	2300      	movs	r3, #0
 8007c0a:	60fb      	str	r3, [r7, #12]
 8007c0c:	f7fe ffa0 	bl	8006b50 <vTaskSuspendAll>
 8007c10:	4b49      	ldr	r3, [pc, #292]	; (8007d38 <pvPortMalloc+0x138>)
 8007c12:	681b      	ldr	r3, [r3, #0]
 8007c14:	2b00      	cmp	r3, #0
 8007c16:	d101      	bne.n	8007c1c <pvPortMalloc+0x1c>
 8007c18:	f000 f8e0 	bl	8007ddc <prvHeapInit>
 8007c1c:	4b47      	ldr	r3, [pc, #284]	; (8007d3c <pvPortMalloc+0x13c>)
 8007c1e:	681b      	ldr	r3, [r3, #0]
 8007c20:	687a      	ldr	r2, [r7, #4]
 8007c22:	4013      	ands	r3, r2
 8007c24:	d000      	beq.n	8007c28 <pvPortMalloc+0x28>
 8007c26:	e079      	b.n	8007d1c <pvPortMalloc+0x11c>
 8007c28:	687b      	ldr	r3, [r7, #4]
 8007c2a:	2b00      	cmp	r3, #0
 8007c2c:	d012      	beq.n	8007c54 <pvPortMalloc+0x54>
 8007c2e:	2208      	movs	r2, #8
 8007c30:	687b      	ldr	r3, [r7, #4]
 8007c32:	189b      	adds	r3, r3, r2
 8007c34:	607b      	str	r3, [r7, #4]
 8007c36:	687b      	ldr	r3, [r7, #4]
 8007c38:	2207      	movs	r2, #7
 8007c3a:	4013      	ands	r3, r2
 8007c3c:	d00a      	beq.n	8007c54 <pvPortMalloc+0x54>
 8007c3e:	687b      	ldr	r3, [r7, #4]
 8007c40:	2207      	movs	r2, #7
 8007c42:	4393      	bics	r3, r2
 8007c44:	3308      	adds	r3, #8
 8007c46:	607b      	str	r3, [r7, #4]
 8007c48:	687b      	ldr	r3, [r7, #4]
 8007c4a:	2207      	movs	r2, #7
 8007c4c:	4013      	ands	r3, r2
 8007c4e:	d001      	beq.n	8007c54 <pvPortMalloc+0x54>
 8007c50:	b672      	cpsid	i
 8007c52:	e7fe      	b.n	8007c52 <pvPortMalloc+0x52>
 8007c54:	687b      	ldr	r3, [r7, #4]
 8007c56:	2b00      	cmp	r3, #0
 8007c58:	d060      	beq.n	8007d1c <pvPortMalloc+0x11c>
 8007c5a:	4b39      	ldr	r3, [pc, #228]	; (8007d40 <pvPortMalloc+0x140>)
 8007c5c:	681b      	ldr	r3, [r3, #0]
 8007c5e:	687a      	ldr	r2, [r7, #4]
 8007c60:	429a      	cmp	r2, r3
 8007c62:	d85b      	bhi.n	8007d1c <pvPortMalloc+0x11c>
 8007c64:	4b37      	ldr	r3, [pc, #220]	; (8007d44 <pvPortMalloc+0x144>)
 8007c66:	613b      	str	r3, [r7, #16]
 8007c68:	4b36      	ldr	r3, [pc, #216]	; (8007d44 <pvPortMalloc+0x144>)
 8007c6a:	681b      	ldr	r3, [r3, #0]
 8007c6c:	617b      	str	r3, [r7, #20]
 8007c6e:	e004      	b.n	8007c7a <pvPortMalloc+0x7a>
 8007c70:	697b      	ldr	r3, [r7, #20]
 8007c72:	613b      	str	r3, [r7, #16]
 8007c74:	697b      	ldr	r3, [r7, #20]
 8007c76:	681b      	ldr	r3, [r3, #0]
 8007c78:	617b      	str	r3, [r7, #20]
 8007c7a:	697b      	ldr	r3, [r7, #20]
 8007c7c:	685b      	ldr	r3, [r3, #4]
 8007c7e:	687a      	ldr	r2, [r7, #4]
 8007c80:	429a      	cmp	r2, r3
 8007c82:	d903      	bls.n	8007c8c <pvPortMalloc+0x8c>
 8007c84:	697b      	ldr	r3, [r7, #20]
 8007c86:	681b      	ldr	r3, [r3, #0]
 8007c88:	2b00      	cmp	r3, #0
 8007c8a:	d1f1      	bne.n	8007c70 <pvPortMalloc+0x70>
 8007c8c:	4b2a      	ldr	r3, [pc, #168]	; (8007d38 <pvPortMalloc+0x138>)
 8007c8e:	681b      	ldr	r3, [r3, #0]
 8007c90:	697a      	ldr	r2, [r7, #20]
 8007c92:	429a      	cmp	r2, r3
 8007c94:	d042      	beq.n	8007d1c <pvPortMalloc+0x11c>
 8007c96:	693b      	ldr	r3, [r7, #16]
 8007c98:	681b      	ldr	r3, [r3, #0]
 8007c9a:	2208      	movs	r2, #8
 8007c9c:	189b      	adds	r3, r3, r2
 8007c9e:	60fb      	str	r3, [r7, #12]
 8007ca0:	697b      	ldr	r3, [r7, #20]
 8007ca2:	681a      	ldr	r2, [r3, #0]
 8007ca4:	693b      	ldr	r3, [r7, #16]
 8007ca6:	601a      	str	r2, [r3, #0]
 8007ca8:	697b      	ldr	r3, [r7, #20]
 8007caa:	685a      	ldr	r2, [r3, #4]
 8007cac:	687b      	ldr	r3, [r7, #4]
 8007cae:	1ad2      	subs	r2, r2, r3
 8007cb0:	2308      	movs	r3, #8
 8007cb2:	005b      	lsls	r3, r3, #1
 8007cb4:	429a      	cmp	r2, r3
 8007cb6:	d916      	bls.n	8007ce6 <pvPortMalloc+0xe6>
 8007cb8:	697a      	ldr	r2, [r7, #20]
 8007cba:	687b      	ldr	r3, [r7, #4]
 8007cbc:	18d3      	adds	r3, r2, r3
 8007cbe:	60bb      	str	r3, [r7, #8]
 8007cc0:	68bb      	ldr	r3, [r7, #8]
 8007cc2:	2207      	movs	r2, #7
 8007cc4:	4013      	ands	r3, r2
 8007cc6:	d001      	beq.n	8007ccc <pvPortMalloc+0xcc>
 8007cc8:	b672      	cpsid	i
 8007cca:	e7fe      	b.n	8007cca <pvPortMalloc+0xca>
 8007ccc:	697b      	ldr	r3, [r7, #20]
 8007cce:	685a      	ldr	r2, [r3, #4]
 8007cd0:	687b      	ldr	r3, [r7, #4]
 8007cd2:	1ad2      	subs	r2, r2, r3
 8007cd4:	68bb      	ldr	r3, [r7, #8]
 8007cd6:	605a      	str	r2, [r3, #4]
 8007cd8:	697b      	ldr	r3, [r7, #20]
 8007cda:	687a      	ldr	r2, [r7, #4]
 8007cdc:	605a      	str	r2, [r3, #4]
 8007cde:	68bb      	ldr	r3, [r7, #8]
 8007ce0:	0018      	movs	r0, r3
 8007ce2:	f000 f8db 	bl	8007e9c <prvInsertBlockIntoFreeList>
 8007ce6:	4b16      	ldr	r3, [pc, #88]	; (8007d40 <pvPortMalloc+0x140>)
 8007ce8:	681a      	ldr	r2, [r3, #0]
 8007cea:	697b      	ldr	r3, [r7, #20]
 8007cec:	685b      	ldr	r3, [r3, #4]
 8007cee:	1ad2      	subs	r2, r2, r3
 8007cf0:	4b13      	ldr	r3, [pc, #76]	; (8007d40 <pvPortMalloc+0x140>)
 8007cf2:	601a      	str	r2, [r3, #0]
 8007cf4:	4b12      	ldr	r3, [pc, #72]	; (8007d40 <pvPortMalloc+0x140>)
 8007cf6:	681a      	ldr	r2, [r3, #0]
 8007cf8:	4b13      	ldr	r3, [pc, #76]	; (8007d48 <pvPortMalloc+0x148>)
 8007cfa:	681b      	ldr	r3, [r3, #0]
 8007cfc:	429a      	cmp	r2, r3
 8007cfe:	d203      	bcs.n	8007d08 <pvPortMalloc+0x108>
 8007d00:	4b0f      	ldr	r3, [pc, #60]	; (8007d40 <pvPortMalloc+0x140>)
 8007d02:	681a      	ldr	r2, [r3, #0]
 8007d04:	4b10      	ldr	r3, [pc, #64]	; (8007d48 <pvPortMalloc+0x148>)
 8007d06:	601a      	str	r2, [r3, #0]
 8007d08:	697b      	ldr	r3, [r7, #20]
 8007d0a:	685a      	ldr	r2, [r3, #4]
 8007d0c:	4b0b      	ldr	r3, [pc, #44]	; (8007d3c <pvPortMalloc+0x13c>)
 8007d0e:	681b      	ldr	r3, [r3, #0]
 8007d10:	431a      	orrs	r2, r3
 8007d12:	697b      	ldr	r3, [r7, #20]
 8007d14:	605a      	str	r2, [r3, #4]
 8007d16:	697b      	ldr	r3, [r7, #20]
 8007d18:	2200      	movs	r2, #0
 8007d1a:	601a      	str	r2, [r3, #0]
 8007d1c:	f7fe ff24 	bl	8006b68 <xTaskResumeAll>
 8007d20:	68fb      	ldr	r3, [r7, #12]
 8007d22:	2207      	movs	r2, #7
 8007d24:	4013      	ands	r3, r2
 8007d26:	d001      	beq.n	8007d2c <pvPortMalloc+0x12c>
 8007d28:	b672      	cpsid	i
 8007d2a:	e7fe      	b.n	8007d2a <pvPortMalloc+0x12a>
 8007d2c:	68fb      	ldr	r3, [r7, #12]
 8007d2e:	0018      	movs	r0, r3
 8007d30:	46bd      	mov	sp, r7
 8007d32:	b006      	add	sp, #24
 8007d34:	bd80      	pop	{r7, pc}
 8007d36:	46c0      	nop			; (mov r8, r8)
 8007d38:	20001350 	.word	0x20001350
 8007d3c:	2000135c 	.word	0x2000135c
 8007d40:	20001354 	.word	0x20001354
 8007d44:	20001348 	.word	0x20001348
 8007d48:	20001358 	.word	0x20001358

08007d4c <vPortFree>:
 8007d4c:	b580      	push	{r7, lr}
 8007d4e:	b084      	sub	sp, #16
 8007d50:	af00      	add	r7, sp, #0
 8007d52:	6078      	str	r0, [r7, #4]
 8007d54:	687b      	ldr	r3, [r7, #4]
 8007d56:	60fb      	str	r3, [r7, #12]
 8007d58:	687b      	ldr	r3, [r7, #4]
 8007d5a:	2b00      	cmp	r3, #0
 8007d5c:	d035      	beq.n	8007dca <vPortFree+0x7e>
 8007d5e:	2308      	movs	r3, #8
 8007d60:	425b      	negs	r3, r3
 8007d62:	68fa      	ldr	r2, [r7, #12]
 8007d64:	18d3      	adds	r3, r2, r3
 8007d66:	60fb      	str	r3, [r7, #12]
 8007d68:	68fb      	ldr	r3, [r7, #12]
 8007d6a:	60bb      	str	r3, [r7, #8]
 8007d6c:	68bb      	ldr	r3, [r7, #8]
 8007d6e:	685a      	ldr	r2, [r3, #4]
 8007d70:	4b18      	ldr	r3, [pc, #96]	; (8007dd4 <vPortFree+0x88>)
 8007d72:	681b      	ldr	r3, [r3, #0]
 8007d74:	4013      	ands	r3, r2
 8007d76:	d101      	bne.n	8007d7c <vPortFree+0x30>
 8007d78:	b672      	cpsid	i
 8007d7a:	e7fe      	b.n	8007d7a <vPortFree+0x2e>
 8007d7c:	68bb      	ldr	r3, [r7, #8]
 8007d7e:	681b      	ldr	r3, [r3, #0]
 8007d80:	2b00      	cmp	r3, #0
 8007d82:	d001      	beq.n	8007d88 <vPortFree+0x3c>
 8007d84:	b672      	cpsid	i
 8007d86:	e7fe      	b.n	8007d86 <vPortFree+0x3a>
 8007d88:	68bb      	ldr	r3, [r7, #8]
 8007d8a:	685a      	ldr	r2, [r3, #4]
 8007d8c:	4b11      	ldr	r3, [pc, #68]	; (8007dd4 <vPortFree+0x88>)
 8007d8e:	681b      	ldr	r3, [r3, #0]
 8007d90:	4013      	ands	r3, r2
 8007d92:	d01a      	beq.n	8007dca <vPortFree+0x7e>
 8007d94:	68bb      	ldr	r3, [r7, #8]
 8007d96:	681b      	ldr	r3, [r3, #0]
 8007d98:	2b00      	cmp	r3, #0
 8007d9a:	d116      	bne.n	8007dca <vPortFree+0x7e>
 8007d9c:	68bb      	ldr	r3, [r7, #8]
 8007d9e:	685a      	ldr	r2, [r3, #4]
 8007da0:	4b0c      	ldr	r3, [pc, #48]	; (8007dd4 <vPortFree+0x88>)
 8007da2:	681b      	ldr	r3, [r3, #0]
 8007da4:	43db      	mvns	r3, r3
 8007da6:	401a      	ands	r2, r3
 8007da8:	68bb      	ldr	r3, [r7, #8]
 8007daa:	605a      	str	r2, [r3, #4]
 8007dac:	f7fe fed0 	bl	8006b50 <vTaskSuspendAll>
 8007db0:	68bb      	ldr	r3, [r7, #8]
 8007db2:	685a      	ldr	r2, [r3, #4]
 8007db4:	4b08      	ldr	r3, [pc, #32]	; (8007dd8 <vPortFree+0x8c>)
 8007db6:	681b      	ldr	r3, [r3, #0]
 8007db8:	18d2      	adds	r2, r2, r3
 8007dba:	4b07      	ldr	r3, [pc, #28]	; (8007dd8 <vPortFree+0x8c>)
 8007dbc:	601a      	str	r2, [r3, #0]
 8007dbe:	68bb      	ldr	r3, [r7, #8]
 8007dc0:	0018      	movs	r0, r3
 8007dc2:	f000 f86b 	bl	8007e9c <prvInsertBlockIntoFreeList>
 8007dc6:	f7fe fecf 	bl	8006b68 <xTaskResumeAll>
 8007dca:	46c0      	nop			; (mov r8, r8)
 8007dcc:	46bd      	mov	sp, r7
 8007dce:	b004      	add	sp, #16
 8007dd0:	bd80      	pop	{r7, pc}
 8007dd2:	46c0      	nop			; (mov r8, r8)
 8007dd4:	2000135c 	.word	0x2000135c
 8007dd8:	20001354 	.word	0x20001354

08007ddc <prvHeapInit>:
 8007ddc:	b580      	push	{r7, lr}
 8007dde:	b084      	sub	sp, #16
 8007de0:	af00      	add	r7, sp, #0
 8007de2:	4b27      	ldr	r3, [pc, #156]	; (8007e80 <prvHeapInit+0xa4>)
 8007de4:	60bb      	str	r3, [r7, #8]
 8007de6:	4b27      	ldr	r3, [pc, #156]	; (8007e84 <prvHeapInit+0xa8>)
 8007de8:	60fb      	str	r3, [r7, #12]
 8007dea:	68fb      	ldr	r3, [r7, #12]
 8007dec:	2207      	movs	r2, #7
 8007dee:	4013      	ands	r3, r2
 8007df0:	d00c      	beq.n	8007e0c <prvHeapInit+0x30>
 8007df2:	68fb      	ldr	r3, [r7, #12]
 8007df4:	3307      	adds	r3, #7
 8007df6:	60fb      	str	r3, [r7, #12]
 8007df8:	68fb      	ldr	r3, [r7, #12]
 8007dfa:	2207      	movs	r2, #7
 8007dfc:	4393      	bics	r3, r2
 8007dfe:	60fb      	str	r3, [r7, #12]
 8007e00:	68ba      	ldr	r2, [r7, #8]
 8007e02:	68fb      	ldr	r3, [r7, #12]
 8007e04:	1ad2      	subs	r2, r2, r3
 8007e06:	4b1f      	ldr	r3, [pc, #124]	; (8007e84 <prvHeapInit+0xa8>)
 8007e08:	18d3      	adds	r3, r2, r3
 8007e0a:	60bb      	str	r3, [r7, #8]
 8007e0c:	68fb      	ldr	r3, [r7, #12]
 8007e0e:	607b      	str	r3, [r7, #4]
 8007e10:	4b1d      	ldr	r3, [pc, #116]	; (8007e88 <prvHeapInit+0xac>)
 8007e12:	687a      	ldr	r2, [r7, #4]
 8007e14:	601a      	str	r2, [r3, #0]
 8007e16:	4b1c      	ldr	r3, [pc, #112]	; (8007e88 <prvHeapInit+0xac>)
 8007e18:	2200      	movs	r2, #0
 8007e1a:	605a      	str	r2, [r3, #4]
 8007e1c:	687b      	ldr	r3, [r7, #4]
 8007e1e:	68ba      	ldr	r2, [r7, #8]
 8007e20:	18d3      	adds	r3, r2, r3
 8007e22:	60fb      	str	r3, [r7, #12]
 8007e24:	2208      	movs	r2, #8
 8007e26:	68fb      	ldr	r3, [r7, #12]
 8007e28:	1a9b      	subs	r3, r3, r2
 8007e2a:	60fb      	str	r3, [r7, #12]
 8007e2c:	68fb      	ldr	r3, [r7, #12]
 8007e2e:	2207      	movs	r2, #7
 8007e30:	4393      	bics	r3, r2
 8007e32:	60fb      	str	r3, [r7, #12]
 8007e34:	68fa      	ldr	r2, [r7, #12]
 8007e36:	4b15      	ldr	r3, [pc, #84]	; (8007e8c <prvHeapInit+0xb0>)
 8007e38:	601a      	str	r2, [r3, #0]
 8007e3a:	4b14      	ldr	r3, [pc, #80]	; (8007e8c <prvHeapInit+0xb0>)
 8007e3c:	681b      	ldr	r3, [r3, #0]
 8007e3e:	2200      	movs	r2, #0
 8007e40:	605a      	str	r2, [r3, #4]
 8007e42:	4b12      	ldr	r3, [pc, #72]	; (8007e8c <prvHeapInit+0xb0>)
 8007e44:	681b      	ldr	r3, [r3, #0]
 8007e46:	2200      	movs	r2, #0
 8007e48:	601a      	str	r2, [r3, #0]
 8007e4a:	687b      	ldr	r3, [r7, #4]
 8007e4c:	603b      	str	r3, [r7, #0]
 8007e4e:	683b      	ldr	r3, [r7, #0]
 8007e50:	68fa      	ldr	r2, [r7, #12]
 8007e52:	1ad2      	subs	r2, r2, r3
 8007e54:	683b      	ldr	r3, [r7, #0]
 8007e56:	605a      	str	r2, [r3, #4]
 8007e58:	4b0c      	ldr	r3, [pc, #48]	; (8007e8c <prvHeapInit+0xb0>)
 8007e5a:	681a      	ldr	r2, [r3, #0]
 8007e5c:	683b      	ldr	r3, [r7, #0]
 8007e5e:	601a      	str	r2, [r3, #0]
 8007e60:	683b      	ldr	r3, [r7, #0]
 8007e62:	685a      	ldr	r2, [r3, #4]
 8007e64:	4b0a      	ldr	r3, [pc, #40]	; (8007e90 <prvHeapInit+0xb4>)
 8007e66:	601a      	str	r2, [r3, #0]
 8007e68:	683b      	ldr	r3, [r7, #0]
 8007e6a:	685a      	ldr	r2, [r3, #4]
 8007e6c:	4b09      	ldr	r3, [pc, #36]	; (8007e94 <prvHeapInit+0xb8>)
 8007e6e:	601a      	str	r2, [r3, #0]
 8007e70:	4b09      	ldr	r3, [pc, #36]	; (8007e98 <prvHeapInit+0xbc>)
 8007e72:	2280      	movs	r2, #128	; 0x80
 8007e74:	0612      	lsls	r2, r2, #24
 8007e76:	601a      	str	r2, [r3, #0]
 8007e78:	46c0      	nop			; (mov r8, r8)
 8007e7a:	46bd      	mov	sp, r7
 8007e7c:	b004      	add	sp, #16
 8007e7e:	bd80      	pop	{r7, pc}
 8007e80:	0000082e 	.word	0x0000082e
 8007e84:	20000b18 	.word	0x20000b18
 8007e88:	20001348 	.word	0x20001348
 8007e8c:	20001350 	.word	0x20001350
 8007e90:	20001358 	.word	0x20001358
 8007e94:	20001354 	.word	0x20001354
 8007e98:	2000135c 	.word	0x2000135c

08007e9c <prvInsertBlockIntoFreeList>:
 8007e9c:	b580      	push	{r7, lr}
 8007e9e:	b084      	sub	sp, #16
 8007ea0:	af00      	add	r7, sp, #0
 8007ea2:	6078      	str	r0, [r7, #4]
 8007ea4:	4b27      	ldr	r3, [pc, #156]	; (8007f44 <prvInsertBlockIntoFreeList+0xa8>)
 8007ea6:	60fb      	str	r3, [r7, #12]
 8007ea8:	e002      	b.n	8007eb0 <prvInsertBlockIntoFreeList+0x14>
 8007eaa:	68fb      	ldr	r3, [r7, #12]
 8007eac:	681b      	ldr	r3, [r3, #0]
 8007eae:	60fb      	str	r3, [r7, #12]
 8007eb0:	68fb      	ldr	r3, [r7, #12]
 8007eb2:	681b      	ldr	r3, [r3, #0]
 8007eb4:	687a      	ldr	r2, [r7, #4]
 8007eb6:	429a      	cmp	r2, r3
 8007eb8:	d8f7      	bhi.n	8007eaa <prvInsertBlockIntoFreeList+0xe>
 8007eba:	68fb      	ldr	r3, [r7, #12]
 8007ebc:	60bb      	str	r3, [r7, #8]
 8007ebe:	68fb      	ldr	r3, [r7, #12]
 8007ec0:	685b      	ldr	r3, [r3, #4]
 8007ec2:	68ba      	ldr	r2, [r7, #8]
 8007ec4:	18d3      	adds	r3, r2, r3
 8007ec6:	687a      	ldr	r2, [r7, #4]
 8007ec8:	429a      	cmp	r2, r3
 8007eca:	d108      	bne.n	8007ede <prvInsertBlockIntoFreeList+0x42>
 8007ecc:	68fb      	ldr	r3, [r7, #12]
 8007ece:	685a      	ldr	r2, [r3, #4]
 8007ed0:	687b      	ldr	r3, [r7, #4]
 8007ed2:	685b      	ldr	r3, [r3, #4]
 8007ed4:	18d2      	adds	r2, r2, r3
 8007ed6:	68fb      	ldr	r3, [r7, #12]
 8007ed8:	605a      	str	r2, [r3, #4]
 8007eda:	68fb      	ldr	r3, [r7, #12]
 8007edc:	607b      	str	r3, [r7, #4]
 8007ede:	687b      	ldr	r3, [r7, #4]
 8007ee0:	60bb      	str	r3, [r7, #8]
 8007ee2:	687b      	ldr	r3, [r7, #4]
 8007ee4:	685b      	ldr	r3, [r3, #4]
 8007ee6:	68ba      	ldr	r2, [r7, #8]
 8007ee8:	18d2      	adds	r2, r2, r3
 8007eea:	68fb      	ldr	r3, [r7, #12]
 8007eec:	681b      	ldr	r3, [r3, #0]
 8007eee:	429a      	cmp	r2, r3
 8007ef0:	d118      	bne.n	8007f24 <prvInsertBlockIntoFreeList+0x88>
 8007ef2:	68fb      	ldr	r3, [r7, #12]
 8007ef4:	681a      	ldr	r2, [r3, #0]
 8007ef6:	4b14      	ldr	r3, [pc, #80]	; (8007f48 <prvInsertBlockIntoFreeList+0xac>)
 8007ef8:	681b      	ldr	r3, [r3, #0]
 8007efa:	429a      	cmp	r2, r3
 8007efc:	d00d      	beq.n	8007f1a <prvInsertBlockIntoFreeList+0x7e>
 8007efe:	687b      	ldr	r3, [r7, #4]
 8007f00:	685a      	ldr	r2, [r3, #4]
 8007f02:	68fb      	ldr	r3, [r7, #12]
 8007f04:	681b      	ldr	r3, [r3, #0]
 8007f06:	685b      	ldr	r3, [r3, #4]
 8007f08:	18d2      	adds	r2, r2, r3
 8007f0a:	687b      	ldr	r3, [r7, #4]
 8007f0c:	605a      	str	r2, [r3, #4]
 8007f0e:	68fb      	ldr	r3, [r7, #12]
 8007f10:	681b      	ldr	r3, [r3, #0]
 8007f12:	681a      	ldr	r2, [r3, #0]
 8007f14:	687b      	ldr	r3, [r7, #4]
 8007f16:	601a      	str	r2, [r3, #0]
 8007f18:	e008      	b.n	8007f2c <prvInsertBlockIntoFreeList+0x90>
 8007f1a:	4b0b      	ldr	r3, [pc, #44]	; (8007f48 <prvInsertBlockIntoFreeList+0xac>)
 8007f1c:	681a      	ldr	r2, [r3, #0]
 8007f1e:	687b      	ldr	r3, [r7, #4]
 8007f20:	601a      	str	r2, [r3, #0]
 8007f22:	e003      	b.n	8007f2c <prvInsertBlockIntoFreeList+0x90>
 8007f24:	68fb      	ldr	r3, [r7, #12]
 8007f26:	681a      	ldr	r2, [r3, #0]
 8007f28:	687b      	ldr	r3, [r7, #4]
 8007f2a:	601a      	str	r2, [r3, #0]
 8007f2c:	68fa      	ldr	r2, [r7, #12]
 8007f2e:	687b      	ldr	r3, [r7, #4]
 8007f30:	429a      	cmp	r2, r3
 8007f32:	d002      	beq.n	8007f3a <prvInsertBlockIntoFreeList+0x9e>
 8007f34:	68fb      	ldr	r3, [r7, #12]
 8007f36:	687a      	ldr	r2, [r7, #4]
 8007f38:	601a      	str	r2, [r3, #0]
 8007f3a:	46c0      	nop			; (mov r8, r8)
 8007f3c:	46bd      	mov	sp, r7
 8007f3e:	b004      	add	sp, #16
 8007f40:	bd80      	pop	{r7, pc}
 8007f42:	46c0      	nop			; (mov r8, r8)
 8007f44:	20001348 	.word	0x20001348
 8007f48:	20001350 	.word	0x20001350

08007f4c <calloc>:
 8007f4c:	b510      	push	{r4, lr}
 8007f4e:	4b03      	ldr	r3, [pc, #12]	; (8007f5c <calloc+0x10>)
 8007f50:	000a      	movs	r2, r1
 8007f52:	0001      	movs	r1, r0
 8007f54:	6818      	ldr	r0, [r3, #0]
 8007f56:	f000 f852 	bl	8007ffe <_calloc_r>
 8007f5a:	bd10      	pop	{r4, pc}
 8007f5c:	2000000c 	.word	0x2000000c

08007f60 <__errno>:
 8007f60:	4b01      	ldr	r3, [pc, #4]	; (8007f68 <__errno+0x8>)
 8007f62:	6818      	ldr	r0, [r3, #0]
 8007f64:	4770      	bx	lr
 8007f66:	46c0      	nop			; (mov r8, r8)
 8007f68:	2000000c 	.word	0x2000000c

08007f6c <__libc_init_array>:
 8007f6c:	b570      	push	{r4, r5, r6, lr}
 8007f6e:	2600      	movs	r6, #0
 8007f70:	4d0c      	ldr	r5, [pc, #48]	; (8007fa4 <__libc_init_array+0x38>)
 8007f72:	4c0d      	ldr	r4, [pc, #52]	; (8007fa8 <__libc_init_array+0x3c>)
 8007f74:	1b64      	subs	r4, r4, r5
 8007f76:	10a4      	asrs	r4, r4, #2
 8007f78:	42a6      	cmp	r6, r4
 8007f7a:	d109      	bne.n	8007f90 <__libc_init_array+0x24>
 8007f7c:	2600      	movs	r6, #0
 8007f7e:	f000 fc87 	bl	8008890 <_init>
 8007f82:	4d0a      	ldr	r5, [pc, #40]	; (8007fac <__libc_init_array+0x40>)
 8007f84:	4c0a      	ldr	r4, [pc, #40]	; (8007fb0 <__libc_init_array+0x44>)
 8007f86:	1b64      	subs	r4, r4, r5
 8007f88:	10a4      	asrs	r4, r4, #2
 8007f8a:	42a6      	cmp	r6, r4
 8007f8c:	d105      	bne.n	8007f9a <__libc_init_array+0x2e>
 8007f8e:	bd70      	pop	{r4, r5, r6, pc}
 8007f90:	00b3      	lsls	r3, r6, #2
 8007f92:	58eb      	ldr	r3, [r5, r3]
 8007f94:	4798      	blx	r3
 8007f96:	3601      	adds	r6, #1
 8007f98:	e7ee      	b.n	8007f78 <__libc_init_array+0xc>
 8007f9a:	00b3      	lsls	r3, r6, #2
 8007f9c:	58eb      	ldr	r3, [r5, r3]
 8007f9e:	4798      	blx	r3
 8007fa0:	3601      	adds	r6, #1
 8007fa2:	e7f2      	b.n	8007f8a <__libc_init_array+0x1e>
 8007fa4:	08008b90 	.word	0x08008b90
 8007fa8:	08008b90 	.word	0x08008b90
 8007fac:	08008b90 	.word	0x08008b90
 8007fb0:	08008b94 	.word	0x08008b94

08007fb4 <malloc>:
 8007fb4:	b510      	push	{r4, lr}
 8007fb6:	4b03      	ldr	r3, [pc, #12]	; (8007fc4 <malloc+0x10>)
 8007fb8:	0001      	movs	r1, r0
 8007fba:	6818      	ldr	r0, [r3, #0]
 8007fbc:	f000 f878 	bl	80080b0 <_malloc_r>
 8007fc0:	bd10      	pop	{r4, pc}
 8007fc2:	46c0      	nop			; (mov r8, r8)
 8007fc4:	2000000c 	.word	0x2000000c

08007fc8 <free>:
 8007fc8:	b510      	push	{r4, lr}
 8007fca:	4b03      	ldr	r3, [pc, #12]	; (8007fd8 <free+0x10>)
 8007fcc:	0001      	movs	r1, r0
 8007fce:	6818      	ldr	r0, [r3, #0]
 8007fd0:	f000 f824 	bl	800801c <_free_r>
 8007fd4:	bd10      	pop	{r4, pc}
 8007fd6:	46c0      	nop			; (mov r8, r8)
 8007fd8:	2000000c 	.word	0x2000000c

08007fdc <memcpy>:
 8007fdc:	2300      	movs	r3, #0
 8007fde:	b510      	push	{r4, lr}
 8007fe0:	429a      	cmp	r2, r3
 8007fe2:	d100      	bne.n	8007fe6 <memcpy+0xa>
 8007fe4:	bd10      	pop	{r4, pc}
 8007fe6:	5ccc      	ldrb	r4, [r1, r3]
 8007fe8:	54c4      	strb	r4, [r0, r3]
 8007fea:	3301      	adds	r3, #1
 8007fec:	e7f8      	b.n	8007fe0 <memcpy+0x4>

08007fee <memset>:
 8007fee:	0003      	movs	r3, r0
 8007ff0:	1882      	adds	r2, r0, r2
 8007ff2:	4293      	cmp	r3, r2
 8007ff4:	d100      	bne.n	8007ff8 <memset+0xa>
 8007ff6:	4770      	bx	lr
 8007ff8:	7019      	strb	r1, [r3, #0]
 8007ffa:	3301      	adds	r3, #1
 8007ffc:	e7f9      	b.n	8007ff2 <memset+0x4>

08007ffe <_calloc_r>:
 8007ffe:	434a      	muls	r2, r1
 8008000:	b570      	push	{r4, r5, r6, lr}
 8008002:	0011      	movs	r1, r2
 8008004:	0015      	movs	r5, r2
 8008006:	f000 f853 	bl	80080b0 <_malloc_r>
 800800a:	1e04      	subs	r4, r0, #0
 800800c:	d003      	beq.n	8008016 <_calloc_r+0x18>
 800800e:	002a      	movs	r2, r5
 8008010:	2100      	movs	r1, #0
 8008012:	f7ff ffec 	bl	8007fee <memset>
 8008016:	0020      	movs	r0, r4
 8008018:	bd70      	pop	{r4, r5, r6, pc}
	...

0800801c <_free_r>:
 800801c:	b570      	push	{r4, r5, r6, lr}
 800801e:	0005      	movs	r5, r0
 8008020:	2900      	cmp	r1, #0
 8008022:	d010      	beq.n	8008046 <_free_r+0x2a>
 8008024:	1f0c      	subs	r4, r1, #4
 8008026:	6823      	ldr	r3, [r4, #0]
 8008028:	2b00      	cmp	r3, #0
 800802a:	da00      	bge.n	800802e <_free_r+0x12>
 800802c:	18e4      	adds	r4, r4, r3
 800802e:	0028      	movs	r0, r5
 8008030:	f000 f8ec 	bl	800820c <__malloc_lock>
 8008034:	4a1d      	ldr	r2, [pc, #116]	; (80080ac <_free_r+0x90>)
 8008036:	6813      	ldr	r3, [r2, #0]
 8008038:	2b00      	cmp	r3, #0
 800803a:	d105      	bne.n	8008048 <_free_r+0x2c>
 800803c:	6063      	str	r3, [r4, #4]
 800803e:	6014      	str	r4, [r2, #0]
 8008040:	0028      	movs	r0, r5
 8008042:	f000 f8eb 	bl	800821c <__malloc_unlock>
 8008046:	bd70      	pop	{r4, r5, r6, pc}
 8008048:	42a3      	cmp	r3, r4
 800804a:	d908      	bls.n	800805e <_free_r+0x42>
 800804c:	6821      	ldr	r1, [r4, #0]
 800804e:	1860      	adds	r0, r4, r1
 8008050:	4283      	cmp	r3, r0
 8008052:	d1f3      	bne.n	800803c <_free_r+0x20>
 8008054:	6818      	ldr	r0, [r3, #0]
 8008056:	685b      	ldr	r3, [r3, #4]
 8008058:	1841      	adds	r1, r0, r1
 800805a:	6021      	str	r1, [r4, #0]
 800805c:	e7ee      	b.n	800803c <_free_r+0x20>
 800805e:	001a      	movs	r2, r3
 8008060:	685b      	ldr	r3, [r3, #4]
 8008062:	2b00      	cmp	r3, #0
 8008064:	d001      	beq.n	800806a <_free_r+0x4e>
 8008066:	42a3      	cmp	r3, r4
 8008068:	d9f9      	bls.n	800805e <_free_r+0x42>
 800806a:	6811      	ldr	r1, [r2, #0]
 800806c:	1850      	adds	r0, r2, r1
 800806e:	42a0      	cmp	r0, r4
 8008070:	d10b      	bne.n	800808a <_free_r+0x6e>
 8008072:	6820      	ldr	r0, [r4, #0]
 8008074:	1809      	adds	r1, r1, r0
 8008076:	1850      	adds	r0, r2, r1
 8008078:	6011      	str	r1, [r2, #0]
 800807a:	4283      	cmp	r3, r0
 800807c:	d1e0      	bne.n	8008040 <_free_r+0x24>
 800807e:	6818      	ldr	r0, [r3, #0]
 8008080:	685b      	ldr	r3, [r3, #4]
 8008082:	1841      	adds	r1, r0, r1
 8008084:	6011      	str	r1, [r2, #0]
 8008086:	6053      	str	r3, [r2, #4]
 8008088:	e7da      	b.n	8008040 <_free_r+0x24>
 800808a:	42a0      	cmp	r0, r4
 800808c:	d902      	bls.n	8008094 <_free_r+0x78>
 800808e:	230c      	movs	r3, #12
 8008090:	602b      	str	r3, [r5, #0]
 8008092:	e7d5      	b.n	8008040 <_free_r+0x24>
 8008094:	6821      	ldr	r1, [r4, #0]
 8008096:	1860      	adds	r0, r4, r1
 8008098:	4283      	cmp	r3, r0
 800809a:	d103      	bne.n	80080a4 <_free_r+0x88>
 800809c:	6818      	ldr	r0, [r3, #0]
 800809e:	685b      	ldr	r3, [r3, #4]
 80080a0:	1841      	adds	r1, r0, r1
 80080a2:	6021      	str	r1, [r4, #0]
 80080a4:	6063      	str	r3, [r4, #4]
 80080a6:	6054      	str	r4, [r2, #4]
 80080a8:	e7ca      	b.n	8008040 <_free_r+0x24>
 80080aa:	46c0      	nop			; (mov r8, r8)
 80080ac:	20001360 	.word	0x20001360

080080b0 <_malloc_r>:
 80080b0:	b5f8      	push	{r3, r4, r5, r6, r7, lr}
 80080b2:	2303      	movs	r3, #3
 80080b4:	1ccd      	adds	r5, r1, #3
 80080b6:	439d      	bics	r5, r3
 80080b8:	3508      	adds	r5, #8
 80080ba:	0006      	movs	r6, r0
 80080bc:	2d0c      	cmp	r5, #12
 80080be:	d21f      	bcs.n	8008100 <_malloc_r+0x50>
 80080c0:	250c      	movs	r5, #12
 80080c2:	42a9      	cmp	r1, r5
 80080c4:	d81e      	bhi.n	8008104 <_malloc_r+0x54>
 80080c6:	0030      	movs	r0, r6
 80080c8:	f000 f8a0 	bl	800820c <__malloc_lock>
 80080cc:	4925      	ldr	r1, [pc, #148]	; (8008164 <_malloc_r+0xb4>)
 80080ce:	680a      	ldr	r2, [r1, #0]
 80080d0:	0014      	movs	r4, r2
 80080d2:	2c00      	cmp	r4, #0
 80080d4:	d11a      	bne.n	800810c <_malloc_r+0x5c>
 80080d6:	4f24      	ldr	r7, [pc, #144]	; (8008168 <_malloc_r+0xb8>)
 80080d8:	683b      	ldr	r3, [r7, #0]
 80080da:	2b00      	cmp	r3, #0
 80080dc:	d104      	bne.n	80080e8 <_malloc_r+0x38>
 80080de:	0021      	movs	r1, r4
 80080e0:	0030      	movs	r0, r6
 80080e2:	f000 f843 	bl	800816c <_sbrk_r>
 80080e6:	6038      	str	r0, [r7, #0]
 80080e8:	0029      	movs	r1, r5
 80080ea:	0030      	movs	r0, r6
 80080ec:	f000 f83e 	bl	800816c <_sbrk_r>
 80080f0:	1c43      	adds	r3, r0, #1
 80080f2:	d12b      	bne.n	800814c <_malloc_r+0x9c>
 80080f4:	230c      	movs	r3, #12
 80080f6:	0030      	movs	r0, r6
 80080f8:	6033      	str	r3, [r6, #0]
 80080fa:	f000 f88f 	bl	800821c <__malloc_unlock>
 80080fe:	e003      	b.n	8008108 <_malloc_r+0x58>
 8008100:	2d00      	cmp	r5, #0
 8008102:	dade      	bge.n	80080c2 <_malloc_r+0x12>
 8008104:	230c      	movs	r3, #12
 8008106:	6033      	str	r3, [r6, #0]
 8008108:	2000      	movs	r0, #0
 800810a:	bdf8      	pop	{r3, r4, r5, r6, r7, pc}
 800810c:	6823      	ldr	r3, [r4, #0]
 800810e:	1b5b      	subs	r3, r3, r5
 8008110:	d419      	bmi.n	8008146 <_malloc_r+0x96>
 8008112:	2b0b      	cmp	r3, #11
 8008114:	d903      	bls.n	800811e <_malloc_r+0x6e>
 8008116:	6023      	str	r3, [r4, #0]
 8008118:	18e4      	adds	r4, r4, r3
 800811a:	6025      	str	r5, [r4, #0]
 800811c:	e003      	b.n	8008126 <_malloc_r+0x76>
 800811e:	6863      	ldr	r3, [r4, #4]
 8008120:	42a2      	cmp	r2, r4
 8008122:	d10e      	bne.n	8008142 <_malloc_r+0x92>
 8008124:	600b      	str	r3, [r1, #0]
 8008126:	0030      	movs	r0, r6
 8008128:	f000 f878 	bl	800821c <__malloc_unlock>
 800812c:	0020      	movs	r0, r4
 800812e:	2207      	movs	r2, #7
 8008130:	300b      	adds	r0, #11
 8008132:	1d23      	adds	r3, r4, #4
 8008134:	4390      	bics	r0, r2
 8008136:	1ac2      	subs	r2, r0, r3
 8008138:	4298      	cmp	r0, r3
 800813a:	d0e6      	beq.n	800810a <_malloc_r+0x5a>
 800813c:	1a1b      	subs	r3, r3, r0
 800813e:	50a3      	str	r3, [r4, r2]
 8008140:	e7e3      	b.n	800810a <_malloc_r+0x5a>
 8008142:	6053      	str	r3, [r2, #4]
 8008144:	e7ef      	b.n	8008126 <_malloc_r+0x76>
 8008146:	0022      	movs	r2, r4
 8008148:	6864      	ldr	r4, [r4, #4]
 800814a:	e7c2      	b.n	80080d2 <_malloc_r+0x22>
 800814c:	2303      	movs	r3, #3
 800814e:	1cc4      	adds	r4, r0, #3
 8008150:	439c      	bics	r4, r3
 8008152:	42a0      	cmp	r0, r4
 8008154:	d0e1      	beq.n	800811a <_malloc_r+0x6a>
 8008156:	1a21      	subs	r1, r4, r0
 8008158:	0030      	movs	r0, r6
 800815a:	f000 f807 	bl	800816c <_sbrk_r>
 800815e:	1c43      	adds	r3, r0, #1
 8008160:	d1db      	bne.n	800811a <_malloc_r+0x6a>
 8008162:	e7c7      	b.n	80080f4 <_malloc_r+0x44>
 8008164:	20001360 	.word	0x20001360
 8008168:	20001364 	.word	0x20001364

0800816c <_sbrk_r>:
 800816c:	2300      	movs	r3, #0
 800816e:	b570      	push	{r4, r5, r6, lr}
 8008170:	4d06      	ldr	r5, [pc, #24]	; (800818c <_sbrk_r+0x20>)
 8008172:	0004      	movs	r4, r0
 8008174:	0008      	movs	r0, r1
 8008176:	602b      	str	r3, [r5, #0]
 8008178:	f7fb f802 	bl	8003180 <_sbrk>
 800817c:	1c43      	adds	r3, r0, #1
 800817e:	d103      	bne.n	8008188 <_sbrk_r+0x1c>
 8008180:	682b      	ldr	r3, [r5, #0]
 8008182:	2b00      	cmp	r3, #0
 8008184:	d000      	beq.n	8008188 <_sbrk_r+0x1c>
 8008186:	6023      	str	r3, [r4, #0]
 8008188:	bd70      	pop	{r4, r5, r6, pc}
 800818a:	46c0      	nop			; (mov r8, r8)
 800818c:	20001630 	.word	0x20001630

08008190 <siprintf>:
 8008190:	b40e      	push	{r1, r2, r3}
 8008192:	b500      	push	{lr}
 8008194:	490b      	ldr	r1, [pc, #44]	; (80081c4 <siprintf+0x34>)
 8008196:	b09c      	sub	sp, #112	; 0x70
 8008198:	ab1d      	add	r3, sp, #116	; 0x74
 800819a:	9002      	str	r0, [sp, #8]
 800819c:	9006      	str	r0, [sp, #24]
 800819e:	9107      	str	r1, [sp, #28]
 80081a0:	9104      	str	r1, [sp, #16]
 80081a2:	4809      	ldr	r0, [pc, #36]	; (80081c8 <siprintf+0x38>)
 80081a4:	4909      	ldr	r1, [pc, #36]	; (80081cc <siprintf+0x3c>)
 80081a6:	cb04      	ldmia	r3!, {r2}
 80081a8:	9105      	str	r1, [sp, #20]
 80081aa:	6800      	ldr	r0, [r0, #0]
 80081ac:	a902      	add	r1, sp, #8
 80081ae:	9301      	str	r3, [sp, #4]
 80081b0:	f000 f89e 	bl	80082f0 <_svfiprintf_r>
 80081b4:	2300      	movs	r3, #0
 80081b6:	9a02      	ldr	r2, [sp, #8]
 80081b8:	7013      	strb	r3, [r2, #0]
 80081ba:	b01c      	add	sp, #112	; 0x70
 80081bc:	bc08      	pop	{r3}
 80081be:	b003      	add	sp, #12
 80081c0:	4718      	bx	r3
 80081c2:	46c0      	nop			; (mov r8, r8)
 80081c4:	7fffffff 	.word	0x7fffffff
 80081c8:	2000000c 	.word	0x2000000c
 80081cc:	ffff0208 	.word	0xffff0208

080081d0 <strcpy>:
 80081d0:	0003      	movs	r3, r0
 80081d2:	780a      	ldrb	r2, [r1, #0]
 80081d4:	3101      	adds	r1, #1
 80081d6:	701a      	strb	r2, [r3, #0]
 80081d8:	3301      	adds	r3, #1
 80081da:	2a00      	cmp	r2, #0
 80081dc:	d1f9      	bne.n	80081d2 <strcpy+0x2>
 80081de:	4770      	bx	lr

080081e0 <strstr>:
 80081e0:	780a      	ldrb	r2, [r1, #0]
 80081e2:	b530      	push	{r4, r5, lr}
 80081e4:	2a00      	cmp	r2, #0
 80081e6:	d10c      	bne.n	8008202 <strstr+0x22>
 80081e8:	bd30      	pop	{r4, r5, pc}
 80081ea:	429a      	cmp	r2, r3
 80081ec:	d108      	bne.n	8008200 <strstr+0x20>
 80081ee:	2301      	movs	r3, #1
 80081f0:	5ccc      	ldrb	r4, [r1, r3]
 80081f2:	2c00      	cmp	r4, #0
 80081f4:	d0f8      	beq.n	80081e8 <strstr+0x8>
 80081f6:	5cc5      	ldrb	r5, [r0, r3]
 80081f8:	42a5      	cmp	r5, r4
 80081fa:	d101      	bne.n	8008200 <strstr+0x20>
 80081fc:	3301      	adds	r3, #1
 80081fe:	e7f7      	b.n	80081f0 <strstr+0x10>
 8008200:	3001      	adds	r0, #1
 8008202:	7803      	ldrb	r3, [r0, #0]
 8008204:	2b00      	cmp	r3, #0
 8008206:	d1f0      	bne.n	80081ea <strstr+0xa>
 8008208:	0018      	movs	r0, r3
 800820a:	e7ed      	b.n	80081e8 <strstr+0x8>

0800820c <__malloc_lock>:
 800820c:	b510      	push	{r4, lr}
 800820e:	4802      	ldr	r0, [pc, #8]	; (8008218 <__malloc_lock+0xc>)
 8008210:	f000 faf0 	bl	80087f4 <__retarget_lock_acquire_recursive>
 8008214:	bd10      	pop	{r4, pc}
 8008216:	46c0      	nop			; (mov r8, r8)
 8008218:	20001638 	.word	0x20001638

0800821c <__malloc_unlock>:
 800821c:	b510      	push	{r4, lr}
 800821e:	4802      	ldr	r0, [pc, #8]	; (8008228 <__malloc_unlock+0xc>)
 8008220:	f000 fae9 	bl	80087f6 <__retarget_lock_release_recursive>
 8008224:	bd10      	pop	{r4, pc}
 8008226:	46c0      	nop			; (mov r8, r8)
 8008228:	20001638 	.word	0x20001638

0800822c <__ssputs_r>:
 800822c:	b5f0      	push	{r4, r5, r6, r7, lr}
 800822e:	688e      	ldr	r6, [r1, #8]
 8008230:	b085      	sub	sp, #20
 8008232:	0007      	movs	r7, r0
 8008234:	000c      	movs	r4, r1
 8008236:	9203      	str	r2, [sp, #12]
 8008238:	9301      	str	r3, [sp, #4]
 800823a:	429e      	cmp	r6, r3
 800823c:	d83c      	bhi.n	80082b8 <__ssputs_r+0x8c>
 800823e:	2390      	movs	r3, #144	; 0x90
 8008240:	898a      	ldrh	r2, [r1, #12]
 8008242:	00db      	lsls	r3, r3, #3
 8008244:	421a      	tst	r2, r3
 8008246:	d034      	beq.n	80082b2 <__ssputs_r+0x86>
 8008248:	2503      	movs	r5, #3
 800824a:	6909      	ldr	r1, [r1, #16]
 800824c:	6823      	ldr	r3, [r4, #0]
 800824e:	1a5b      	subs	r3, r3, r1
 8008250:	9302      	str	r3, [sp, #8]
 8008252:	6963      	ldr	r3, [r4, #20]
 8008254:	9802      	ldr	r0, [sp, #8]
 8008256:	435d      	muls	r5, r3
 8008258:	0feb      	lsrs	r3, r5, #31
 800825a:	195d      	adds	r5, r3, r5
 800825c:	9b01      	ldr	r3, [sp, #4]
 800825e:	106d      	asrs	r5, r5, #1
 8008260:	3301      	adds	r3, #1
 8008262:	181b      	adds	r3, r3, r0
 8008264:	42ab      	cmp	r3, r5
 8008266:	d900      	bls.n	800826a <__ssputs_r+0x3e>
 8008268:	001d      	movs	r5, r3
 800826a:	0553      	lsls	r3, r2, #21
 800826c:	d532      	bpl.n	80082d4 <__ssputs_r+0xa8>
 800826e:	0029      	movs	r1, r5
 8008270:	0038      	movs	r0, r7
 8008272:	f7ff ff1d 	bl	80080b0 <_malloc_r>
 8008276:	1e06      	subs	r6, r0, #0
 8008278:	d109      	bne.n	800828e <__ssputs_r+0x62>
 800827a:	230c      	movs	r3, #12
 800827c:	603b      	str	r3, [r7, #0]
 800827e:	2340      	movs	r3, #64	; 0x40
 8008280:	2001      	movs	r0, #1
 8008282:	89a2      	ldrh	r2, [r4, #12]
 8008284:	4240      	negs	r0, r0
 8008286:	4313      	orrs	r3, r2
 8008288:	81a3      	strh	r3, [r4, #12]
 800828a:	b005      	add	sp, #20
 800828c:	bdf0      	pop	{r4, r5, r6, r7, pc}
 800828e:	9a02      	ldr	r2, [sp, #8]
 8008290:	6921      	ldr	r1, [r4, #16]
 8008292:	f7ff fea3 	bl	8007fdc <memcpy>
 8008296:	89a3      	ldrh	r3, [r4, #12]
 8008298:	4a14      	ldr	r2, [pc, #80]	; (80082ec <__ssputs_r+0xc0>)
 800829a:	401a      	ands	r2, r3
 800829c:	2380      	movs	r3, #128	; 0x80
 800829e:	4313      	orrs	r3, r2
 80082a0:	81a3      	strh	r3, [r4, #12]
 80082a2:	9b02      	ldr	r3, [sp, #8]
 80082a4:	6126      	str	r6, [r4, #16]
 80082a6:	18f6      	adds	r6, r6, r3
 80082a8:	6026      	str	r6, [r4, #0]
 80082aa:	6165      	str	r5, [r4, #20]
 80082ac:	9e01      	ldr	r6, [sp, #4]
 80082ae:	1aed      	subs	r5, r5, r3
 80082b0:	60a5      	str	r5, [r4, #8]
 80082b2:	9b01      	ldr	r3, [sp, #4]
 80082b4:	429e      	cmp	r6, r3
 80082b6:	d900      	bls.n	80082ba <__ssputs_r+0x8e>
 80082b8:	9e01      	ldr	r6, [sp, #4]
 80082ba:	0032      	movs	r2, r6
 80082bc:	9903      	ldr	r1, [sp, #12]
 80082be:	6820      	ldr	r0, [r4, #0]
 80082c0:	f000 faa5 	bl	800880e <memmove>
 80082c4:	68a3      	ldr	r3, [r4, #8]
 80082c6:	2000      	movs	r0, #0
 80082c8:	1b9b      	subs	r3, r3, r6
 80082ca:	60a3      	str	r3, [r4, #8]
 80082cc:	6823      	ldr	r3, [r4, #0]
 80082ce:	199e      	adds	r6, r3, r6
 80082d0:	6026      	str	r6, [r4, #0]
 80082d2:	e7da      	b.n	800828a <__ssputs_r+0x5e>
 80082d4:	002a      	movs	r2, r5
 80082d6:	0038      	movs	r0, r7
 80082d8:	f000 faac 	bl	8008834 <_realloc_r>
 80082dc:	1e06      	subs	r6, r0, #0
 80082de:	d1e0      	bne.n	80082a2 <__ssputs_r+0x76>
 80082e0:	0038      	movs	r0, r7
 80082e2:	6921      	ldr	r1, [r4, #16]
 80082e4:	f7ff fe9a 	bl	800801c <_free_r>
 80082e8:	e7c7      	b.n	800827a <__ssputs_r+0x4e>
 80082ea:	46c0      	nop			; (mov r8, r8)
 80082ec:	fffffb7f 	.word	0xfffffb7f

080082f0 <_svfiprintf_r>:
 80082f0:	b5f0      	push	{r4, r5, r6, r7, lr}
 80082f2:	b0a1      	sub	sp, #132	; 0x84
 80082f4:	9003      	str	r0, [sp, #12]
 80082f6:	001d      	movs	r5, r3
 80082f8:	898b      	ldrh	r3, [r1, #12]
 80082fa:	000f      	movs	r7, r1
 80082fc:	0016      	movs	r6, r2
 80082fe:	061b      	lsls	r3, r3, #24
 8008300:	d511      	bpl.n	8008326 <_svfiprintf_r+0x36>
 8008302:	690b      	ldr	r3, [r1, #16]
 8008304:	2b00      	cmp	r3, #0
 8008306:	d10e      	bne.n	8008326 <_svfiprintf_r+0x36>
 8008308:	2140      	movs	r1, #64	; 0x40
 800830a:	f7ff fed1 	bl	80080b0 <_malloc_r>
 800830e:	6038      	str	r0, [r7, #0]
 8008310:	6138      	str	r0, [r7, #16]
 8008312:	2800      	cmp	r0, #0
 8008314:	d105      	bne.n	8008322 <_svfiprintf_r+0x32>
 8008316:	230c      	movs	r3, #12
 8008318:	9a03      	ldr	r2, [sp, #12]
 800831a:	3801      	subs	r0, #1
 800831c:	6013      	str	r3, [r2, #0]
 800831e:	b021      	add	sp, #132	; 0x84
 8008320:	bdf0      	pop	{r4, r5, r6, r7, pc}
 8008322:	2340      	movs	r3, #64	; 0x40
 8008324:	617b      	str	r3, [r7, #20]
 8008326:	2300      	movs	r3, #0
 8008328:	ac08      	add	r4, sp, #32
 800832a:	6163      	str	r3, [r4, #20]
 800832c:	3320      	adds	r3, #32
 800832e:	7663      	strb	r3, [r4, #25]
 8008330:	3310      	adds	r3, #16
 8008332:	76a3      	strb	r3, [r4, #26]
 8008334:	9507      	str	r5, [sp, #28]
 8008336:	0035      	movs	r5, r6
 8008338:	782b      	ldrb	r3, [r5, #0]
 800833a:	2b00      	cmp	r3, #0
 800833c:	d001      	beq.n	8008342 <_svfiprintf_r+0x52>
 800833e:	2b25      	cmp	r3, #37	; 0x25
 8008340:	d147      	bne.n	80083d2 <_svfiprintf_r+0xe2>
 8008342:	1bab      	subs	r3, r5, r6
 8008344:	9305      	str	r3, [sp, #20]
 8008346:	42b5      	cmp	r5, r6
 8008348:	d00c      	beq.n	8008364 <_svfiprintf_r+0x74>
 800834a:	0032      	movs	r2, r6
 800834c:	0039      	movs	r1, r7
 800834e:	9803      	ldr	r0, [sp, #12]
 8008350:	f7ff ff6c 	bl	800822c <__ssputs_r>
 8008354:	1c43      	adds	r3, r0, #1
 8008356:	d100      	bne.n	800835a <_svfiprintf_r+0x6a>
 8008358:	e0ae      	b.n	80084b8 <_svfiprintf_r+0x1c8>
 800835a:	6962      	ldr	r2, [r4, #20]
 800835c:	9b05      	ldr	r3, [sp, #20]
 800835e:	4694      	mov	ip, r2
 8008360:	4463      	add	r3, ip
 8008362:	6163      	str	r3, [r4, #20]
 8008364:	782b      	ldrb	r3, [r5, #0]
 8008366:	2b00      	cmp	r3, #0
 8008368:	d100      	bne.n	800836c <_svfiprintf_r+0x7c>
 800836a:	e0a5      	b.n	80084b8 <_svfiprintf_r+0x1c8>
 800836c:	2201      	movs	r2, #1
 800836e:	2300      	movs	r3, #0
 8008370:	4252      	negs	r2, r2
 8008372:	6062      	str	r2, [r4, #4]
 8008374:	a904      	add	r1, sp, #16
 8008376:	3254      	adds	r2, #84	; 0x54
 8008378:	1852      	adds	r2, r2, r1
 800837a:	1c6e      	adds	r6, r5, #1
 800837c:	6023      	str	r3, [r4, #0]
 800837e:	60e3      	str	r3, [r4, #12]
 8008380:	60a3      	str	r3, [r4, #8]
 8008382:	7013      	strb	r3, [r2, #0]
 8008384:	65a3      	str	r3, [r4, #88]	; 0x58
 8008386:	2205      	movs	r2, #5
 8008388:	7831      	ldrb	r1, [r6, #0]
 800838a:	4854      	ldr	r0, [pc, #336]	; (80084dc <_svfiprintf_r+0x1ec>)
 800838c:	f000 fa34 	bl	80087f8 <memchr>
 8008390:	1c75      	adds	r5, r6, #1
 8008392:	2800      	cmp	r0, #0
 8008394:	d11f      	bne.n	80083d6 <_svfiprintf_r+0xe6>
 8008396:	6822      	ldr	r2, [r4, #0]
 8008398:	06d3      	lsls	r3, r2, #27
 800839a:	d504      	bpl.n	80083a6 <_svfiprintf_r+0xb6>
 800839c:	2353      	movs	r3, #83	; 0x53
 800839e:	a904      	add	r1, sp, #16
 80083a0:	185b      	adds	r3, r3, r1
 80083a2:	2120      	movs	r1, #32
 80083a4:	7019      	strb	r1, [r3, #0]
 80083a6:	0713      	lsls	r3, r2, #28
 80083a8:	d504      	bpl.n	80083b4 <_svfiprintf_r+0xc4>
 80083aa:	2353      	movs	r3, #83	; 0x53
 80083ac:	a904      	add	r1, sp, #16
 80083ae:	185b      	adds	r3, r3, r1
 80083b0:	212b      	movs	r1, #43	; 0x2b
 80083b2:	7019      	strb	r1, [r3, #0]
 80083b4:	7833      	ldrb	r3, [r6, #0]
 80083b6:	2b2a      	cmp	r3, #42	; 0x2a
 80083b8:	d016      	beq.n	80083e8 <_svfiprintf_r+0xf8>
 80083ba:	0035      	movs	r5, r6
 80083bc:	2100      	movs	r1, #0
 80083be:	200a      	movs	r0, #10
 80083c0:	68e3      	ldr	r3, [r4, #12]
 80083c2:	782a      	ldrb	r2, [r5, #0]
 80083c4:	1c6e      	adds	r6, r5, #1
 80083c6:	3a30      	subs	r2, #48	; 0x30
 80083c8:	2a09      	cmp	r2, #9
 80083ca:	d94e      	bls.n	800846a <_svfiprintf_r+0x17a>
 80083cc:	2900      	cmp	r1, #0
 80083ce:	d111      	bne.n	80083f4 <_svfiprintf_r+0x104>
 80083d0:	e017      	b.n	8008402 <_svfiprintf_r+0x112>
 80083d2:	3501      	adds	r5, #1
 80083d4:	e7b0      	b.n	8008338 <_svfiprintf_r+0x48>
 80083d6:	4b41      	ldr	r3, [pc, #260]	; (80084dc <_svfiprintf_r+0x1ec>)
 80083d8:	6822      	ldr	r2, [r4, #0]
 80083da:	1ac0      	subs	r0, r0, r3
 80083dc:	2301      	movs	r3, #1
 80083de:	4083      	lsls	r3, r0
 80083e0:	4313      	orrs	r3, r2
 80083e2:	002e      	movs	r6, r5
 80083e4:	6023      	str	r3, [r4, #0]
 80083e6:	e7ce      	b.n	8008386 <_svfiprintf_r+0x96>
 80083e8:	9b07      	ldr	r3, [sp, #28]
 80083ea:	1d19      	adds	r1, r3, #4
 80083ec:	681b      	ldr	r3, [r3, #0]
 80083ee:	9107      	str	r1, [sp, #28]
 80083f0:	2b00      	cmp	r3, #0
 80083f2:	db01      	blt.n	80083f8 <_svfiprintf_r+0x108>
 80083f4:	930b      	str	r3, [sp, #44]	; 0x2c
 80083f6:	e004      	b.n	8008402 <_svfiprintf_r+0x112>
 80083f8:	425b      	negs	r3, r3
 80083fa:	60e3      	str	r3, [r4, #12]
 80083fc:	2302      	movs	r3, #2
 80083fe:	4313      	orrs	r3, r2
 8008400:	6023      	str	r3, [r4, #0]
 8008402:	782b      	ldrb	r3, [r5, #0]
 8008404:	2b2e      	cmp	r3, #46	; 0x2e
 8008406:	d10a      	bne.n	800841e <_svfiprintf_r+0x12e>
 8008408:	786b      	ldrb	r3, [r5, #1]
 800840a:	2b2a      	cmp	r3, #42	; 0x2a
 800840c:	d135      	bne.n	800847a <_svfiprintf_r+0x18a>
 800840e:	9b07      	ldr	r3, [sp, #28]
 8008410:	3502      	adds	r5, #2
 8008412:	1d1a      	adds	r2, r3, #4
 8008414:	681b      	ldr	r3, [r3, #0]
 8008416:	9207      	str	r2, [sp, #28]
 8008418:	2b00      	cmp	r3, #0
 800841a:	db2b      	blt.n	8008474 <_svfiprintf_r+0x184>
 800841c:	9309      	str	r3, [sp, #36]	; 0x24
 800841e:	4e30      	ldr	r6, [pc, #192]	; (80084e0 <_svfiprintf_r+0x1f0>)
 8008420:	2203      	movs	r2, #3
 8008422:	0030      	movs	r0, r6
 8008424:	7829      	ldrb	r1, [r5, #0]
 8008426:	f000 f9e7 	bl	80087f8 <memchr>
 800842a:	2800      	cmp	r0, #0
 800842c:	d006      	beq.n	800843c <_svfiprintf_r+0x14c>
 800842e:	2340      	movs	r3, #64	; 0x40
 8008430:	1b80      	subs	r0, r0, r6
 8008432:	4083      	lsls	r3, r0
 8008434:	6822      	ldr	r2, [r4, #0]
 8008436:	3501      	adds	r5, #1
 8008438:	4313      	orrs	r3, r2
 800843a:	6023      	str	r3, [r4, #0]
 800843c:	7829      	ldrb	r1, [r5, #0]
 800843e:	2206      	movs	r2, #6
 8008440:	4828      	ldr	r0, [pc, #160]	; (80084e4 <_svfiprintf_r+0x1f4>)
 8008442:	1c6e      	adds	r6, r5, #1
 8008444:	7621      	strb	r1, [r4, #24]
 8008446:	f000 f9d7 	bl	80087f8 <memchr>
 800844a:	2800      	cmp	r0, #0
 800844c:	d03c      	beq.n	80084c8 <_svfiprintf_r+0x1d8>
 800844e:	4b26      	ldr	r3, [pc, #152]	; (80084e8 <_svfiprintf_r+0x1f8>)
 8008450:	2b00      	cmp	r3, #0
 8008452:	d125      	bne.n	80084a0 <_svfiprintf_r+0x1b0>
 8008454:	2207      	movs	r2, #7
 8008456:	9b07      	ldr	r3, [sp, #28]
 8008458:	3307      	adds	r3, #7
 800845a:	4393      	bics	r3, r2
 800845c:	3308      	adds	r3, #8
 800845e:	9307      	str	r3, [sp, #28]
 8008460:	6963      	ldr	r3, [r4, #20]
 8008462:	9a04      	ldr	r2, [sp, #16]
 8008464:	189b      	adds	r3, r3, r2
 8008466:	6163      	str	r3, [r4, #20]
 8008468:	e765      	b.n	8008336 <_svfiprintf_r+0x46>
 800846a:	4343      	muls	r3, r0
 800846c:	0035      	movs	r5, r6
 800846e:	2101      	movs	r1, #1
 8008470:	189b      	adds	r3, r3, r2
 8008472:	e7a6      	b.n	80083c2 <_svfiprintf_r+0xd2>
 8008474:	2301      	movs	r3, #1
 8008476:	425b      	negs	r3, r3
 8008478:	e7d0      	b.n	800841c <_svfiprintf_r+0x12c>
 800847a:	2300      	movs	r3, #0
 800847c:	200a      	movs	r0, #10
 800847e:	001a      	movs	r2, r3
 8008480:	3501      	adds	r5, #1
 8008482:	6063      	str	r3, [r4, #4]
 8008484:	7829      	ldrb	r1, [r5, #0]
 8008486:	1c6e      	adds	r6, r5, #1
 8008488:	3930      	subs	r1, #48	; 0x30
 800848a:	2909      	cmp	r1, #9
 800848c:	d903      	bls.n	8008496 <_svfiprintf_r+0x1a6>
 800848e:	2b00      	cmp	r3, #0
 8008490:	d0c5      	beq.n	800841e <_svfiprintf_r+0x12e>
 8008492:	9209      	str	r2, [sp, #36]	; 0x24
 8008494:	e7c3      	b.n	800841e <_svfiprintf_r+0x12e>
 8008496:	4342      	muls	r2, r0
 8008498:	0035      	movs	r5, r6
 800849a:	2301      	movs	r3, #1
 800849c:	1852      	adds	r2, r2, r1
 800849e:	e7f1      	b.n	8008484 <_svfiprintf_r+0x194>
 80084a0:	ab07      	add	r3, sp, #28
 80084a2:	9300      	str	r3, [sp, #0]
 80084a4:	003a      	movs	r2, r7
 80084a6:	0021      	movs	r1, r4
 80084a8:	4b10      	ldr	r3, [pc, #64]	; (80084ec <_svfiprintf_r+0x1fc>)
 80084aa:	9803      	ldr	r0, [sp, #12]
 80084ac:	e000      	b.n	80084b0 <_svfiprintf_r+0x1c0>
 80084ae:	bf00      	nop
 80084b0:	9004      	str	r0, [sp, #16]
 80084b2:	9b04      	ldr	r3, [sp, #16]
 80084b4:	3301      	adds	r3, #1
 80084b6:	d1d3      	bne.n	8008460 <_svfiprintf_r+0x170>
 80084b8:	89bb      	ldrh	r3, [r7, #12]
 80084ba:	980d      	ldr	r0, [sp, #52]	; 0x34
 80084bc:	065b      	lsls	r3, r3, #25
 80084be:	d400      	bmi.n	80084c2 <_svfiprintf_r+0x1d2>
 80084c0:	e72d      	b.n	800831e <_svfiprintf_r+0x2e>
 80084c2:	2001      	movs	r0, #1
 80084c4:	4240      	negs	r0, r0
 80084c6:	e72a      	b.n	800831e <_svfiprintf_r+0x2e>
 80084c8:	ab07      	add	r3, sp, #28
 80084ca:	9300      	str	r3, [sp, #0]
 80084cc:	003a      	movs	r2, r7
 80084ce:	0021      	movs	r1, r4
 80084d0:	4b06      	ldr	r3, [pc, #24]	; (80084ec <_svfiprintf_r+0x1fc>)
 80084d2:	9803      	ldr	r0, [sp, #12]
 80084d4:	f000 f87c 	bl	80085d0 <_printf_i>
 80084d8:	e7ea      	b.n	80084b0 <_svfiprintf_r+0x1c0>
 80084da:	46c0      	nop			; (mov r8, r8)
 80084dc:	08008b54 	.word	0x08008b54
 80084e0:	08008b5a 	.word	0x08008b5a
 80084e4:	08008b5e 	.word	0x08008b5e
 80084e8:	00000000 	.word	0x00000000
 80084ec:	0800822d 	.word	0x0800822d

080084f0 <_printf_common>:
 80084f0:	b5f7      	push	{r0, r1, r2, r4, r5, r6, r7, lr}
 80084f2:	0015      	movs	r5, r2
 80084f4:	9301      	str	r3, [sp, #4]
 80084f6:	688a      	ldr	r2, [r1, #8]
 80084f8:	690b      	ldr	r3, [r1, #16]
 80084fa:	000c      	movs	r4, r1
 80084fc:	9000      	str	r0, [sp, #0]
 80084fe:	4293      	cmp	r3, r2
 8008500:	da00      	bge.n	8008504 <_printf_common+0x14>
 8008502:	0013      	movs	r3, r2
 8008504:	0022      	movs	r2, r4
 8008506:	602b      	str	r3, [r5, #0]
 8008508:	3243      	adds	r2, #67	; 0x43
 800850a:	7812      	ldrb	r2, [r2, #0]
 800850c:	2a00      	cmp	r2, #0
 800850e:	d001      	beq.n	8008514 <_printf_common+0x24>
 8008510:	3301      	adds	r3, #1
 8008512:	602b      	str	r3, [r5, #0]
 8008514:	6823      	ldr	r3, [r4, #0]
 8008516:	069b      	lsls	r3, r3, #26
 8008518:	d502      	bpl.n	8008520 <_printf_common+0x30>
 800851a:	682b      	ldr	r3, [r5, #0]
 800851c:	3302      	adds	r3, #2
 800851e:	602b      	str	r3, [r5, #0]
 8008520:	6822      	ldr	r2, [r4, #0]
 8008522:	2306      	movs	r3, #6
 8008524:	0017      	movs	r7, r2
 8008526:	401f      	ands	r7, r3
 8008528:	421a      	tst	r2, r3
 800852a:	d027      	beq.n	800857c <_printf_common+0x8c>
 800852c:	0023      	movs	r3, r4
 800852e:	3343      	adds	r3, #67	; 0x43
 8008530:	781b      	ldrb	r3, [r3, #0]
 8008532:	1e5a      	subs	r2, r3, #1
 8008534:	4193      	sbcs	r3, r2
 8008536:	6822      	ldr	r2, [r4, #0]
 8008538:	0692      	lsls	r2, r2, #26
 800853a:	d430      	bmi.n	800859e <_printf_common+0xae>
 800853c:	0022      	movs	r2, r4
 800853e:	9901      	ldr	r1, [sp, #4]
 8008540:	9800      	ldr	r0, [sp, #0]
 8008542:	9e08      	ldr	r6, [sp, #32]
 8008544:	3243      	adds	r2, #67	; 0x43
 8008546:	47b0      	blx	r6
 8008548:	1c43      	adds	r3, r0, #1
 800854a:	d025      	beq.n	8008598 <_printf_common+0xa8>
 800854c:	2306      	movs	r3, #6
 800854e:	6820      	ldr	r0, [r4, #0]
 8008550:	682a      	ldr	r2, [r5, #0]
 8008552:	68e1      	ldr	r1, [r4, #12]
 8008554:	2500      	movs	r5, #0
 8008556:	4003      	ands	r3, r0
 8008558:	2b04      	cmp	r3, #4
 800855a:	d103      	bne.n	8008564 <_printf_common+0x74>
 800855c:	1a8d      	subs	r5, r1, r2
 800855e:	43eb      	mvns	r3, r5
 8008560:	17db      	asrs	r3, r3, #31
 8008562:	401d      	ands	r5, r3
 8008564:	68a3      	ldr	r3, [r4, #8]
 8008566:	6922      	ldr	r2, [r4, #16]
 8008568:	4293      	cmp	r3, r2
 800856a:	dd01      	ble.n	8008570 <_printf_common+0x80>
 800856c:	1a9b      	subs	r3, r3, r2
 800856e:	18ed      	adds	r5, r5, r3
 8008570:	2700      	movs	r7, #0
 8008572:	42bd      	cmp	r5, r7
 8008574:	d120      	bne.n	80085b8 <_printf_common+0xc8>
 8008576:	2000      	movs	r0, #0
 8008578:	e010      	b.n	800859c <_printf_common+0xac>
 800857a:	3701      	adds	r7, #1
 800857c:	68e3      	ldr	r3, [r4, #12]
 800857e:	682a      	ldr	r2, [r5, #0]
 8008580:	1a9b      	subs	r3, r3, r2
 8008582:	42bb      	cmp	r3, r7
 8008584:	ddd2      	ble.n	800852c <_printf_common+0x3c>
 8008586:	0022      	movs	r2, r4
 8008588:	2301      	movs	r3, #1
 800858a:	9901      	ldr	r1, [sp, #4]
 800858c:	9800      	ldr	r0, [sp, #0]
 800858e:	9e08      	ldr	r6, [sp, #32]
 8008590:	3219      	adds	r2, #25
 8008592:	47b0      	blx	r6
 8008594:	1c43      	adds	r3, r0, #1
 8008596:	d1f0      	bne.n	800857a <_printf_common+0x8a>
 8008598:	2001      	movs	r0, #1
 800859a:	4240      	negs	r0, r0
 800859c:	bdfe      	pop	{r1, r2, r3, r4, r5, r6, r7, pc}
 800859e:	2030      	movs	r0, #48	; 0x30
 80085a0:	18e1      	adds	r1, r4, r3
 80085a2:	3143      	adds	r1, #67	; 0x43
 80085a4:	7008      	strb	r0, [r1, #0]
 80085a6:	0021      	movs	r1, r4
 80085a8:	1c5a      	adds	r2, r3, #1
 80085aa:	3145      	adds	r1, #69	; 0x45
 80085ac:	7809      	ldrb	r1, [r1, #0]
 80085ae:	18a2      	adds	r2, r4, r2
 80085b0:	3243      	adds	r2, #67	; 0x43
 80085b2:	3302      	adds	r3, #2
 80085b4:	7011      	strb	r1, [r2, #0]
 80085b6:	e7c1      	b.n	800853c <_printf_common+0x4c>
 80085b8:	0022      	movs	r2, r4
 80085ba:	2301      	movs	r3, #1
 80085bc:	9901      	ldr	r1, [sp, #4]
 80085be:	9800      	ldr	r0, [sp, #0]
 80085c0:	9e08      	ldr	r6, [sp, #32]
 80085c2:	321a      	adds	r2, #26
 80085c4:	47b0      	blx	r6
 80085c6:	1c43      	adds	r3, r0, #1
 80085c8:	d0e6      	beq.n	8008598 <_printf_common+0xa8>
 80085ca:	3701      	adds	r7, #1
 80085cc:	e7d1      	b.n	8008572 <_printf_common+0x82>
	...

080085d0 <_printf_i>:
 80085d0:	b5f0      	push	{r4, r5, r6, r7, lr}
 80085d2:	b08b      	sub	sp, #44	; 0x2c
 80085d4:	9206      	str	r2, [sp, #24]
 80085d6:	000a      	movs	r2, r1
 80085d8:	3243      	adds	r2, #67	; 0x43
 80085da:	9307      	str	r3, [sp, #28]
 80085dc:	9005      	str	r0, [sp, #20]
 80085de:	9204      	str	r2, [sp, #16]
 80085e0:	7e0a      	ldrb	r2, [r1, #24]
 80085e2:	000c      	movs	r4, r1
 80085e4:	9b10      	ldr	r3, [sp, #64]	; 0x40
 80085e6:	2a78      	cmp	r2, #120	; 0x78
 80085e8:	d806      	bhi.n	80085f8 <_printf_i+0x28>
 80085ea:	2a62      	cmp	r2, #98	; 0x62
 80085ec:	d808      	bhi.n	8008600 <_printf_i+0x30>
 80085ee:	2a00      	cmp	r2, #0
 80085f0:	d100      	bne.n	80085f4 <_printf_i+0x24>
 80085f2:	e0c0      	b.n	8008776 <_printf_i+0x1a6>
 80085f4:	2a58      	cmp	r2, #88	; 0x58
 80085f6:	d052      	beq.n	800869e <_printf_i+0xce>
 80085f8:	0026      	movs	r6, r4
 80085fa:	3642      	adds	r6, #66	; 0x42
 80085fc:	7032      	strb	r2, [r6, #0]
 80085fe:	e022      	b.n	8008646 <_printf_i+0x76>
 8008600:	0010      	movs	r0, r2
 8008602:	3863      	subs	r0, #99	; 0x63
 8008604:	2815      	cmp	r0, #21
 8008606:	d8f7      	bhi.n	80085f8 <_printf_i+0x28>
 8008608:	f7f7 fd86 	bl	8000118 <__gnu_thumb1_case_shi>
 800860c:	001f0016 	.word	0x001f0016
 8008610:	fff6fff6 	.word	0xfff6fff6
 8008614:	fff6fff6 	.word	0xfff6fff6
 8008618:	fff6001f 	.word	0xfff6001f
 800861c:	fff6fff6 	.word	0xfff6fff6
 8008620:	00a8fff6 	.word	0x00a8fff6
 8008624:	009a0036 	.word	0x009a0036
 8008628:	fff6fff6 	.word	0xfff6fff6
 800862c:	fff600b9 	.word	0xfff600b9
 8008630:	fff60036 	.word	0xfff60036
 8008634:	009efff6 	.word	0x009efff6
 8008638:	0026      	movs	r6, r4
 800863a:	681a      	ldr	r2, [r3, #0]
 800863c:	3642      	adds	r6, #66	; 0x42
 800863e:	1d11      	adds	r1, r2, #4
 8008640:	6019      	str	r1, [r3, #0]
 8008642:	6813      	ldr	r3, [r2, #0]
 8008644:	7033      	strb	r3, [r6, #0]
 8008646:	2301      	movs	r3, #1
 8008648:	e0a7      	b.n	800879a <_printf_i+0x1ca>
 800864a:	6808      	ldr	r0, [r1, #0]
 800864c:	6819      	ldr	r1, [r3, #0]
 800864e:	1d0a      	adds	r2, r1, #4
 8008650:	0605      	lsls	r5, r0, #24
 8008652:	d50b      	bpl.n	800866c <_printf_i+0x9c>
 8008654:	680d      	ldr	r5, [r1, #0]
 8008656:	601a      	str	r2, [r3, #0]
 8008658:	2d00      	cmp	r5, #0
 800865a:	da03      	bge.n	8008664 <_printf_i+0x94>
 800865c:	232d      	movs	r3, #45	; 0x2d
 800865e:	9a04      	ldr	r2, [sp, #16]
 8008660:	426d      	negs	r5, r5
 8008662:	7013      	strb	r3, [r2, #0]
 8008664:	4b61      	ldr	r3, [pc, #388]	; (80087ec <_printf_i+0x21c>)
 8008666:	270a      	movs	r7, #10
 8008668:	9303      	str	r3, [sp, #12]
 800866a:	e032      	b.n	80086d2 <_printf_i+0x102>
 800866c:	680d      	ldr	r5, [r1, #0]
 800866e:	601a      	str	r2, [r3, #0]
 8008670:	0641      	lsls	r1, r0, #25
 8008672:	d5f1      	bpl.n	8008658 <_printf_i+0x88>
 8008674:	b22d      	sxth	r5, r5
 8008676:	e7ef      	b.n	8008658 <_printf_i+0x88>
 8008678:	680d      	ldr	r5, [r1, #0]
 800867a:	6819      	ldr	r1, [r3, #0]
 800867c:	1d08      	adds	r0, r1, #4
 800867e:	6018      	str	r0, [r3, #0]
 8008680:	062e      	lsls	r6, r5, #24
 8008682:	d501      	bpl.n	8008688 <_printf_i+0xb8>
 8008684:	680d      	ldr	r5, [r1, #0]
 8008686:	e003      	b.n	8008690 <_printf_i+0xc0>
 8008688:	066d      	lsls	r5, r5, #25
 800868a:	d5fb      	bpl.n	8008684 <_printf_i+0xb4>
 800868c:	680d      	ldr	r5, [r1, #0]
 800868e:	b2ad      	uxth	r5, r5
 8008690:	4b56      	ldr	r3, [pc, #344]	; (80087ec <_printf_i+0x21c>)
 8008692:	270a      	movs	r7, #10
 8008694:	9303      	str	r3, [sp, #12]
 8008696:	2a6f      	cmp	r2, #111	; 0x6f
 8008698:	d117      	bne.n	80086ca <_printf_i+0xfa>
 800869a:	2708      	movs	r7, #8
 800869c:	e015      	b.n	80086ca <_printf_i+0xfa>
 800869e:	3145      	adds	r1, #69	; 0x45
 80086a0:	700a      	strb	r2, [r1, #0]
 80086a2:	4a52      	ldr	r2, [pc, #328]	; (80087ec <_printf_i+0x21c>)
 80086a4:	9203      	str	r2, [sp, #12]
 80086a6:	681a      	ldr	r2, [r3, #0]
 80086a8:	6821      	ldr	r1, [r4, #0]
 80086aa:	ca20      	ldmia	r2!, {r5}
 80086ac:	601a      	str	r2, [r3, #0]
 80086ae:	0608      	lsls	r0, r1, #24
 80086b0:	d550      	bpl.n	8008754 <_printf_i+0x184>
 80086b2:	07cb      	lsls	r3, r1, #31
 80086b4:	d502      	bpl.n	80086bc <_printf_i+0xec>
 80086b6:	2320      	movs	r3, #32
 80086b8:	4319      	orrs	r1, r3
 80086ba:	6021      	str	r1, [r4, #0]
 80086bc:	2710      	movs	r7, #16
 80086be:	2d00      	cmp	r5, #0
 80086c0:	d103      	bne.n	80086ca <_printf_i+0xfa>
 80086c2:	2320      	movs	r3, #32
 80086c4:	6822      	ldr	r2, [r4, #0]
 80086c6:	439a      	bics	r2, r3
 80086c8:	6022      	str	r2, [r4, #0]
 80086ca:	0023      	movs	r3, r4
 80086cc:	2200      	movs	r2, #0
 80086ce:	3343      	adds	r3, #67	; 0x43
 80086d0:	701a      	strb	r2, [r3, #0]
 80086d2:	6863      	ldr	r3, [r4, #4]
 80086d4:	60a3      	str	r3, [r4, #8]
 80086d6:	2b00      	cmp	r3, #0
 80086d8:	db03      	blt.n	80086e2 <_printf_i+0x112>
 80086da:	2204      	movs	r2, #4
 80086dc:	6821      	ldr	r1, [r4, #0]
 80086de:	4391      	bics	r1, r2
 80086e0:	6021      	str	r1, [r4, #0]
 80086e2:	2d00      	cmp	r5, #0
 80086e4:	d102      	bne.n	80086ec <_printf_i+0x11c>
 80086e6:	9e04      	ldr	r6, [sp, #16]
 80086e8:	2b00      	cmp	r3, #0
 80086ea:	d00c      	beq.n	8008706 <_printf_i+0x136>
 80086ec:	9e04      	ldr	r6, [sp, #16]
 80086ee:	0028      	movs	r0, r5
 80086f0:	0039      	movs	r1, r7
 80086f2:	f7f7 fda1 	bl	8000238 <__aeabi_uidivmod>
 80086f6:	9b03      	ldr	r3, [sp, #12]
 80086f8:	3e01      	subs	r6, #1
 80086fa:	5c5b      	ldrb	r3, [r3, r1]
 80086fc:	7033      	strb	r3, [r6, #0]
 80086fe:	002b      	movs	r3, r5
 8008700:	0005      	movs	r5, r0
 8008702:	429f      	cmp	r7, r3
 8008704:	d9f3      	bls.n	80086ee <_printf_i+0x11e>
 8008706:	2f08      	cmp	r7, #8
 8008708:	d109      	bne.n	800871e <_printf_i+0x14e>
 800870a:	6823      	ldr	r3, [r4, #0]
 800870c:	07db      	lsls	r3, r3, #31
 800870e:	d506      	bpl.n	800871e <_printf_i+0x14e>
 8008710:	6863      	ldr	r3, [r4, #4]
 8008712:	6922      	ldr	r2, [r4, #16]
 8008714:	4293      	cmp	r3, r2
 8008716:	dc02      	bgt.n	800871e <_printf_i+0x14e>
 8008718:	2330      	movs	r3, #48	; 0x30
 800871a:	3e01      	subs	r6, #1
 800871c:	7033      	strb	r3, [r6, #0]
 800871e:	9b04      	ldr	r3, [sp, #16]
 8008720:	1b9b      	subs	r3, r3, r6
 8008722:	6123      	str	r3, [r4, #16]
 8008724:	9b07      	ldr	r3, [sp, #28]
 8008726:	0021      	movs	r1, r4
 8008728:	9300      	str	r3, [sp, #0]
 800872a:	9805      	ldr	r0, [sp, #20]
 800872c:	9b06      	ldr	r3, [sp, #24]
 800872e:	aa09      	add	r2, sp, #36	; 0x24
 8008730:	f7ff fede 	bl	80084f0 <_printf_common>
 8008734:	1c43      	adds	r3, r0, #1
 8008736:	d135      	bne.n	80087a4 <_printf_i+0x1d4>
 8008738:	2001      	movs	r0, #1
 800873a:	4240      	negs	r0, r0
 800873c:	b00b      	add	sp, #44	; 0x2c
 800873e:	bdf0      	pop	{r4, r5, r6, r7, pc}
 8008740:	2220      	movs	r2, #32
 8008742:	6809      	ldr	r1, [r1, #0]
 8008744:	430a      	orrs	r2, r1
 8008746:	6022      	str	r2, [r4, #0]
 8008748:	0022      	movs	r2, r4
 800874a:	2178      	movs	r1, #120	; 0x78
 800874c:	3245      	adds	r2, #69	; 0x45
 800874e:	7011      	strb	r1, [r2, #0]
 8008750:	4a27      	ldr	r2, [pc, #156]	; (80087f0 <_printf_i+0x220>)
 8008752:	e7a7      	b.n	80086a4 <_printf_i+0xd4>
 8008754:	0648      	lsls	r0, r1, #25
 8008756:	d5ac      	bpl.n	80086b2 <_printf_i+0xe2>
 8008758:	b2ad      	uxth	r5, r5
 800875a:	e7aa      	b.n	80086b2 <_printf_i+0xe2>
 800875c:	681a      	ldr	r2, [r3, #0]
 800875e:	680d      	ldr	r5, [r1, #0]
 8008760:	1d10      	adds	r0, r2, #4
 8008762:	6949      	ldr	r1, [r1, #20]
 8008764:	6018      	str	r0, [r3, #0]
 8008766:	6813      	ldr	r3, [r2, #0]
 8008768:	062e      	lsls	r6, r5, #24
 800876a:	d501      	bpl.n	8008770 <_printf_i+0x1a0>
 800876c:	6019      	str	r1, [r3, #0]
 800876e:	e002      	b.n	8008776 <_printf_i+0x1a6>
 8008770:	066d      	lsls	r5, r5, #25
 8008772:	d5fb      	bpl.n	800876c <_printf_i+0x19c>
 8008774:	8019      	strh	r1, [r3, #0]
 8008776:	2300      	movs	r3, #0
 8008778:	9e04      	ldr	r6, [sp, #16]
 800877a:	6123      	str	r3, [r4, #16]
 800877c:	e7d2      	b.n	8008724 <_printf_i+0x154>
 800877e:	681a      	ldr	r2, [r3, #0]
 8008780:	1d11      	adds	r1, r2, #4
 8008782:	6019      	str	r1, [r3, #0]
 8008784:	6816      	ldr	r6, [r2, #0]
 8008786:	2100      	movs	r1, #0
 8008788:	0030      	movs	r0, r6
 800878a:	6862      	ldr	r2, [r4, #4]
 800878c:	f000 f834 	bl	80087f8 <memchr>
 8008790:	2800      	cmp	r0, #0
 8008792:	d001      	beq.n	8008798 <_printf_i+0x1c8>
 8008794:	1b80      	subs	r0, r0, r6
 8008796:	6060      	str	r0, [r4, #4]
 8008798:	6863      	ldr	r3, [r4, #4]
 800879a:	6123      	str	r3, [r4, #16]
 800879c:	2300      	movs	r3, #0
 800879e:	9a04      	ldr	r2, [sp, #16]
 80087a0:	7013      	strb	r3, [r2, #0]
 80087a2:	e7bf      	b.n	8008724 <_printf_i+0x154>
 80087a4:	6923      	ldr	r3, [r4, #16]
 80087a6:	0032      	movs	r2, r6
 80087a8:	9906      	ldr	r1, [sp, #24]
 80087aa:	9805      	ldr	r0, [sp, #20]
 80087ac:	9d07      	ldr	r5, [sp, #28]
 80087ae:	47a8      	blx	r5
 80087b0:	1c43      	adds	r3, r0, #1
 80087b2:	d0c1      	beq.n	8008738 <_printf_i+0x168>
 80087b4:	6823      	ldr	r3, [r4, #0]
 80087b6:	079b      	lsls	r3, r3, #30
 80087b8:	d415      	bmi.n	80087e6 <_printf_i+0x216>
 80087ba:	9b09      	ldr	r3, [sp, #36]	; 0x24
 80087bc:	68e0      	ldr	r0, [r4, #12]
 80087be:	4298      	cmp	r0, r3
 80087c0:	dabc      	bge.n	800873c <_printf_i+0x16c>
 80087c2:	0018      	movs	r0, r3
 80087c4:	e7ba      	b.n	800873c <_printf_i+0x16c>
 80087c6:	0022      	movs	r2, r4
 80087c8:	2301      	movs	r3, #1
 80087ca:	9906      	ldr	r1, [sp, #24]
 80087cc:	9805      	ldr	r0, [sp, #20]
 80087ce:	9e07      	ldr	r6, [sp, #28]
 80087d0:	3219      	adds	r2, #25
 80087d2:	47b0      	blx	r6
 80087d4:	1c43      	adds	r3, r0, #1
 80087d6:	d0af      	beq.n	8008738 <_printf_i+0x168>
 80087d8:	3501      	adds	r5, #1
 80087da:	68e3      	ldr	r3, [r4, #12]
 80087dc:	9a09      	ldr	r2, [sp, #36]	; 0x24
 80087de:	1a9b      	subs	r3, r3, r2
 80087e0:	42ab      	cmp	r3, r5
 80087e2:	dcf0      	bgt.n	80087c6 <_printf_i+0x1f6>
 80087e4:	e7e9      	b.n	80087ba <_printf_i+0x1ea>
 80087e6:	2500      	movs	r5, #0
 80087e8:	e7f7      	b.n	80087da <_printf_i+0x20a>
 80087ea:	46c0      	nop			; (mov r8, r8)
 80087ec:	08008b65 	.word	0x08008b65
 80087f0:	08008b76 	.word	0x08008b76

080087f4 <__retarget_lock_acquire_recursive>:
 80087f4:	4770      	bx	lr

080087f6 <__retarget_lock_release_recursive>:
 80087f6:	4770      	bx	lr

080087f8 <memchr>:
 80087f8:	b2c9      	uxtb	r1, r1
 80087fa:	1882      	adds	r2, r0, r2
 80087fc:	4290      	cmp	r0, r2
 80087fe:	d101      	bne.n	8008804 <memchr+0xc>
 8008800:	2000      	movs	r0, #0
 8008802:	4770      	bx	lr
 8008804:	7803      	ldrb	r3, [r0, #0]
 8008806:	428b      	cmp	r3, r1
 8008808:	d0fb      	beq.n	8008802 <memchr+0xa>
 800880a:	3001      	adds	r0, #1
 800880c:	e7f6      	b.n	80087fc <memchr+0x4>

0800880e <memmove>:
 800880e:	b510      	push	{r4, lr}
 8008810:	4288      	cmp	r0, r1
 8008812:	d902      	bls.n	800881a <memmove+0xc>
 8008814:	188b      	adds	r3, r1, r2
 8008816:	4298      	cmp	r0, r3
 8008818:	d303      	bcc.n	8008822 <memmove+0x14>
 800881a:	2300      	movs	r3, #0
 800881c:	e007      	b.n	800882e <memmove+0x20>
 800881e:	5c8b      	ldrb	r3, [r1, r2]
 8008820:	5483      	strb	r3, [r0, r2]
 8008822:	3a01      	subs	r2, #1
 8008824:	d2fb      	bcs.n	800881e <memmove+0x10>
 8008826:	bd10      	pop	{r4, pc}
 8008828:	5ccc      	ldrb	r4, [r1, r3]
 800882a:	54c4      	strb	r4, [r0, r3]
 800882c:	3301      	adds	r3, #1
 800882e:	429a      	cmp	r2, r3
 8008830:	d1fa      	bne.n	8008828 <memmove+0x1a>
 8008832:	e7f8      	b.n	8008826 <memmove+0x18>

08008834 <_realloc_r>:
 8008834:	b5f8      	push	{r3, r4, r5, r6, r7, lr}
 8008836:	0007      	movs	r7, r0
 8008838:	000d      	movs	r5, r1
 800883a:	0016      	movs	r6, r2
 800883c:	2900      	cmp	r1, #0
 800883e:	d105      	bne.n	800884c <_realloc_r+0x18>
 8008840:	0011      	movs	r1, r2
 8008842:	f7ff fc35 	bl	80080b0 <_malloc_r>
 8008846:	0004      	movs	r4, r0
 8008848:	0020      	movs	r0, r4
 800884a:	bdf8      	pop	{r3, r4, r5, r6, r7, pc}
 800884c:	2a00      	cmp	r2, #0
 800884e:	d103      	bne.n	8008858 <_realloc_r+0x24>
 8008850:	f7ff fbe4 	bl	800801c <_free_r>
 8008854:	0034      	movs	r4, r6
 8008856:	e7f7      	b.n	8008848 <_realloc_r+0x14>
 8008858:	f000 f812 	bl	8008880 <_malloc_usable_size_r>
 800885c:	002c      	movs	r4, r5
 800885e:	42b0      	cmp	r0, r6
 8008860:	d2f2      	bcs.n	8008848 <_realloc_r+0x14>
 8008862:	0031      	movs	r1, r6
 8008864:	0038      	movs	r0, r7
 8008866:	f7ff fc23 	bl	80080b0 <_malloc_r>
 800886a:	1e04      	subs	r4, r0, #0
 800886c:	d0ec      	beq.n	8008848 <_realloc_r+0x14>
 800886e:	0029      	movs	r1, r5
 8008870:	0032      	movs	r2, r6
 8008872:	f7ff fbb3 	bl	8007fdc <memcpy>
 8008876:	0029      	movs	r1, r5
 8008878:	0038      	movs	r0, r7
 800887a:	f7ff fbcf 	bl	800801c <_free_r>
 800887e:	e7e3      	b.n	8008848 <_realloc_r+0x14>

08008880 <_malloc_usable_size_r>:
 8008880:	1f0b      	subs	r3, r1, #4
 8008882:	681b      	ldr	r3, [r3, #0]
 8008884:	1f18      	subs	r0, r3, #4
 8008886:	2b00      	cmp	r3, #0
 8008888:	da01      	bge.n	800888e <_malloc_usable_size_r+0xe>
 800888a:	580b      	ldr	r3, [r1, r0]
 800888c:	18c0      	adds	r0, r0, r3
 800888e:	4770      	bx	lr

08008890 <_init>:
 8008890:	b5f8      	push	{r3, r4, r5, r6, r7, lr}
 8008892:	46c0      	nop			; (mov r8, r8)
 8008894:	bcf8      	pop	{r3, r4, r5, r6, r7}
 8008896:	bc08      	pop	{r3}
 8008898:	469e      	mov	lr, r3
 800889a:	4770      	bx	lr

0800889c <_fini>:
 800889c:	b5f8      	push	{r3, r4, r5, r6, r7, lr}
 800889e:	46c0      	nop			; (mov r8, r8)
 80088a0:	bcf8      	pop	{r3, r4, r5, r6, r7}
 80088a2:	bc08      	pop	{r3}
 80088a4:	469e      	mov	lr, r3
 80088a6:	4770      	bx	lr
